
AVRASM ver. 2.1.9  main.asm Sat May 07 17:00:30 2011

main.asm(996): Including file 'main.vec'
main.asm(997): Including file 'main.inc'
main.inc(2): warning: Register r5 already defined by the .DEF directive
main.asm(997): 'main.inc' included form here
main.inc(21): warning: Register r4 already defined by the .DEF directive
main.asm(997): 'main.inc' included form here
main.inc(22): warning: Register r6 already defined by the .DEF directive
main.asm(997): 'main.inc' included form here
main.inc(25): warning: Register r8 already defined by the .DEF directive
main.asm(997): 'main.inc' included form here
main.inc(28): warning: Register r10 already defined by the .DEF directive
main.asm(997): 'main.inc' included form here
main.inc(31): warning: Register r12 already defined by the .DEF directive
main.asm(997): 'main.inc' included form here
                 
                 
                 ;CodeVisionAVR C Compiler V1.25.3 Standard
                 ;(C) Copyright 1998-2007 Pavel Haiduc, HP InfoTech s.r.l.
                 ;http://www.hpinfotech.com
                 
                 ;Chip type              : ATmega64
                 ;Program type           : Application
                 ;Clock frequency        : 14.745600 MHz
                 ;Memory model           : Small
                 ;Optimize for           : Size
                 ;(s)printf features     : float, width, precision
                 ;(s)scanf features      : long, width
                 ;External SRAM size     : 0
                 ;Data Stack size        : 1024 byte(s)
                 ;Heap size              : 0 byte(s)
                 ;Promote char to int    : No
                 ;char is unsigned       : Yes
                 ;8 bit enums            : Yes
                 ;Word align FLASH struct: No
                 ;Enhanced core instructions    : On
                 ;Smart register allocation : On
                 ;Automatic register allocation : On
                 
                 	#pragma AVRPART ADMIN PART_NAME ATmega64
                 	#pragma AVRPART MEMORY PROG_FLASH 65536
                 	#pragma AVRPART MEMORY EEPROM 2048
                 	#pragma AVRPART MEMORY INT_SRAM SIZE 4096
                 	#pragma AVRPART MEMORY INT_SRAM START_ADDR 0x100
                 
                 	.EQU UDRE=0x5
                 	.EQU RXC=0x7
                 	.EQU USR=0xB
                 	.EQU UDR=0xC
                 	.EQU SPSR=0xE
                 	.EQU SPDR=0xF
                 	.EQU EERE=0x0
                 	.EQU EEWE=0x1
                 	.EQU EEMWE=0x2
                 	.EQU EECR=0x1C
                 	.EQU EEDR=0x1D
                 	.EQU EEARL=0x1E
                 	.EQU EEARH=0x1F
                 	.EQU WDTCR=0x21
                 	.EQU MCUCR=0x35
                 	.EQU SPL=0x3D
                 	.EQU SPH=0x3E
                 	.EQU SREG=0x3F
                 	.EQU XMCRA=0x6D
                 	.EQU XMCRB=0x6C
                 
                 	.DEF R0X0=R0
                 	.DEF R0X1=R1
                 	.DEF R0X2=R2
                 	.DEF R0X3=R3
                 	.DEF R0X4=R4
                 	.DEF R0X5=R5
                 	.DEF R0X6=R6
                 	.DEF R0X7=R7
                 	.DEF R0X8=R8
                 	.DEF R0X9=R9
                 	.DEF R0XA=R10
                 	.DEF R0XB=R11
                 	.DEF R0XC=R12
                 	.DEF R0XD=R13
                 	.DEF R0XE=R14
                 	.DEF R0XF=R15
                 	.DEF R0X10=R16
                 	.DEF R0X11=R17
                 	.DEF R0X12=R18
                 	.DEF R0X13=R19
                 	.DEF R0X14=R20
                 	.DEF R0X15=R21
                 	.DEF R0X16=R22
                 	.DEF R0X17=R23
                 	.DEF R0X18=R24
                 	.DEF R0X19=R25
                 	.DEF R0X1A=R26
                 	.DEF R0X1B=R27
                 	.DEF R0X1C=R28
                 	.DEF R0X1D=R29
                 	.DEF R0X1E=R30
                 	.DEF R0X1F=R31
                 
                 	.EQU __se_bit=0x20
                 	.EQU __sm_mask=0x1C
                 	.EQU __sm_adc_noise_red=0x08
                 	.EQU __sm_powerdown=0x10
                 	.EQU __sm_powersave=0x18
                 	.EQU __sm_standby=0x14
                 	.EQU __sm_ext_standby=0x1C
                 
                 	.MACRO __CPD1N
                 	CPI  R30,LOW(@0)
                 	LDI  R26,HIGH(@0)
                 	CPC  R31,R26
                 	LDI  R26,BYTE3(@0)
                 	CPC  R22,R26
                 	LDI  R26,BYTE4(@0)
                 	CPC  R23,R26
                 	.ENDM
                 
                 	.MACRO __CPD2N
                 	CPI  R26,LOW(@0)
                 	LDI  R30,HIGH(@0)
                 	CPC  R27,R30
                 	LDI  R30,BYTE3(@0)
                 	CPC  R24,R30
                 	LDI  R30,BYTE4(@0)
                 	CPC  R25,R30
                 	.ENDM
                 
                 	.MACRO __CPWRR
                 	CP   R@0,R@2
                 	CPC  R@1,R@3
                 	.ENDM
                 
                 	.MACRO __CPWRN
                 	CPI  R@0,LOW(@2)
                 	LDI  R30,HIGH(@2)
                 	CPC  R@1,R30
                 	.ENDM
                 
                 	.MACRO __ADDB1MN
                 	SUBI R30,LOW(-@0-(@1))
                 	.ENDM
                 	.MACRO __ADDB2MN
                 	SUBI R26,LOW(-@0-(@1))
                 	.ENDM
                 	.MACRO __ADDW1MN
                 	SUBI R30,LOW(-@0-(@1))
                 	SBCI R31,HIGH(-@0-(@1))
                 	.ENDM
                 	.MACRO __ADDW2MN
                 	SUBI R26,LOW(-@0-(@1))
                 	SBCI R27,HIGH(-@0-(@1))
                 	.ENDM
                 	.MACRO __ADDW1FN
                 	SUBI R30,LOW(-2*@0-(@1))
                 	SBCI R31,HIGH(-2*@0-(@1))
                 	.ENDM
                 	.MACRO __ADDD1FN
                 	SUBI R30,LOW(-2*@0-(@1))
                 	SBCI R31,HIGH(-2*@0-(@1))
                 	SBCI R22,BYTE3(-2*@0-(@1))
                 	.ENDM
                 	.MACRO __ADDD1N
                 	SUBI R30,LOW(-@0)
                 	SBCI R31,HIGH(-@0)
                 	SBCI R22,BYTE3(-@0)
                 	SBCI R23,BYTE4(-@0)
                 	.ENDM
                 
                 	.MACRO __ADDD2N
                 	SUBI R26,LOW(-@0)
                 	SBCI R27,HIGH(-@0)
                 	SBCI R24,BYTE3(-@0)
                 	SBCI R25,BYTE4(-@0)
                 	.ENDM
                 
                 	.MACRO __SUBD1N
                 	SUBI R30,LOW(@0)
                 	SBCI R31,HIGH(@0)
                 	SBCI R22,BYTE3(@0)
                 	SBCI R23,BYTE4(@0)
                 	.ENDM
                 
                 	.MACRO __SUBD2N
                 	SUBI R26,LOW(@0)
                 	SBCI R27,HIGH(@0)
                 	SBCI R24,BYTE3(@0)
                 	SBCI R25,BYTE4(@0)
                 	.ENDM
                 
                 	.MACRO __ANDBMNN
                 	LDS  R30,@0+@1
                 	ANDI R30,LOW(@2)
                 	STS  @0+@1,R30
                 	.ENDM
                 
                 	.MACRO __ANDWMNN
                 	LDS  R30,@0+@1
                 	ANDI R30,LOW(@2)
                 	STS  @0+@1,R30
                 	LDS  R30,@0+@1+1
                 	ANDI R30,HIGH(@2)
                 	STS  @0+@1+1,R30
                 	.ENDM
                 
                 	.MACRO __ANDD1N
                 	ANDI R30,LOW(@0)
                 	ANDI R31,HIGH(@0)
                 	ANDI R22,BYTE3(@0)
                 	ANDI R23,BYTE4(@0)
                 	.ENDM
                 
                 	.MACRO __ORBMNN
                 	LDS  R30,@0+@1
                 	ORI  R30,LOW(@2)
                 	STS  @0+@1,R30
                 	.ENDM
                 
                 	.MACRO __ORWMNN
                 	LDS  R30,@0+@1
                 	ORI  R30,LOW(@2)
                 	STS  @0+@1,R30
                 	LDS  R30,@0+@1+1
                 	ORI  R30,HIGH(@2)
                 	STS  @0+@1+1,R30
                 	.ENDM
                 
                 	.MACRO __ORD1N
                 	ORI  R30,LOW(@0)
                 	ORI  R31,HIGH(@0)
                 	ORI  R22,BYTE3(@0)
                 	ORI  R23,BYTE4(@0)
                 	.ENDM
                 
                 	.MACRO __DELAY_USB
                 	LDI  R24,LOW(@0)
                 __DELAY_USB_LOOP:
                 	DEC  R24
                 	BRNE __DELAY_USB_LOOP
                 	.ENDM
                 
                 	.MACRO __DELAY_USW
                 	LDI  R24,LOW(@0)
                 	LDI  R25,HIGH(@0)
                 __DELAY_USW_LOOP:
                 	SBIW R24,1
                 	BRNE __DELAY_USW_LOOP
                 	.ENDM
                 
                 	.MACRO __CLRD1S
                 	LDI  R30,0
                 	STD  Y+@0,R30
                 	STD  Y+@0+1,R30
                 	STD  Y+@0+2,R30
                 	STD  Y+@0+3,R30
                 	.ENDM
                 
                 	.MACRO __GETD1S
                 	LDD  R30,Y+@0
                 	LDD  R31,Y+@0+1
                 	LDD  R22,Y+@0+2
                 	LDD  R23,Y+@0+3
                 	.ENDM
                 
                 	.MACRO __PUTD1S
                 	STD  Y+@0,R30
                 	STD  Y+@0+1,R31
                 	STD  Y+@0+2,R22
                 	STD  Y+@0+3,R23
                 	.ENDM
                 
                 	.MACRO __PUTD2S
                 	STD  Y+@0,R26
                 	STD  Y+@0+1,R27
                 	STD  Y+@0+2,R24
                 	STD  Y+@0+3,R25
                 	.ENDM
                 
                 	.MACRO __POINTB1MN
                 	LDI  R30,LOW(@0+@1)
                 	.ENDM
                 
                 	.MACRO __POINTW1MN
                 	LDI  R30,LOW(@0+@1)
                 	LDI  R31,HIGH(@0+@1)
                 	.ENDM
                 
                 	.MACRO __POINTD1M
                 	LDI  R30,LOW(@0)
                 	LDI  R31,HIGH(@0)
                 	LDI  R22,BYTE3(@0)
                 	.ENDM
                 
                 	.MACRO __POINTW1FN
                 	LDI  R30,LOW(2*@0+@1)
                 	LDI  R31,HIGH(2*@0+@1)
                 	.ENDM
                 
                 	.MACRO __POINTD1FN
                 	LDI  R30,LOW(2*@0+@1)
                 	LDI  R31,HIGH(2*@0+@1)
                 	LDI  R22,BYTE3(2*@0+@1)
                 	.ENDM
                 
                 	.MACRO __POINTB2MN
                 	LDI  R26,LOW(@0+@1)
                 	.ENDM
                 
                 	.MACRO __POINTW2MN
                 	LDI  R26,LOW(@0+@1)
                 	LDI  R27,HIGH(@0+@1)
                 	.ENDM
                 
                 	.MACRO __POINTBRM
                 	LDI  R@0,LOW(@1)
                 	.ENDM
                 
                 	.MACRO __POINTWRM
                 	LDI  R@0,LOW(@2)
                 	LDI  R@1,HIGH(@2)
                 	.ENDM
                 
                 	.MACRO __POINTBRMN
                 	LDI  R@0,LOW(@1+@2)
                 	.ENDM
                 
                 	.MACRO __POINTWRMN
                 	LDI  R@0,LOW(@2+@3)
                 	LDI  R@1,HIGH(@2+@3)
                 	.ENDM
                 
                 	.MACRO __POINTWRFN
                 	LDI  R@0,LOW(@2*2+@3)
                 	LDI  R@1,HIGH(@2*2+@3)
                 	.ENDM
                 
                 	.MACRO __GETD1N
                 	LDI  R30,LOW(@0)
                 	LDI  R31,HIGH(@0)
                 	LDI  R22,BYTE3(@0)
                 	LDI  R23,BYTE4(@0)
                 	.ENDM
                 
                 	.MACRO __GETD2N
                 	LDI  R26,LOW(@0)
                 	LDI  R27,HIGH(@0)
                 	LDI  R24,BYTE3(@0)
                 	LDI  R25,BYTE4(@0)
                 	.ENDM
                 
                 	.MACRO __GETD2S
                 	LDD  R26,Y+@0
                 	LDD  R27,Y+@0+1
                 	LDD  R24,Y+@0+2
                 	LDD  R25,Y+@0+3
                 	.ENDM
                 
                 	.MACRO __GETB1MN
                 	LDS  R30,@0+@1
                 	.ENDM
                 
                 	.MACRO __GETB1HMN
                 	LDS  R31,@0+@1
                 	.ENDM
                 
                 	.MACRO __GETW1MN
                 	LDS  R30,@0+@1
                 	LDS  R31,@0+@1+1
                 	.ENDM
                 
                 	.MACRO __GETD1MN
                 	LDS  R30,@0+@1
                 	LDS  R31,@0+@1+1
                 	LDS  R22,@0+@1+2
                 	LDS  R23,@0+@1+3
                 	.ENDM
                 
                 	.MACRO __GETBRMN
                 	LDS  R@0,@1+@2
                 	.ENDM
                 
                 	.MACRO __GETWRMN
                 	LDS  R@0,@2+@3
                 	LDS  R@1,@2+@3+1
                 	.ENDM
                 
                 	.MACRO __GETWRZ
                 	LDD  R@0,Z+@2
                 	LDD  R@1,Z+@2+1
                 	.ENDM
                 
                 	.MACRO __GETD2Z
                 	LDD  R26,Z+@0
                 	LDD  R27,Z+@0+1
                 	LDD  R24,Z+@0+2
                 	LDD  R25,Z+@0+3
                 	.ENDM
                 
                 	.MACRO __GETB2MN
                 	LDS  R26,@0+@1
                 	.ENDM
                 
                 	.MACRO __GETW2MN
                 	LDS  R26,@0+@1
                 	LDS  R27,@0+@1+1
                 	.ENDM
                 
                 	.MACRO __GETD2MN
                 	LDS  R26,@0+@1
                 	LDS  R27,@0+@1+1
                 	LDS  R24,@0+@1+2
                 	LDS  R25,@0+@1+3
                 	.ENDM
                 
                 	.MACRO __PUTB1MN
                 	STS  @0+@1,R30
                 	.ENDM
                 
                 	.MACRO __PUTW1MN
                 	STS  @0+@1,R30
                 	STS  @0+@1+1,R31
                 	.ENDM
                 
                 	.MACRO __PUTD1MN
                 	STS  @0+@1,R30
                 	STS  @0+@1+1,R31
                 	STS  @0+@1+2,R22
                 	STS  @0+@1+3,R23
                 	.ENDM
                 
                 	.MACRO __PUTBR0MN
                 	STS  @0+@1,R0
                 	.ENDM
                 
                 	.MACRO __PUTDZ2
                 	STD  Z+@0,R26
                 	STD  Z+@0+1,R27
                 	STD  Z+@0+2,R24
                 	STD  Z+@0+3,R25
                 	.ENDM
                 
                 	.MACRO __PUTBMRN
                 	STS  @0+@1,R@2
                 	.ENDM
                 
                 	.MACRO __PUTWMRN
                 	STS  @0+@1,R@2
                 	STS  @0+@1+1,R@3
                 	.ENDM
                 
                 	.MACRO __PUTBZR
                 	STD  Z+@1,R@0
                 	.ENDM
                 
                 	.MACRO __PUTWZR
                 	STD  Z+@2,R@0
                 	STD  Z+@2+1,R@1
                 	.ENDM
                 
                 	.MACRO __GETW1R
                 	MOV  R30,R@0
                 	MOV  R31,R@1
                 	.ENDM
                 
                 	.MACRO __GETW2R
                 	MOV  R26,R@0
                 	MOV  R27,R@1
                 	.ENDM
                 
                 	.MACRO __GETWRN
                 	LDI  R@0,LOW(@2)
                 	LDI  R@1,HIGH(@2)
                 	.ENDM
                 
                 	.MACRO __PUTW1R
                 	MOV  R@0,R30
                 	MOV  R@1,R31
                 	.ENDM
                 
                 	.MACRO __PUTW2R
                 	MOV  R@0,R26
                 	MOV  R@1,R27
                 	.ENDM
                 
                 	.MACRO __ADDWRN
                 	SUBI R@0,LOW(-@2)
                 	SBCI R@1,HIGH(-@2)
                 	.ENDM
                 
                 	.MACRO __ADDWRR
                 	ADD  R@0,R@2
                 	ADC  R@1,R@3
                 	.ENDM
                 
                 	.MACRO __SUBWRN
                 	SUBI R@0,LOW(@2)
                 	SBCI R@1,HIGH(@2)
                 	.ENDM
                 
                 	.MACRO __SUBWRR
                 	SUB  R@0,R@2
                 	SBC  R@1,R@3
                 	.ENDM
                 
                 	.MACRO __ANDWRN
                 	ANDI R@0,LOW(@2)
                 	ANDI R@1,HIGH(@2)
                 	.ENDM
                 
                 	.MACRO __ANDWRR
                 	AND  R@0,R@2
                 	AND  R@1,R@3
                 	.ENDM
                 
                 	.MACRO __ORWRN
                 	ORI  R@0,LOW(@2)
                 	ORI  R@1,HIGH(@2)
                 	.ENDM
                 
                 	.MACRO __ORWRR
                 	OR   R@0,R@2
                 	OR   R@1,R@3
                 	.ENDM
                 
                 	.MACRO __EORWRR
                 	EOR  R@0,R@2
                 	EOR  R@1,R@3
                 	.ENDM
                 
                 	.MACRO __GETWRS
                 	LDD  R@0,Y+@2
                 	LDD  R@1,Y+@2+1
                 	.ENDM
                 
                 	.MACRO __PUTWSR
                 	STD  Y+@2,R@0
                 	STD  Y+@2+1,R@1
                 	.ENDM
                 
                 	.MACRO __MOVEWRR
                 	MOV  R@0,R@2
                 	MOV  R@1,R@3
                 	.ENDM
                 
                 	.MACRO __INWR
                 	IN   R@0,@2
                 	IN   R@1,@2+1
                 	.ENDM
                 
                 	.MACRO __OUTWR
                 	OUT  @2+1,R@1
                 	OUT  @2,R@0
                 	.ENDM
                 
                 	.MACRO __CALL1MN
                 	LDS  R30,@0+@1
                 	LDS  R31,@0+@1+1
                 	ICALL
                 	.ENDM
                 
                 	.MACRO __CALL1FN
                 	LDI  R30,LOW(2*@0+@1)
                 	LDI  R31,HIGH(2*@0+@1)
                 	CALL __GETW1PF
                 	ICALL
                 	.ENDM
                 
                 	.MACRO __CALL2EN
                 	LDI  R26,LOW(@0+@1)
                 	LDI  R27,HIGH(@0+@1)
                 	CALL __EEPROMRDW
                 	ICALL
                 	.ENDM
                 
                 	.MACRO __GETW1STACK
                 	IN   R26,SPL
                 	IN   R27,SPH
                 	ADIW R26,@0+1
                 	LD   R30,X+
                 	LD   R31,X
                 	.ENDM
                 
                 	.MACRO __NBST
                 	BST  R@0,@1
                 	IN   R30,SREG
                 	LDI  R31,0x40
                 	EOR  R30,R31
                 	OUT  SREG,R30
                 	.ENDM
                 
                 
                 	.MACRO __PUTB1SN
                 	LDD  R26,Y+@0
                 	LDD  R27,Y+@0+1
                 	SUBI R26,LOW(-@1)
                 	SBCI R27,HIGH(-@1)
                 	ST   X,R30
                 	.ENDM
                 
                 	.MACRO __PUTW1SN
                 	LDD  R26,Y+@0
                 	LDD  R27,Y+@0+1
                 	SUBI R26,LOW(-@1)
                 	SBCI R27,HIGH(-@1)
                 	ST   X+,R30
                 	ST   X,R31
                 	.ENDM
                 
                 	.MACRO __PUTD1SN
                 	LDD  R26,Y+@0
                 	LDD  R27,Y+@0+1
                 	SUBI R26,LOW(-@1)
                 	SBCI R27,HIGH(-@1)
                 	CALL __PUTDP1
                 	.ENDM
                 
                 	.MACRO __PUTB1SNS
                 	LDD  R26,Y+@0
                 	LDD  R27,Y+@0+1
                 	ADIW R26,@1
                 	ST   X,R30
                 	.ENDM
                 
                 	.MACRO __PUTW1SNS
                 	LDD  R26,Y+@0
                 	LDD  R27,Y+@0+1
                 	ADIW R26,@1
                 	ST   X+,R30
                 	ST   X,R31
                 	.ENDM
                 
                 	.MACRO __PUTD1SNS
                 	LDD  R26,Y+@0
                 	LDD  R27,Y+@0+1
                 	ADIW R26,@1
                 	CALL __PUTDP1
                 	.ENDM
                 
                 	.MACRO __PUTB1PMN
                 	LDS  R26,@0
                 	LDS  R27,@0+1
                 	SUBI R26,LOW(-@1)
                 	SBCI R27,HIGH(-@1)
                 	ST   X,R30
                 	.ENDM
                 
                 	.MACRO __PUTW1PMN
                 	LDS  R26,@0
                 	LDS  R27,@0+1
                 	SUBI R26,LOW(-@1)
                 	SBCI R27,HIGH(-@1)
                 	ST   X+,R30
                 	ST   X,R31
                 	.ENDM
                 
                 	.MACRO __PUTD1PMN
                 	LDS  R26,@0
                 	LDS  R27,@0+1
                 	SUBI R26,LOW(-@1)
                 	SBCI R27,HIGH(-@1)
                 	CALL __PUTDP1
                 	.ENDM
                 
                 	.MACRO __PUTB1PMNS
                 	LDS  R26,@0
                 	LDS  R27,@0+1
                 	ADIW R26,@1
                 	ST   X,R30
                 	.ENDM
                 
                 	.MACRO __PUTW1PMNS
                 	LDS  R26,@0
                 	LDS  R27,@0+1
                 	ADIW R26,@1
                 	ST   X+,R30
                 	ST   X,R31
                 	.ENDM
                 
                 	.MACRO __PUTD1PMNS
                 	LDS  R26,@0
                 	LDS  R27,@0+1
                 	ADIW R26,@1
                 	CALL __PUTDP1
                 	.ENDM
                 
                 	.MACRO __PUTB1RN
                 	MOVW R26,R@0
                 	SUBI R26,LOW(-@1)
                 	SBCI R27,HIGH(-@1)
                 	ST   X,R30
                 	.ENDM
                 
                 	.MACRO __PUTW1RN
                 	MOVW R26,R@0
                 	SUBI R26,LOW(-@1)
                 	SBCI R27,HIGH(-@1)
                 	ST   X+,R30
                 	ST   X,R31
                 	.ENDM
                 
                 	.MACRO __PUTD1RN
                 	MOVW R26,R@0
                 	SUBI R26,LOW(-@1)
                 	SBCI R27,HIGH(-@1)
                 	CALL __PUTDP1
                 	.ENDM
                 
                 	.MACRO __PUTB1RNS
                 	MOVW R26,R@0
                 	ADIW R26,@1
                 	ST   X,R30
                 	.ENDM
                 
                 	.MACRO __PUTW1RNS
                 	MOVW R26,R@0
                 	ADIW R26,@1
                 	ST   X+,R30
                 	ST   X,R31
                 	.ENDM
                 
                 	.MACRO __PUTD1RNS
                 	MOVW R26,R@0
                 	ADIW R26,@1
                 	CALL __PUTDP1
                 	.ENDM
                 
                 	.MACRO __PUTB1RON
                 	MOV  R26,R@0
                 	MOV  R27,R@1
                 	SUBI R26,LOW(-@2)
                 	SBCI R27,HIGH(-@2)
                 	ST   X,R30
                 	.ENDM
                 
                 	.MACRO __PUTW1RON
                 	MOV  R26,R@0
                 	MOV  R27,R@1
                 	SUBI R26,LOW(-@2)
                 	SBCI R27,HIGH(-@2)
                 	ST   X+,R30
                 	ST   X,R31
                 	.ENDM
                 
                 	.MACRO __PUTD1RON
                 	MOV  R26,R@0
                 	MOV  R27,R@1
                 	SUBI R26,LOW(-@2)
                 	SBCI R27,HIGH(-@2)
                 	CALL __PUTDP1
                 	.ENDM
                 
                 	.MACRO __PUTB1RONS
                 	MOV  R26,R@0
                 	MOV  R27,R@1
                 	ADIW R26,@2
                 	ST   X,R30
                 	.ENDM
                 
                 	.MACRO __PUTW1RONS
                 	MOV  R26,R@0
                 	MOV  R27,R@1
                 	ADIW R26,@2
                 	ST   X+,R30
                 	ST   X,R31
                 	.ENDM
                 
                 	.MACRO __PUTD1RONS
                 	MOV  R26,R@0
                 	MOV  R27,R@1
                 	ADIW R26,@2
                 	CALL __PUTDP1
                 	.ENDM
                 
                 
                 	.MACRO __GETB1SX
                 	MOVW R30,R28
                 	SUBI R30,LOW(-@0)
                 	SBCI R31,HIGH(-@0)
                 	LD   R30,Z
                 	.ENDM
                 
                 	.MACRO __GETB1HSX
                 	MOVW R30,R28
                 	SUBI R30,LOW(-@0)
                 	SBCI R31,HIGH(-@0)
                 	LD   R31,Z
                 	.ENDM
                 
                 	.MACRO __GETW1SX
                 	MOVW R30,R28
                 	SUBI R30,LOW(-@0)
                 	SBCI R31,HIGH(-@0)
                 	LD   R0,Z+
                 	LD   R31,Z
                 	MOV  R30,R0
                 	.ENDM
                 
                 	.MACRO __GETD1SX
                 	MOVW R30,R28
                 	SUBI R30,LOW(-@0)
                 	SBCI R31,HIGH(-@0)
                 	LD   R0,Z+
                 	LD   R1,Z+
                 	LD   R22,Z+
                 	LD   R23,Z
                 	MOVW R30,R0
                 	.ENDM
                 
                 	.MACRO __GETB2SX
                 	MOVW R26,R28
                 	SUBI R26,LOW(-@0)
                 	SBCI R27,HIGH(-@0)
                 	LD   R26,X
                 	.ENDM
                 
                 	.MACRO __GETW2SX
                 	MOVW R26,R28
                 	SUBI R26,LOW(-@0)
                 	SBCI R27,HIGH(-@0)
                 	LD   R0,X+
                 	LD   R27,X
                 	MOV  R26,R0
                 	.ENDM
                 
                 	.MACRO __GETD2SX
                 	MOVW R26,R28
                 	SUBI R26,LOW(-@0)
                 	SBCI R27,HIGH(-@0)
                 	LD   R0,X+
                 	LD   R1,X+
                 	LD   R24,X+
                 	LD   R25,X
                 	MOVW R26,R0
                 	.ENDM
                 
                 	.MACRO __GETBRSX
                 	MOVW R30,R28
                 	SUBI R30,LOW(-@1)
                 	SBCI R31,HIGH(-@1)
                 	LD   R@0,Z
                 	.ENDM
                 
                 	.MACRO __GETWRSX
                 	MOVW R30,R28
                 	SUBI R30,LOW(-@2)
                 	SBCI R31,HIGH(-@2)
                 	LD   R@0,Z+
                 	LD   R@1,Z
                 	.ENDM
                 
                 	.MACRO __LSLW8SX
                 	MOVW R30,R28
                 	SUBI R30,LOW(-@0)
                 	SBCI R31,HIGH(-@0)
                 	LD   R31,Z
                 	CLR  R30
                 	.ENDM
                 
                 	.MACRO __PUTB1SX
                 	MOVW R26,R28
                 	SUBI R26,LOW(-@0)
                 	SBCI R27,HIGH(-@0)
                 	ST   X,R30
                 	.ENDM
                 
                 	.MACRO __PUTW1SX
                 	MOVW R26,R28
                 	SUBI R26,LOW(-@0)
                 	SBCI R27,HIGH(-@0)
                 	ST   X+,R30
                 	ST   X,R31
                 	.ENDM
                 
                 	.MACRO __PUTD1SX
                 	MOVW R26,R28
                 	SUBI R26,LOW(-@0)
                 	SBCI R27,HIGH(-@0)
                 	ST   X+,R30
                 	ST   X+,R31
                 	ST   X+,R22
                 	ST   X,R23
                 	.ENDM
                 
                 	.MACRO __CLRW1SX
                 	MOVW R30,R28
                 	SUBI R30,LOW(-@0)
                 	SBCI R31,HIGH(-@0)
                 	CLR  R0
                 	ST   Z+,R0
                 	ST   Z,R0
                 	.ENDM
                 
                 	.MACRO __CLRD1SX
                 	MOVW R30,R28
                 	SUBI R30,LOW(-@0)
                 	SBCI R31,HIGH(-@0)
                 	CLR  R0
                 	ST   Z+,R0
                 	ST   Z+,R0
                 	ST   Z+,R0
                 	ST   Z,R0
                 	.ENDM
                 
                 	.MACRO __PUTB2SX
                 	MOVW R30,R28
                 	SUBI R30,LOW(-@0)
                 	SBCI R31,HIGH(-@0)
                 	ST   Z,R26
                 	.ENDM
                 
                 	.MACRO __PUTW2SX
                 	MOVW R30,R28
                 	SUBI R30,LOW(-@0)
                 	SBCI R31,HIGH(-@0)
                 	ST   Z+,R26
                 	ST   Z,R27
                 	.ENDM
                 
                 	.MACRO __PUTD2SX
                 	MOVW R30,R28
                 	SUBI R30,LOW(-@0)
                 	SBCI R31,HIGH(-@0)
                 	ST   Z+,R26
                 	ST   Z+,R27
                 	ST   Z+,R24
                 	ST   Z,R25
                 	.ENDM
                 
                 	.MACRO __PUTBSRX
                 	MOVW R30,R28
                 	SUBI R30,LOW(-@0)
                 	SBCI R31,HIGH(-@0)
                 	ST   Z,R@1
                 	.ENDM
                 
                 	.MACRO __PUTWSRX
                 	MOVW R30,R28
                 	SUBI R30,LOW(-@2)
                 	SBCI R31,HIGH(-@2)
                 	ST   Z+,R@0
                 	ST   Z,R@1
                 	.ENDM
                 
                 	.MACRO __PUTB1SNX
                 	MOVW R26,R28
                 	SUBI R26,LOW(-@0)
                 	SBCI R27,HIGH(-@0)
                 	LD   R0,X+
                 	LD   R27,X
                 	MOV  R26,R0
                 	SUBI R26,LOW(-@1)
                 	SBCI R27,HIGH(-@1)
                 	ST   X,R30
                 	.ENDM
                 
                 	.MACRO __PUTW1SNX
                 	MOVW R26,R28
                 	SUBI R26,LOW(-@0)
                 	SBCI R27,HIGH(-@0)
                 	LD   R0,X+
                 	LD   R27,X
                 	MOV  R26,R0
                 	SUBI R26,LOW(-@1)
                 	SBCI R27,HIGH(-@1)
                 	ST   X+,R30
                 	ST   X,R31
                 	.ENDM
                 
                 	.MACRO __PUTD1SNX
                 	MOVW R26,R28
                 	SUBI R26,LOW(-@0)
                 	SBCI R27,HIGH(-@0)
                 	LD   R0,X+
                 	LD   R27,X
                 	MOV  R26,R0
                 	SUBI R26,LOW(-@1)
                 	SBCI R27,HIGH(-@1)
                 	ST   X+,R30
                 	ST   X+,R31
                 	ST   X+,R22
                 	ST   X,R23
                 	.ENDM
                 
                 	.MACRO __MULBRR
                 	MULS R@0,R@1
                 	MOVW R30,R0
                 	.ENDM
                 
                 	.MACRO __MULBRRU
                 	MUL  R@0,R@1
                 	MOVW R30,R0
                 	.ENDM
                 
                 	.MACRO __MULBRR0
                 	MULS R@0,R@1
                 	.ENDM
                 
                 	.MACRO __MULBRRU0
                 	MUL  R@0,R@1
                 	.ENDM
                 
                 	.MACRO __MULBNWRU
                 	LDI  R26,@2
                 	MUL  R26,R@0
                 	MOVW R30,R0
                 	MUL  R26,R@1
                 	ADD  R31,R0
                 	.ENDM
                 
                 	.CSEG
                 	.ORG 0
                 
                 	.INCLUDE "main.vec"
                 
                 ;INTERRUPT VECTORS
000000 940c 068b 	JMP  __RESET
000002 940c 0000 	JMP  0x00
000004 940c 0000 	JMP  0x00
000006 940c 0000 	JMP  0x00
000008 940c 0000 	JMP  0x00
00000a 940c 0c19 	JMP  _ext_int4_isr
00000c 940c 0c31 	JMP  _ext_int5_isr
00000e 940c 0c49 	JMP  _ext_int6_isr
000010 940c 0c62 	JMP  _ext_int7_isr
000012 940c 0000 	JMP  0x00
000014 940c 0000 	JMP  0x00
000016 940c 0000 	JMP  0x00
000018 940c 0000 	JMP  0x00
00001a 940c 0000 	JMP  0x00
00001c 940c 06bd 	JMP  _timer1_ovf_isr
00001e 940c 0000 	JMP  0x00
000020 940c 0000 	JMP  0x00
000022 940c 0000 	JMP  0x00
000024 940c 0b4b 	JMP  _usart0_rx_isr
000026 940c 0000 	JMP  0x00
000028 940c 0b54 	JMP  _usart0_tx_isr
00002a 940c 0000 	JMP  0x00
00002c 940c 0000 	JMP  0x00
00002e 940c 0000 	JMP  0x00
000030 940c 0000 	JMP  0x00
000032 940c 0000 	JMP  0x00
000034 940c 0000 	JMP  0x00
000036 940c 0000 	JMP  0x00
000038 940c 0000 	JMP  0x00
00003a 940c 0000 	JMP  0x00
00003c 940c 0b74 	JMP  _usart1_rx_isr
00003e 940c 0000 	JMP  0x00
000040 940c 0b80 	JMP  _usart1_tx_isr
000042 940c 0000 	JMP  0x00
000044 940c 0000 	JMP  0x00
                 
                 	.INCLUDE "main.inc"
                 
                 	.DEF _key=R5
                 _bootup:
000046 0005      	.DB  0x5,0x0
000047 001e      	.DB  0x1E,0x0
000048 001e      	.DB  0x1E,0x0
000049 0007      	.DB  0x7,0x0
00004a 07c5      	.DB  LOW(_3+0x00),HIGH(_3+0x00)
                 _modify:
00004b 0005      	.DB  0x5,0x0
00004c 001e      	.DB  0x1E,0x0
00004d 001e      	.DB  0x1E,0x0
00004e 0008      	.DB  0x8,0x0
00004f 07d1      	.DB  LOW(_4+0x00),HIGH(_4+0x00)
                 _lbldbg:
000050 0001      	.DB  0x1,0x0
000051 000a      	.DB  0xA,0x0
000052 001e      	.DB  0x1E,0x0
000053 0008      	.DB  0x8,0x0
000054 05c8      	.DB  LOW(_strbuf),HIGH(_strbuf)
                 	.DEF _nextwin=R4
                 	.DEF _curr_ch=R6
                 _5:
000055 0001      	.DB  0x1,0x0
                 	.DEF _curr_prb=R8
                 _6:
000056 0001      	.DB  0x1,0x0
                 	.DEF _curr_dispch=R10
                 _7:
000057 0001      	.DB  0x1,0x0
                 	.DEF _ch_to_search=R12
                 _8:
main.inc(33): warning: .cseg .db misalignment - padding zero byte
main.asm(997): 'main.inc' included form here
000058 0001      	.DB  0x1
                 _statelbl:
000059 0001      	.DB  0x1,0x0
00005a 0064      	.DB  0x64,0x0
00005b 0037      	.DB  0x37,0x0
00005c 0010      	.DB  0x10,0x0
00005d 05c8      	.DB  LOW(_strbuf),HIGH(_strbuf)
                 _90:
main.inc(41): warning: .cseg .db misalignment - padding zero byte
main.asm(997): 'main.inc' included form here
00005e 00ff      	.DB  0xFF
                 _91:
main.inc(43): warning: .cseg .db misalignment - padding zero byte
main.asm(997): 'main.inc' included form here
00005f 00ff      	.DB  0xFF
                 _wins:
000060 5302      	.DB  0x2,LOW(_pgmain_handler)
000061 0314      	.DB  HIGH(_pgmain_handler),0x3
000062 16a8      	.DB  LOW(_pgrconfig_handler),HIGH(_pgrconfig_handler)
000063 2a04      	.DB  0x4,LOW(_pgtconfig_handler)
000064 0717      	.DB  HIGH(_pgtconfig_handler),0x7
000065 177d      	.DB  LOW(_pgchset_handler),HIGH(_pgchset_handler)
000066 8108      	.DB  0x8,LOW(_pgprblist_handler)
000067 0919      	.DB  HIGH(_pgprblist_handler),0x9
000068 1a9a      	.DB  LOW(_pgprbtypelist_handler),HIGH(_pgprbtypelist_handler)
000069 9a0a      	.DB  0xA,LOW(_pgprbset_handler)
00006a 0b18      	.DB  HIGH(_pgprbset_handler),0xB
00006b 1bb4      	.DB  LOW(_pgprbconfig_handler),HIGH(_pgprbconfig_handler)
00006c 1a0d      	.DB  0xD,LOW(_pgboottype_handler)
main.inc(58): warning: .cseg .db misalignment - padding zero byte
main.asm(997): 'main.inc' included form here
00006d 001d      	.DB  HIGH(_pgboottype_handler)
                 _Ci:
00006e 0549
00006f 4032
000070 c0d0
000071 3fd2      	.DB  0x49,0x5,0x32,0x40,0xD0,0xC0,0xD2,0x3F
000072 6f73
000073 be0c
000074 ea68
000075 bbd4      	.DB  0x73,0x6F,0xC,0xBE,0x68,0xEA,0xD4,0xBB
000076 a52d
000077 bb19
000078 ba9a
000079 3ba7      	.DB  0x2D,0xA5,0x19,0xBB,0x9A,0xBA,0xA7,0x3B
00007a 644b
00007b 3af6
00007c 00b6
00007d bb06      	.DB  0x4B,0x64,0xF6,0x3A,0xB6,0x0,0x6,0xBB
00007e cfe7
00007f b9f1
000080 b9b7
000081 39ef      	.DB  0xE7,0xCF,0xF1,0xB9,0xB7,0xB9,0xEF,0x39
                 _Ai:
000082 a988
000083 c008
000084 ba52
000085 404b      	.DB  0x88,0xA9,0x8,0xC0,0x52,0xBA,0x4B,0x40
000086 9574
000087 bfe6
000088 9f24
000089 3f37      	.DB  0x74,0x95,0xE6,0xBF,0x24,0x9F,0x37,0x3F
00008a e176
00008b 3f00
00008c 7663
00008d bf1e      	.DB  0x76,0xE1,0x0,0x3F,0x63,0x76,0x1E,0xBF
00008e 6973
00008f bd5a
000090 7829
000091 3e8f      	.DB  0x73,0x69,0x5A,0xBD,0x29,0x78,0x8F,0x3E
000092 72a2
000093 3ddb
000094 07da
000095 be96      	.DB  0xA2,0x72,0xDB,0x3D,0xDA,0x7,0x96,0xBE
000096 ad26
000097 3d36
000098 11d0
000099 3df3      	.DB  0x26,0xAD,0x36,0x3D,0xD0,0x11,0xF3,0x3D
00009a f6ac
00009b bd56      	.DB  0xAC,0xF6,0x56,0xBD
                 _sizeAi:
main.inc(74): warning: .cseg .db misalignment - padding zero byte
main.asm(997): 'main.inc' included form here
00009c 000d      	.DB  0xD
                 _sizeCi:
main.inc(76): warning: .cseg .db misalignment - padding zero byte
main.asm(997): 'main.inc' included form here
00009d 000a      	.DB  0xA
                 _Di:
00009e f768
00009f 43db
0000a0 3582
0000a1 43ec      	.DB  0x68,0xF7,0xDB,0x43,0x82,0x35,0xEC,0x43
0000a2 bcec
0000a3 4216
0000a4 1ac5
0000a5 40ef      	.DB  0xEC,0xBC,0x16,0x42,0xC5,0x1A,0xEF,0x40
0000a6 eed9
0000a7 403a
0000a8 de8b
0000a9 3ba9      	.DB  0xD9,0xEE,0x3A,0x40,0x8B,0xDE,0xA9,0x3B
0000aa bfcb
0000ab bf76
0000ac 42f6
0000ad be41      	.DB  0xCB,0xBF,0x76,0xBF,0xF6,0x42,0x41,0xBE
0000ae cab8
0000af 3e43
0000b0 ce70
0000b1 3d48      	.DB  0xB8,0xCA,0x43,0x3E,0x70,0xCE,0x48,0x3D
                 _Bi:
0000b2 b97a
0000b3 3e3b
0000b4 c23b
0000b5 3e76      	.DB  0x7A,0xB9,0x3B,0x3E,0x3B,0xC2,0x76,0x3E
0000b6 209c
0000b7 3e56
0000b8 02b2
0000b9 3e43      	.DB  0x9C,0x20,0x56,0x3E,0xB2,0x2,0x43,0x3E
0000ba 1273
0000bb 3e12
0000bc bb0a
0000bd 3d9f      	.DB  0x73,0x12,0x12,0x3E,0xA,0xBB,0x9F,0x3D
0000be 6681
0000bf 3c4c
0000c0 2a89
0000c1 bd04      	.DB  0x81,0x66,0x4C,0x3C,0x89,0x2A,0x4,0xBD
0000c2 3271
0000c3 bd9a
0000c4 4dca
0000c5 bd67      	.DB  0x71,0x32,0x9A,0xBD,0xCA,0x4D,0x67,0xBD
0000c6 0f6b
0000c7 3d9c
0000c8 bbb8
0000c9 3dfd      	.DB  0x6B,0xF,0x9C,0x3D,0xB8,0xBB,0xFD,0x3D
0000ca 3757
0000cb bcef
0000cc b932
0000cd bdba      	.DB  0x57,0x37,0xEF,0xBC,0x32,0xB9,0xBA,0xBD
0000ce b68a
0000cf 3aac
0000d0 337c
0000d1 3cd5      	.DB  0x8A,0xB6,0xAC,0x3A,0x7C,0x33,0xD5,0x3C
                 _sizeDi:
main.inc(93): warning: .cseg .db misalignment - padding zero byte
main.asm(997): 'main.inc' included form here
0000d2 000a      	.DB  0xA
                 _sizeBi:
main.inc(95): warning: .cseg .db misalignment - padding zero byte
main.asm(997): 'main.inc' included form here
0000d3 0010      	.DB  0x10
                 _TLow:
0000d4 0000
0000d5 0000
0000d6 b656
0000d7 3d1e      	.DB  0x0,0x0,0x0,0x0,0x56,0xB6,0x1E,0x3D
0000d8 5d6a
0000d9 3839
0000da 5adb
0000db 33fe      	.DB  0x6A,0x5D,0x39,0x38,0xDB,0x5A,0xFE,0x33
0000dc 14fa
0000dd 32ac
0000de c4fe
0000df 3077      	.DB  0xFA,0x14,0xAC,0x32,0xFE,0xC4,0x77,0x30
0000e0 3ddf
0000e1 2dc7
0000e2 1003
0000e3 2acb      	.DB  0xDF,0x3D,0xC7,0x2D,0x3,0x10,0xCB,0x2A
0000e4 b065
0000e5 278a
0000e6 1ca6
0000e7 2402      	.DB  0x65,0xB0,0x8A,0x27,0xA6,0x1C,0x2,0x24
0000e8 40cd
0000e9 2028
0000ea 64ed
0000eb 1c13      	.DB  0xCD,0x40,0x28,0x20,0xED,0x64,0x13,0x1C
0000ec 0d89
0000ed 17a7
0000ee f7c0
0000ef 12dc      	.DB  0x89,0xD,0xA7,0x17,0xC0,0xF7,0xDC,0x12
0000f0 799c
0000f1 0d81      	.DB  0x9C,0x79,0x81,0xD
                 _THigh:
0000f2 0000
0000f3 0000
0000f4 b656
0000f5 3d1e      	.DB  0x0,0x0,0x0,0x0,0x56,0xB6,0x1E,0x3D
0000f6 a342
0000f7 380b
0000f8 62ff
0000f9 345d      	.DB  0x42,0xA3,0xB,0x38,0xFF,0x62,0x5D,0x34
0000fa 5fac
0000fb b116
0000fc 758d
0000fd 2d41      	.DB  0xAC,0x5F,0x16,0xB1,0x8D,0x75,0x41,0x2D
0000fe c827
0000ff a90a
000100 bc49
000101 2451      	.DB  0x27,0xC8,0xA,0xA9,0x49,0xBC,0x51,0x24
000102 ed0f
000103 9f01      	.DB  0xF,0xED,0x1,0x9F
                 _SLow:
000104 0000
000105 0000
000106 0cc4
000107 3bb1      	.DB  0x0,0x0,0x0,0x0,0xC4,0xC,0xB1,0x3B
000108 485e
000109 3753
00010a b272
00010b b2c7      	.DB  0x5E,0x48,0x53,0x37,0x72,0xB2,0xC7,0xB2
00010c a139
00010d 2e0d
00010e 4756
00010f a915      	.DB  0x39,0xA1,0xD,0x2E,0x56,0x47,0x15,0xA9
000110 e1e7
000111 23eb
000112 3f98
000113 9e6c      	.DB  0xE7,0xE1,0xEB,0x23,0x98,0x3F,0x6C,0x9E
000114 04dc
000115 1852      	.DB  0xDC,0x4,0x52,0x18
                 _SMed:
000116 1cd1
000117 3faa
000118 395a
000119 3b5b      	.DB  0xD1,0x1C,0xAA,0x3F,0x5A,0x39,0x5B,0x3B
00011a b756
00011b 36db
00011c 93a4
00011d b0e2      	.DB  0x56,0xB7,0xDB,0x36,0xA4,0x93,0xE2,0xB0
00011e 2b20
00011f 286a      	.DB  0x20,0x2B,0x6A,0x28
                 _SHigh:
000120 a0d4
000121 4312
000122 5101
000123 be84      	.DB  0xD4,0xA0,0x12,0x43,0x1,0x51,0x84,0xBE
000124 a529
000125 392b
000126 ec28
000127 b30d      	.DB  0x29,0xA5,0x2B,0x39,0x28,0xEC,0xD,0xB3
000128 ea84
000129 a829      	.DB  0x84,0xEA,0x29,0xA8
                 _RLow:
00012a 0000
00012b 0000
00012c 5487
00012d 3bad      	.DB  0x0,0x0,0x0,0x0,0x87,0x54,0xAD,0x3B
00012e 7b98
00012f 3769
000130 2cec
000131 b2cd      	.DB  0x98,0x7B,0x69,0x37,0xEC,0x2C,0xCD,0xB2
000132 f92b
000133 2e1c
000134 390f
000135 a950      	.DB  0x2B,0xF9,0x1C,0x2E,0xF,0x39,0x50,0xA9
000136 f15d
000137 2466
000138 31bc
000139 9f30      	.DB  0x5D,0xF1,0x66,0x24,0xBC,0x31,0x30,0x9F
00013a 88b6
00013b 1998
00013c a968
00013d 935e      	.DB  0xB6,0x88,0x98,0x19,0x68,0xA9,0x5E,0x93
                 _RMed:
00013e e6ad
00013f 403c
000140 30dc
000141 bb25      	.DB  0xAD,0xE6,0x3C,0x40,0xDC,0x30,0x25,0xBB
000142 da37
000143 3785
000144 44db
000145 b203      	.DB  0x37,0xDA,0x85,0x37,0xDB,0x44,0x3,0xB2
000146 7883
000147 2c10
000148 1c3f
000149 a5a9      	.DB  0x83,0x78,0x10,0x2C,0x3F,0x1C,0xA9,0xA5
                 _RHigh:
00014a 3b6c
00014b 4318
00014c a2c3
00014d be89      	.DB  0x6C,0x3B,0x18,0x43,0xC3,0xA2,0x89,0xBE
00014e 99b3
00014f 3933
000150 8fa3
000151 b314      	.DB  0xB3,0x99,0x33,0x39,0xA3,0x8F,0x14,0xB3
000152 5e62
000153 a828      	.DB  0x62,0x5E,0x28,0xA8
                 _NLow:
000154 0000
000155 0000
000156 4b9f
000157 3cd6      	.DB  0x0,0x0,0x0,0x0,0x9F,0x4B,0xD6,0x3C
000158 d609
000159 3737
00015a 85b2
00015b b3c9      	.DB  0x9,0xD6,0x37,0x37,0xB2,0x85,0xC9,0xB3
00015c 1f50
00015d ae4c
00015e 17eb
00015f ac39      	.DB  0x50,0x1F,0x4C,0xAE,0xEB,0x17,0x39,0xAC
000160 0b46
000161 a8cc
000162 7332
000163 a4af      	.DB  0x46,0xB,0xCC,0xA8,0x32,0x73,0xAF,0xA4
000164 94b9
000165 9fdc      	.DB  0xB9,0x94,0xDC,0x9F
                 _NHigh:
000166 0000
000167 0000
000168 69e2
000169 3cd4      	.DB  0x0,0x0,0x0,0x0,0xE2,0x69,0xD4,0x3C
00016a c946
00016b 3783
00016c 3ac9
00016d 333c      	.DB  0x46,0xC9,0x83,0x37,0xC9,0x3A,0x3C,0x33
00016e dff0
00016f af8a
000170 058d
000171 2b35      	.DB  0xF0,0xDF,0x8A,0xAF,0x8D,0x5,0x35,0x2B
000172 07a8
000173 a691
000174 32b9
000175 2193      	.DB  0xA8,0x7,0x91,0xA6,0xB9,0x32,0x93,0x21
000176 f2a8
000177 9c37
000178 0cec
000179 1681      	.DB  0xA8,0xF2,0x37,0x9C,0xEC,0xC,0x81,0x16
00017a 93c5
00017b 901b      	.DB  0xC5,0x93,0x1B,0x90
                 _JLow:
00017c 0000
00017d 0000
00017e 5c81
00017f 3d4e      	.DB  0x0,0x0,0x0,0x0,0x81,0x5C,0x4E,0x3D
000180 a65d
000181 37ff
000182 ffaa
000183 b3b7      	.DB  0x5D,0xA6,0xFF,0x37,0xAA,0xFF,0xB7,0xB3
000184 720f
000185 2f11
000186 ffce
000187 aa3f      	.DB  0xF,0x72,0x11,0x2F,0xCE,0xFF,0x3F,0xAA
000188 83da
000189 2571
00018a 06fa
00018b a014      	.DB  0xDA,0x83,0x71,0x25,0xFA,0x6,0x14,0xA0
00018c 2e47
00018d 1997      	.DB  0x47,0x2E,0x97,0x19
                 _JHigh:
00018e 3a67
00018f 4394
000190 b1c7
000191 bfbf      	.DB  0x67,0x3A,0x94,0x43,0xC7,0xB1,0xBF,0xBF
000192 51e9
000193 3b50
000194 b9e9
000195 b655      	.DB  0xE9,0x51,0x50,0x3B,0xE9,0xB9,0x55,0xB6
000196 10b7
000197 30d8
000198 c6ed
000199 aaac      	.DB  0xB7,0x10,0xD8,0x30,0xED,0xC6,0xAC,0xAA
                 _BLow:
00019a 0000
00019b 0000
00019c 4b3f
00019d 3d70      	.DB  0x0,0x0,0x0,0x0,0x3F,0x4B,0x70,0x3D
00019e e10a
00019f 383c
0001a0 5242
0001a1 32f8      	.DB  0xA,0xE1,0x3C,0x38,0x42,0x52,0xF8,0x32
0001a2 bb72
0001a3 afb5
0001a4 0705
0001a5 2b37      	.DB  0x72,0xBB,0xB5,0xAF,0x5,0x7,0x37,0x2B
0001a6 5501
0001a7 a55d
0001a8 01f0
0001a9 a1b9      	.DB  0x1,0x55,0x5D,0xA5,0xF0,0x1,0xB9,0xA1
0001aa 5e31
0001ab 1d22
0001ac a4e8
0001ad 97de      	.DB  0x31,0x5E,0x22,0x1D,0xE8,0xA4,0xDE,0x97
0001ae ede5
0001af 11e3      	.DB  0xE5,0xED,0xE3,0x11
                 _BHigh:
0001b0 344c
0001b1 c079
0001b2 0f4c
0001b3 3cea      	.DB  0x4C,0x34,0x79,0xC0,0x4C,0xF,0xEA,0x3C
0001b4 0458
0001b5 b8b2
0001b6 7e3f
0001b7 3429      	.DB  0x58,0x4,0xB2,0xB8,0x3F,0x7E,0x29,0x34
0001b8 1b48
0001b9 af39
0001ba 2b9a
0001bb 29fa      	.DB  0x48,0x1B,0x39,0xAF,0x9A,0x2B,0xFA,0x29
0001bc 4a8b
0001bd a44d
0001be f5af
0001bf 1e3a      	.DB  0x8B,0x4A,0x4D,0xA4,0xAF,0xF5,0x3A,0x1E
0001c0 2293
0001c1 9791      	.DB  0x93,0x22,0x91,0x97
                 _EHigh:
0001c2 0000
0001c3 0000
0001c4 4b3f
0001c5 3d70      	.DB  0x0,0x0,0x0,0x0,0x3F,0x4B,0x70,0x3D
0001c6 e10a
0001c7 383c
0001c8 5242
0001c9 32f8      	.DB  0xA,0xE1,0x3C,0x38,0x42,0x52,0xF8,0x32
0001ca bb72
0001cb afb5
0001cc 0705
0001cd 2b37      	.DB  0x72,0xBB,0xB5,0xAF,0x5,0x7,0x37,0x2B
0001ce 5501
0001cf a55d
0001d0 01f0
0001d1 a1b9      	.DB  0x1,0x55,0x5D,0xA5,0xF0,0x1,0xB9,0xA1
0001d2 5e31
0001d3 1d22
0001d4 a4e8
0001d5 97de      	.DB  0x31,0x5E,0x22,0x1D,0xE8,0xA4,0xDE,0x97
0001d6 ede5
0001d7 11e3      	.DB  0xE5,0xED,0xE3,0x11
                 _ELow:
0001d8 0000
0001d9 0000
0001da 4b3f
0001db 3d70      	.DB  0x0,0x0,0x0,0x0,0x3F,0x4B,0x70,0x3D
0001dc 77aa
0001dd 383e
0001de 5fda
0001df b551      	.DB  0xAA,0x77,0x3E,0x38,0xDA,0x5F,0x51,0xB5
0001e0 9f27
0001e1 b2dd
0001e2 6c09
0001e3 b023      	.DB  0x27,0x9F,0xDD,0xB2,0x9,0x6C,0x23,0xB0
0001e4 fbe1
0001e5 ad23
0001e6 a802
0001e7 a9e7      	.DB  0xE1,0xFB,0x23,0xAD,0x2,0xA8,0xE7,0xA9
0001e8 a6af
0001e9 a667
0001ea 4176
0001eb a2a2      	.DB  0xAF,0xA6,0x67,0xA6,0x76,0x41,0xA2,0xA2
0001ec 087e
0001ed 9e9b
0001ee d990
0001ef 9a3f      	.DB  0x7E,0x8,0x9B,0x9E,0x90,0xD9,0x3F,0x9A
0001f0 38c6
0001f1 958a
0001f2 bc73
0001f3 902f      	.DB  0xC6,0x38,0x8A,0x95,0x73,0xBC,0x2F,0x90
                 _KLow:
0001f4 0000
0001f5 0000
0001f6 9675
0001f7 3d21      	.DB  0x0,0x0,0x0,0x0,0x75,0x96,0x21,0x3D
0001f8 28a9
0001f9 37c6
0001fa 68f0
0001fb b4b0      	.DB  0xA9,0x28,0xC6,0x37,0xF0,0x68,0xB0,0xB4
0001fc 78c0
0001fd b1ab
0001fe 7439
0001ff ae94      	.DB  0xC0,0x78,0xAB,0xB1,0x39,0x74,0x94,0xAE
000200 9880
000201 ab21
000202 04d9
000203 a760      	.DB  0x80,0x98,0x21,0xAB,0xD9,0x4,0x60,0xA7
000204 cc54
000205 a340
000206 d94c
000207 9ebb      	.DB  0x54,0xCC,0x40,0xA3,0x4C,0xD9,0xBB,0x9E
000208 dd0b
000209 999d      	.DB  0xB,0xDD,0x9D,0x99
                 _KHigh:
00020a 2ebe
00020b bc90
00020c 6bd7
00020d 3d1f      	.DB  0xBE,0x2E,0x90,0xBC,0xD7,0x6B,0x1F,0x3D
00020e aea8
00020f 379b
000210 9564
000211 b3d5      	.DB  0xA8,0xAE,0x9B,0x37,0x64,0x95,0xD5,0xB3
000212 0c26
000213 2faf
000214 d4be
000215 ab1d      	.DB  0x26,0xC,0xAF,0x2F,0xBE,0xD4,0x1D,0xAB
000216 a017
000217 2621
000218 0458
000219 a0bd      	.DB  0x17,0xA0,0x21,0x26,0x58,0x4,0xBD,0xA0
00021a e5a6
00021b 1aea
00021c c23b
00021d 946f      	.DB  0xA6,0xE5,0xEA,0x1A,0x3B,0xC2,0x6F,0x94
                 _TLowLen:
00021e 000f      	.DB  0xF,0x0
                 _THighLen:
00021f 0009      	.DB  0x9,0x0
                 _SLowLen:
000220 0009      	.DB  0x9,0x0
                 _SMedLen:
000221 0005      	.DB  0x5,0x0
                 _SHighLen:
000222 0005      	.DB  0x5,0x0
                 _RLowLen:
000223 000a      	.DB  0xA,0x0
                 _RMedLen:
000224 0006      	.DB  0x6,0x0
                 _RHighLen:
000225 0005      	.DB  0x5,0x0
                 _NLowLen:
000226 0009      	.DB  0x9,0x0
                 _NHighLen:
000227 000b      	.DB  0xB,0x0
                 _JLowLen:
000228 0009      	.DB  0x9,0x0
                 _JHighLen:
000229 0006      	.DB  0x6,0x0
                 _BLowLen:
00022a 000b      	.DB  0xB,0x0
                 _BHighLen:
00022b 0009      	.DB  0x9,0x0
                 _ELowLen:
00022c 000e      	.DB  0xE,0x0
                 _EHighLen:
00022d 000b      	.DB  0xB,0x0
                 _KLowLen:
00022e 000b      	.DB  0xB,0x0
                 _KHighLen:
00022f 000a      	.DB  0xA,0x0
                 _428:
000230 aaaa
main.inc(240): warning: .cseg .db misalignment - padding zero byte
main.asm(997): 'main.inc' included form here
000231 00aa      	.DB  0xAA,0xAA,0xAA
                 _429:
000232 5555
main.inc(242): warning: .cseg .db misalignment - padding zero byte
main.asm(997): 'main.inc' included form here
000233 0055      	.DB  0x55,0x55,0x55
                 _437:
000234 aaaa
000235 31aa
000236 4532
000237 5544      	.DB  0xAA,0xAA,0xAA,0x31,0x32,0x45,0x44,0x55
000238 5555      	.DB  0x55,0x55
                 _454:
000239 0000
00023a c47a      	.DB  0x0,0x0,0x7A,0xC4
                 _pgmain_chs:
00023b 0001      	.DB  0x1,0x0
00023c 0003      	.DB  0x3,0x0
00023d 0003      	.DB  0x3,0x0
00023e 0005      	.DB  0x5,0x0
00023f 05c8      	.DB  LOW(_strbuf),HIGH(_strbuf)
000240 0001      	.DB  0x1,0x0
000241 0003      	.DB  0x3,0x0
000242 0010      	.DB  0x10,0x0
000243 0005      	.DB  0x5,0x0
000244 05c8      	.DB  LOW(_strbuf),HIGH(_strbuf)
000245 0001      	.DB  0x1,0x0
000246 0003      	.DB  0x3,0x0
000247 001d      	.DB  0x1D,0x0
000248 0005      	.DB  0x5,0x0
000249 05c8      	.DB  LOW(_strbuf),HIGH(_strbuf)
00024a 0001      	.DB  0x1,0x0
00024b 0003      	.DB  0x3,0x0
00024c 002a      	.DB  0x2A,0x0
00024d 0005      	.DB  0x5,0x0
00024e 05c8      	.DB  LOW(_strbuf),HIGH(_strbuf)
                 _pgmain_values:
00024f 0001      	.DB  0x1,0x0
000250 0028      	.DB  0x28,0x0
000251 0003      	.DB  0x3,0x0
000252 000a      	.DB  0xA,0x0
000253 05c8      	.DB  LOW(_strbuf),HIGH(_strbuf)
000254 0001      	.DB  0x1,0x0
000255 0028      	.DB  0x28,0x0
000256 0010      	.DB  0x10,0x0
000257 000a      	.DB  0xA,0x0
000258 05c8      	.DB  LOW(_strbuf),HIGH(_strbuf)
000259 0001      	.DB  0x1,0x0
00025a 0028      	.DB  0x28,0x0
00025b 001d      	.DB  0x1D,0x0
00025c 000a      	.DB  0xA,0x0
00025d 05c8      	.DB  LOW(_strbuf),HIGH(_strbuf)
00025e 0001      	.DB  0x1,0x0
00025f 0028      	.DB  0x28,0x0
000260 002a      	.DB  0x2A,0x0
000261 000a      	.DB  0xA,0x0
000262 05c8      	.DB  LOW(_strbuf),HIGH(_strbuf)
                 _pgmain_temps:
000263 0001      	.DB  0x1,0x0
000264 008c      	.DB  0x8C,0x0
000265 0003      	.DB  0x3,0x0
000266 000a      	.DB  0xA,0x0
000267 05c8      	.DB  LOW(_strbuf),HIGH(_strbuf)
000268 0001      	.DB  0x1,0x0
000269 008c      	.DB  0x8C,0x0
00026a 0010      	.DB  0x10,0x0
00026b 000a      	.DB  0xA,0x0
00026c 05c8      	.DB  LOW(_strbuf),HIGH(_strbuf)
00026d 0001      	.DB  0x1,0x0
00026e 008c      	.DB  0x8C,0x0
00026f 001d      	.DB  0x1D,0x0
000270 000a      	.DB  0xA,0x0
000271 05c8      	.DB  LOW(_strbuf),HIGH(_strbuf)
000272 0001      	.DB  0x1,0x0
000273 008c      	.DB  0x8C,0x0
000274 002a      	.DB  0x2A,0x0
000275 000a      	.DB  0xA,0x0
000276 05c8      	.DB  LOW(_strbuf),HIGH(_strbuf)
                 _pgr_banner:
000277 0005      	.DB  0x5,0x0
000278 0003      	.DB  0x3,0x0
000279 0003      	.DB  0x3,0x0
00027a 0007      	.DB  0x7,0x0
00027b 07e1      	.DB  LOW(_548+0x00),HIGH(_548+0x00)
                 _pgr_calibrate:
00027c 0005      	.DB  0x5,0x0
00027d 001e      	.DB  0x1E,0x0
00027e 001e      	.DB  0x1E,0x0
00027f 0008      	.DB  0x8,0x0
000280 07f0      	.DB  LOW(_549+0x00),HIGH(_549+0x00)
                 _pgr_klbl:
000281 0001      	.DB  0x1,0x0
000282 0058      	.DB  0x58,0x0
000283 001c      	.DB  0x1C,0x0
000284 0003      	.DB  0x3,0x0
000285 05c8      	.DB  LOW(_strbuf),HIGH(_strbuf)
                 _pgr_options:
000286 0005      	.DB  0x5,0x0
000287 000a      	.DB  0xA,0x0
000288 0017      	.DB  0x17,0x0
000289 0006      	.DB  0x6,0x0
00028a 0800      	.DB  LOW(_550+0x00),HIGH(_550+0x00)
00028b 0005      	.DB  0x5,0x0
00028c 0082      	.DB  0x82,0x0
00028d 0017      	.DB  0x17,0x0
00028e 0007      	.DB  0x7,0x0
00028f 080b      	.DB  LOW(_551+0x00),HIGH(_551+0x00)
000290 0005      	.DB  0x5,0x0
000291 000a      	.DB  0xA,0x0
000292 002d      	.DB  0x2D,0x0
000293 0008      	.DB  0x8,0x0
000294 0818      	.DB  LOW(_552+0x00),HIGH(_552+0x00)
000295 0005      	.DB  0x5,0x0
000296 0082      	.DB  0x82,0x0
000297 002d      	.DB  0x2D,0x0
000298 0007      	.DB  0x7,0x0
000299 0827      	.DB  LOW(_553+0x00),HIGH(_553+0x00)
                 _0x22A:
00029a 0000      	.DB  0x0,0x0
00029b 0000      	.DB  0x0,0x0
                 _556:
main.inc(354): warning: .cseg .db misalignment - padding zero byte
main.asm(997): 'main.inc' included form here
00029c 0001      	.DB  0x1
                 _557:
main.inc(356): warning: .cseg .db misalignment - padding zero byte
main.asm(997): 'main.inc' included form here
00029d 0001      	.DB  0x1
                 _pgt_banner:
00029e 0005      	.DB  0x5,0x0
00029f 0003      	.DB  0x3,0x0
0002a0 0003      	.DB  0x3,0x0
0002a1 0007      	.DB  0x7,0x0
0002a2 0836      	.DB  LOW(_576+0x00),HIGH(_576+0x00)
                 _pgt_options:
0002a3 0005      	.DB  0x5,0x0
0002a4 0028      	.DB  0x28,0x0
0002a5 0019      	.DB  0x19,0x0
0002a6 0008      	.DB  0x8,0x0
0002a7 0845      	.DB  LOW(_577+0x00),HIGH(_577+0x00)
0002a8 0005      	.DB  0x5,0x0
0002a9 0028      	.DB  0x28,0x0
0002aa 002d      	.DB  0x2D,0x0
0002ab 0008      	.DB  0x8,0x0
0002ac 0856      	.DB  LOW(_578+0x00),HIGH(_578+0x00)
                 _579:
main.inc(375): warning: .cseg .db misalignment - padding zero byte
main.asm(997): 'main.inc' included form here
0002ad 0001      	.DB  0x1
                 _580:
main.inc(377): warning: .cseg .db misalignment - padding zero byte
main.asm(997): 'main.inc' included form here
0002ae 0001      	.DB  0x1
                 _pgch_banner:
0002af 0005      	.DB  0x5,0x0
0002b0 0003      	.DB  0x3,0x0
0002b1 0003      	.DB  0x3,0x0
0002b2 0006      	.DB  0x6,0x0
0002b3 0867      	.DB  LOW(_597+0x00),HIGH(_597+0x00)
                 _pgch_chvalue:
0002b4 0001      	.DB  0x1,0x0
0002b5 0082      	.DB  0x82,0x0
0002b6 0003      	.DB  0x3,0x0
0002b7 0002      	.DB  0x2,0x0
0002b8 05c8      	.DB  LOW(_strbuf),HIGH(_strbuf)
                 _pgch_items:
0002b9 0001      	.DB  0x1,0x0
0002ba 000a      	.DB  0xA,0x0
0002bb 001e      	.DB  0x1E,0x0
0002bc 000a      	.DB  0xA,0x0
0002bd 05c8      	.DB  LOW(_strbuf),HIGH(_strbuf)
0002be 0001      	.DB  0x1,0x0
0002bf 0082      	.DB  0x82,0x0
0002c0 001e      	.DB  0x1E,0x0
0002c1 000a      	.DB  0xA,0x0
0002c2 05c8      	.DB  LOW(_strbuf),HIGH(_strbuf)
0002c3 0001      	.DB  0x1,0x0
0002c4 000a      	.DB  0xA,0x0
0002c5 0028      	.DB  0x28,0x0
0002c6 000a      	.DB  0xA,0x0
0002c7 05c8      	.DB  LOW(_strbuf),HIGH(_strbuf)
0002c8 0001      	.DB  0x1,0x0
0002c9 0082      	.DB  0x82,0x0
0002ca 0028      	.DB  0x28,0x0
0002cb 000a      	.DB  0xA,0x0
0002cc 05c8      	.DB  LOW(_strbuf),HIGH(_strbuf)
0002cd 0001      	.DB  0x1,0x0
0002ce 000a      	.DB  0xA,0x0
0002cf 0032      	.DB  0x32,0x0
0002d0 000a      	.DB  0xA,0x0
0002d1 05c8      	.DB  LOW(_strbuf),HIGH(_strbuf)
0002d2 0001      	.DB  0x1,0x0
0002d3 0082      	.DB  0x82,0x0
0002d4 0032      	.DB  0x32,0x0
0002d5 000a      	.DB  0xA,0x0
0002d6 05c8      	.DB  LOW(_strbuf),HIGH(_strbuf)
                 _598:
0002d7 0001      	.DB  0x1,0x0
                 _599:
0002d8 0001      	.DB  0x1,0x0
                 _pgprbset_banner:
0002d9 0005      	.DB  0x5,0x0
0002da 0003      	.DB  0x3,0x0
0002db 0003      	.DB  0x3,0x0
0002dc 0008      	.DB  0x8,0x0
0002dd 0878      	.DB  LOW(_641+0x00),HIGH(_641+0x00)
                 _pgprbset_chvalue:
0002de 0001      	.DB  0x1,0x0
0002df 00b4      	.DB  0xB4,0x0
0002e0 0003      	.DB  0x3,0x0
0002e1 0002      	.DB  0x2,0x0
0002e2 05c8      	.DB  LOW(_strbuf),HIGH(_strbuf)
                 _pgprbset_items:
0002e3 0001      	.DB  0x1,0x0
0002e4 000a      	.DB  0xA,0x0
0002e5 001e      	.DB  0x1E,0x0
0002e6 000a      	.DB  0xA,0x0
0002e7 05c8      	.DB  LOW(_strbuf),HIGH(_strbuf)
0002e8 0001      	.DB  0x1,0x0
0002e9 0082      	.DB  0x82,0x0
0002ea 001e      	.DB  0x1E,0x0
0002eb 000a      	.DB  0xA,0x0
0002ec 05c8      	.DB  LOW(_strbuf),HIGH(_strbuf)
0002ed 0001      	.DB  0x1,0x0
0002ee 000a      	.DB  0xA,0x0
0002ef 0028      	.DB  0x28,0x0
0002f0 000a      	.DB  0xA,0x0
0002f1 05c8      	.DB  LOW(_strbuf),HIGH(_strbuf)
0002f2 0001      	.DB  0x1,0x0
0002f3 0082      	.DB  0x82,0x0
0002f4 0028      	.DB  0x28,0x0
0002f5 000a      	.DB  0xA,0x0
0002f6 05c8      	.DB  LOW(_strbuf),HIGH(_strbuf)
0002f7 0001      	.DB  0x1,0x0
0002f8 000a      	.DB  0xA,0x0
0002f9 0032      	.DB  0x32,0x0
0002fa 000a      	.DB  0xA,0x0
0002fb 05c8      	.DB  LOW(_strbuf),HIGH(_strbuf)
0002fc 0001      	.DB  0x1,0x0
0002fd 0082      	.DB  0x82,0x0
0002fe 0032      	.DB  0x32,0x0
0002ff 000a      	.DB  0xA,0x0
000300 05c8      	.DB  LOW(_strbuf),HIGH(_strbuf)
                 _642:
000301 0001      	.DB  0x1,0x0
                 _643:
000302 0001      	.DB  0x1,0x0
                 _0x284:
main.inc(473): warning: .cseg .db misalignment - padding zero byte
main.asm(997): 'main.inc' included form here
000303 0001      	.DB  0x1
                 _prblist_banner:
000304 0005      	.DB  0x5,0x0
000305 0003      	.DB  0x3,0x0
000306 0003      	.DB  0x3,0x0
000307 0008      	.DB  0x8,0x0
000308 05c8      	.DB  LOW(_strbuf),HIGH(_strbuf)
                 _prblist_chvalue:
000309 0001      	.DB  0x1,0x0
00030a 00b4      	.DB  0xB4,0x0
00030b 0003      	.DB  0x3,0x0
00030c 0002      	.DB  0x2,0x0
00030d 05c8      	.DB  LOW(_strbuf),HIGH(_strbuf)
                 _prblist_items:
00030e 0001      	.DB  0x1,0x0
00030f 000a      	.DB  0xA,0x0
000310 001e      	.DB  0x1E,0x0
000311 000a      	.DB  0xA,0x0
000312 05c8      	.DB  LOW(_strbuf),HIGH(_strbuf)
000313 0001      	.DB  0x1,0x0
000314 0082      	.DB  0x82,0x0
000315 001e      	.DB  0x1E,0x0
000316 000a      	.DB  0xA,0x0
000317 05c8      	.DB  LOW(_strbuf),HIGH(_strbuf)
000318 0001      	.DB  0x1,0x0
000319 000a      	.DB  0xA,0x0
00031a 0028      	.DB  0x28,0x0
00031b 000a      	.DB  0xA,0x0
00031c 05c8      	.DB  LOW(_strbuf),HIGH(_strbuf)
00031d 0001      	.DB  0x1,0x0
00031e 0082      	.DB  0x82,0x0
00031f 0028      	.DB  0x28,0x0
000320 000a      	.DB  0xA,0x0
000321 05c8      	.DB  LOW(_strbuf),HIGH(_strbuf)
000322 0001      	.DB  0x1,0x0
000323 000a      	.DB  0xA,0x0
000324 0032      	.DB  0x32,0x0
000325 000a      	.DB  0xA,0x0
000326 05c8      	.DB  LOW(_strbuf),HIGH(_strbuf)
000327 0001      	.DB  0x1,0x0
000328 0082      	.DB  0x82,0x0
000329 0032      	.DB  0x32,0x0
00032a 000a      	.DB  0xA,0x0
00032b 05c8      	.DB  LOW(_strbuf),HIGH(_strbuf)
                 _679:
00032c 0001      	.DB  0x1,0x0
                 _680:
00032d 0001      	.DB  0x1,0x0
                 _0x2A9:
main.inc(522): warning: .cseg .db misalignment - padding zero byte
main.asm(997): 'main.inc' included form here
00032e 0001      	.DB  0x1
                 _tplist_banner:
00032f 0005      	.DB  0x5,0x0
000330 0003      	.DB  0x3,0x0
000331 0003      	.DB  0x3,0x0
000332 0008      	.DB  0x8,0x0
000333 05c8      	.DB  LOW(_strbuf),HIGH(_strbuf)
                 _tplist_options:
000334 0001      	.DB  0x1,0x0
000335 000a      	.DB  0xA,0x0
000336 0014      	.DB  0x14,0x0
000337 0008      	.DB  0x8,0x0
000338 088b      	.DB  LOW(_721+0x00),HIGH(_721+0x00)
000339 0001      	.DB  0x1,0x0
00033a 0050      	.DB  0x50,0x0
00033b 0014      	.DB  0x14,0x0
00033c 0008      	.DB  0x8,0x0
00033d 0893      	.DB  LOW(_722+0x00),HIGH(_722+0x00)
00033e 0001      	.DB  0x1,0x0
00033f 000a      	.DB  0xA,0x0
000340 001e      	.DB  0x1E,0x0
000341 0008      	.DB  0x8,0x0
000342 089a      	.DB  LOW(_723+0x00),HIGH(_723+0x00)
000343 0001      	.DB  0x1,0x0
000344 0050      	.DB  0x50,0x0
000345 001e      	.DB  0x1E,0x0
000346 0008      	.DB  0x8,0x0
000347 08a3      	.DB  LOW(_724+0x00),HIGH(_724+0x00)
000348 0001      	.DB  0x1,0x0
000349 0096      	.DB  0x96,0x0
00034a 001e      	.DB  0x1E,0x0
00034b 0008      	.DB  0x8,0x0
00034c 08ac      	.DB  LOW(_725+0x00),HIGH(_725+0x00)
00034d 0001      	.DB  0x1,0x0
00034e 000a      	.DB  0xA,0x0
00034f 0028      	.DB  0x28,0x0
000350 0008      	.DB  0x8,0x0
000351 08b5      	.DB  LOW(_726+0x00),HIGH(_726+0x00)
000352 0001      	.DB  0x1,0x0
000353 0050      	.DB  0x50,0x0
000354 0028      	.DB  0x28,0x0
000355 0008      	.DB  0x8,0x0
000356 08be      	.DB  LOW(_727+0x00),HIGH(_727+0x00)
000357 0001      	.DB  0x1,0x0
000358 0096      	.DB  0x96,0x0
000359 0028      	.DB  0x28,0x0
00035a 0008      	.DB  0x8,0x0
00035b 08c7      	.DB  LOW(_728+0x00),HIGH(_728+0x00)
00035c 0001      	.DB  0x1,0x0
00035d 000a      	.DB  0xA,0x0
00035e 0032      	.DB  0x32,0x0
00035f 0008      	.DB  0x8,0x0
000360 08d0      	.DB  LOW(_729+0x00),HIGH(_729+0x00)
                 _730:
000361 0001      	.DB  0x1,0x0
                 _731:
000362 0001      	.DB  0x1,0x0
                 _pgprbcfg_banner:
000363 0004      	.DB  0x4,0x0
000364 0003      	.DB  0x3,0x0
000365 0003      	.DB  0x3,0x0
000366 0008      	.DB  0x8,0x0
000367 05c8      	.DB  LOW(_strbuf),HIGH(_strbuf)
                 _snlbl:
000368 0004      	.DB  0x4,0x0
000369 000a      	.DB  0xA,0x0
00036a 0011      	.DB  0x11,0x0
00036b 0004      	.DB  0x4,0x0
00036c 08d9      	.DB  LOW(_779+0x00),HIGH(_779+0x00)
                 _snval:
00036d 0001      	.DB  0x1,0x0
00036e 004b      	.DB  0x4B,0x0
00036f 0016      	.DB  0x16,0x0
000370 000a      	.DB  0xA,0x0
000371 05c8      	.DB  LOW(_strbuf),HIGH(_strbuf)
                 _typelbl:
000372 0004      	.DB  0x4,0x0
000373 000a      	.DB  0xA,0x0
000374 001f      	.DB  0x1F,0x0
000375 0003      	.DB  0x3,0x0
000376 08e2      	.DB  LOW(_780+0x00),HIGH(_780+0x00)
                 _typeval:
000377 0001      	.DB  0x1,0x0
000378 003b      	.DB  0x3B,0x0
000379 0024      	.DB  0x24,0x0
00037a 000a      	.DB  0xA,0x0
00037b 05c8      	.DB  LOW(_strbuf),HIGH(_strbuf)
                 _paramlbl1:
00037c 0004      	.DB  0x4,0x0
00037d 0082      	.DB  0x82,0x0
00037e 001f      	.DB  0x1F,0x0
00037f 0003      	.DB  0x3,0x0
000380 08e9      	.DB  LOW(_781+0x00),HIGH(_781+0x00)
                 _paramval1:
000381 0001      	.DB  0x1,0x0
000382 0093      	.DB  0x93,0x0
000383 0024      	.DB  0x24,0x0
000384 000a      	.DB  0xA,0x0
000385 05c8      	.DB  LOW(_strbuf),HIGH(_strbuf)
                 _paramlbl2:
000386 0004      	.DB  0x4,0x0
000387 000a      	.DB  0xA,0x0
000388 002d      	.DB  0x2D,0x0
000389 0003      	.DB  0x3,0x0
00038a 08ec      	.DB  LOW(_782+0x00),HIGH(_782+0x00)
                 _paramval2:
00038b 0001      	.DB  0x1,0x0
00038c 001b      	.DB  0x1B,0x0
00038d 0032      	.DB  0x32,0x0
00038e 000a      	.DB  0xA,0x0
00038f 05c8      	.DB  LOW(_strbuf),HIGH(_strbuf)
                 _paramlbl3:
000390 0004      	.DB  0x4,0x0
000391 0082      	.DB  0x82,0x0
000392 002d      	.DB  0x2D,0x0
000393 0003      	.DB  0x3,0x0
000394 08ef      	.DB  LOW(_783+0x00),HIGH(_783+0x00)
                 _paramval3:
000395 0001      	.DB  0x1,0x0
000396 0093      	.DB  0x93,0x0
000397 0032      	.DB  0x32,0x0
000398 000a      	.DB  0xA,0x0
000399 05c8      	.DB  LOW(_strbuf),HIGH(_strbuf)
                 _paramlbl3b:
00039a 0004      	.DB  0x4,0x0
00039b 000a      	.DB  0xA,0x0
00039c 002d      	.DB  0x2D,0x0
00039d 0007      	.DB  0x7,0x0
00039e 08f2      	.DB  LOW(_784+0x00),HIGH(_784+0x00)
                 _paramval3b:
00039f 0001      	.DB  0x1,0x0
0003a0 001b      	.DB  0x1B,0x0
0003a1 0032      	.DB  0x32,0x0
0003a2 000a      	.DB  0xA,0x0
0003a3 05c8      	.DB  LOW(_strbuf),HIGH(_strbuf)
                 _boot_banner:
0003a4 0005      	.DB  0x5,0x0
0003a5 0003      	.DB  0x3,0x0
0003a6 0003      	.DB  0x3,0x0
0003a7 0007      	.DB  0x7,0x0
0003a8 08f5      	.DB  LOW(_806+0x00),HIGH(_806+0x00)
                 _boot_options:
0003a9 0005      	.DB  0x5,0x0
0003aa 000a      	.DB  0xA,0x0
0003ab 0017      	.DB  0x17,0x0
0003ac 0007      	.DB  0x7,0x0
0003ad 0904      	.DB  LOW(_807+0x00),HIGH(_807+0x00)
0003ae 0005      	.DB  0x5,0x0
0003af 0082      	.DB  0x82,0x0
0003b0 0017      	.DB  0x17,0x0
0003b1 0007      	.DB  0x7,0x0
0003b2 0911      	.DB  LOW(_808+0x00),HIGH(_808+0x00)
0003b3 0005      	.DB  0x5,0x0
0003b4 000a      	.DB  0xA,0x0
0003b5 002d      	.DB  0x2D,0x0
0003b6 0007      	.DB  0x7,0x0
0003b7 091e      	.DB  LOW(_809+0x00),HIGH(_809+0x00)
0003b8 0005      	.DB  0x5,0x0
0003b9 0082      	.DB  0x82,0x0
0003ba 002d      	.DB  0x2D,0x0
0003bb 0007      	.DB  0x7,0x0
0003bc 092b      	.DB  LOW(_810+0x00),HIGH(_810+0x00)
                 _811:
main.inc(685): warning: .cseg .db misalignment - padding zero byte
main.asm(997): 'main.inc' included form here
0003bd 0001      	.DB  0x1
                 _812:
main.inc(687): warning: .cseg .db misalignment - padding zero byte
main.asm(997): 'main.inc' included form here
0003be 0001      	.DB  0x1
                 _828:
0003bf 0000      	.DW  0x00
                 _datalbl:
0003c0 0005      	.DB  0x5,0x0
0003c1 000a      	.DB  0xA,0x0
0003c2 000a      	.DB  0xA,0x0
0003c3 0008      	.DB  0x8,0x0
0003c4 05c8      	.DB  LOW(_strbuf),HIGH(_strbuf)
                 _datalbl2:
0003c5 0001      	.DB  0x1,0x0
0003c6 008c      	.DB  0x8C,0x0
0003c7 0036      	.DB  0x36,0x0
0003c8 0008      	.DB  0x8,0x0
0003c9 0938      	.DB  LOW(_829+0x00),HIGH(_829+0x00)
                 _datalbl3:
0003ca 0001      	.DB  0x1,0x0
0003cb 008c      	.DB  0x8C,0x0
0003cc 0036      	.DB  0x36,0x0
0003cd 0008      	.DB  0x8,0x0
0003ce 0946      	.DB  LOW(_830+0x00),HIGH(_830+0x00)
                 _databox:
0003cf 0005      	.DB  0x5,0x0
0003d0 0014      	.DB  0x14,0x0
0003d1 001e      	.DB  0x1E,0x0
0003d2 0009      	.DB  0x9,0x0
0003d3 07b6      	.DB  LOW(_databuf),HIGH(_databuf)
                 __fround_GD:
0003d4 0000
0003d5 3f00
0003d6 cccd
0003d7 3d4c      	.DB  0x0,0x0,0x0,0x3F,0xCD,0xCC,0x4C,0x3D
0003d8 d70a
0003d9 3ba3
0003da 126f
0003db 3a03      	.DB  0xA,0xD7,0xA3,0x3B,0x6F,0x12,0x3,0x3A
0003dc b717
0003dd 3851
0003de c5ac
0003df 36a7      	.DB  0x17,0xB7,0x51,0x38,0xAC,0xC5,0xA7,0x36
0003e0 37bd
0003e1 3506      	.DB  0xBD,0x37,0x6,0x35
                 _0:
0003e2 fdd5
0003e3 dad4
0003e4 f4c6
0003e5 afb6      	.DB  0xD5,0xFD,0xD4,0xDA,0xC6,0xF4,0xB6,0xAF
0003e6 2e2e
0003e7 002e
0003e8 fdd5
0003e9 dad4      	.DB  0x2E,0x2E,0x2E,0x0,0xD5,0xFD,0xD4,0xDA
0003ea fcb8
0003eb c2d0
0003ec fdca
0003ed ddbe      	.DB  0xB8,0xFC,0xD0,0xC2,0xCA,0xFD,0xBE,0xDD
0003ee 2e2e
0003ef 002e
0003f0 6625
0003f1 0a0d      	.DB  0x2E,0x2E,0x2E,0x0,0x25,0x66,0xD,0xA
0003f2 2500
0003f3 6432
0003f4 253b
0003f5 3b66      	.DB  0x0,0x25,0x32,0x64,0x3B,0x25,0x66,0x3B
0003f6 2500
0003f7 3b66
0003f8 0a0d
0003f9 2000      	.DB  0x0,0x25,0x66,0x3B,0xD,0xA,0x0,0x20
0003fa 2020
0003fb 0020
0003fc 202a
0003fd 2020      	.DB  0x20,0x20,0x20,0x0,0x2A,0x20,0x20,0x20
0003fe 2a00
0003ff 202a
000400 0020
000401 2a2a      	.DB  0x0,0x2A,0x2A,0x20,0x20,0x0,0x2A,0x2A
000402 202a
000403 2a00
000404 2a2a
000405 002a      	.DB  0x2A,0x20,0x0,0x2A,0x2A,0x2A,0x2A,0x0
000406 6328
000407 2568
000408 6932
000409 252c      	.DB  0x28,0x63,0x68,0x25,0x32,0x69,0x2C,0x25
00040a 6432
00040b 252c
00040c 2973
00040d 2800      	.DB  0x32,0x64,0x2C,0x25,0x73,0x29,0x0,0x28
00040e 6863
00040f 253a
000410 6932
000411 252c      	.DB  0x63,0x68,0x3A,0x25,0x32,0x69,0x2C,0x25
000412 6432
000413 252c
000414 2973
000415 2500      	.DB  0x32,0x64,0x2C,0x25,0x73,0x29,0x0,0x25
000416 3025
000417 3b31
000418 3231
000419 303b      	.DB  0x25,0x30,0x31,0x3B,0x31,0x32,0x3B,0x30
00041a 0d32
00041b 2500
00041c 3025
00041d 3b31      	.DB  0x32,0xD,0x0,0x25,0x25,0x30,0x31,0x3B
00041e 3231
00041f 303b
000420 0d31
000421 2500      	.DB  0x31,0x32,0x3B,0x30,0x31,0xD,0x0,0x25
000422 3025
000423 3b31
000424 3231
000425 303b      	.DB  0x25,0x30,0x31,0x3B,0x31,0x32,0x3B,0x30
000426 0d30
000427 2500
000428 3025
000429 3b31      	.DB  0x30,0xD,0x0,0x25,0x25,0x30,0x31,0x3B
00042a 3632
00042b 000d
00042c 2525
00042d 3130      	.DB  0x32,0x36,0xD,0x0,0x25,0x25,0x30,0x31
00042e 323b
00042f 0d37
000430 2500
000431 3025      	.DB  0x3B,0x32,0x37,0xD,0x0,0x25,0x25,0x30
000432 3b31
000433 3630
000434 000d
000435 2525      	.DB  0x31,0x3B,0x30,0x36,0xD,0x0,0x25,0x25
000436 3130
000437 303b
000438 0d30
000439 2500      	.DB  0x30,0x31,0x3B,0x30,0x30,0xD,0x0,0x25
00043a 3025
00043b 3b31
00043c 3130
00043d 000d      	.DB  0x25,0x30,0x31,0x3B,0x30,0x31,0xD,0x0
00043e ebc7
00043f e4ca
000440 ebc8
000441 acb2      	.DB  0xC7,0xEB,0xCA,0xE4,0xC8,0xEB,0xB2,0xAC
000442 e7b5
000443 e8d7
000444 3052
000445 e8d7      	.DB  0xB5,0xE7,0xD7,0xE8,0x52,0x30,0xD7,0xE8
000446 b5d6
000447 c700
000448 caeb
000449 c8e4      	.DB  0xD6,0xB5,0x0,0xC7,0xEB,0xCA,0xE4,0xC8
00044a 56eb
00044b d630
00044c 00b5
00044d ebc7      	.DB  0xEB,0x56,0x30,0xD6,0xB5,0x0,0xC7,0xEB
00044e e4ca
00044f ebc8
000450 dac4
000451 eab1      	.DB  0xCA,0xE4,0xC8,0xEB,0xC4,0xDA,0xB1,0xEA
000452 bcd7
000453 e8d7
000454 b5d6
000455 4300      	.DB  0xD7,0xBC,0xD7,0xE8,0xD6,0xB5,0x0,0x43
000456 2548
000457 3230
000458 3a69
000459 2000      	.DB  0x48,0x25,0x30,0x32,0x69,0x3A,0x0,0x20
00045a 2d2d
00045b 2d2d
00045c 2d2d
00045d 202d      	.DB  0x2D,0x2D,0x2D,0x2D,0x2D,0x2D,0x2D,0x20
00045e 0020
00045f 3825
000460 0066
000461 6d2a      	.DB  0x20,0x0,0x25,0x38,0x66,0x0,0x2A,0x6D
000462 0056
000463 6d20
000464 0056
000465 4f20      	.DB  0x56,0x0,0x20,0x6D,0x56,0x0,0x20,0x4F
000466 4556
000467 2052
000468 2020
000469 0020      	.DB  0x56,0x45,0x52,0x20,0x20,0x20,0x20,0x0
00046a 2520
00046b 6638
00046c 2000
00046d 2021      	.DB  0x20,0x25,0x38,0x66,0x0,0x20,0x21,0x20
00046e 6325
00046f 2000
000470 2d2d
000471 2d2d      	.DB  0x25,0x63,0x0,0x20,0x2D,0x2D,0x2D,0x2D
000472 2d2d
000473 202d
000474 686f
000475 006d      	.DB  0x2D,0x2D,0x2D,0x20,0x6F,0x68,0x6D,0x0
000476 4e20
000477 204f
000478 4552
000479 4441      	.DB  0x20,0x4E,0x4F,0x20,0x52,0x45,0x41,0x44
00047a 2020
00047b 2020
00047c 2000
00047d 2d2d      	.DB  0x20,0x20,0x20,0x20,0x0,0x20,0x2D,0x2D
00047e 2d2d
00047f 2d2d
000480 202d
000481 2020      	.DB  0x2D,0x2D,0x2D,0x2D,0x2D,0x20,0x20,0x20
000482 0020
000483 6f2a
000484 6d68
000485 b200      	.DB  0x20,0x0,0x2A,0x6F,0x68,0x6D,0x0,0xB2
000486 b5ac
000487 d7e7
000488 b2e8
000489 cace      	.DB  0xAC,0xB5,0xE7,0xD7,0xE8,0xB2,0xCE,0xCA
00048a c5fd
00048b d6e4
00048c 00c3
00048d dac4      	.DB  0xFD,0xC5,0xE4,0xD6,0xC3,0x0,0xC4,0xDA
00048e eab1
00048f bcd7
000490 a3d0
000491 bcd7      	.DB  0xB1,0xEA,0xD7,0xBC,0xD0,0xA3,0xD7,0xBC
000492 d0d6
000493 2e2e
000494 002e
000495 2e31      	.DB  0xD6,0xD0,0x2E,0x2E,0x2E,0x0,0x31,0x2E
000496 e7b5
000497 f7c1
000498 bbbb
000499 f2cf      	.DB  0xB5,0xE7,0xC1,0xF7,0xBB,0xBB,0xCF,0xF2
00049a 3200
00049b c42e
00049c b1da
00049d d7ea      	.DB  0x0,0x32,0x2E,0xC4,0xDA,0xB1,0xEA,0xD7
00049e d0bc
00049f d7a3
0004a0 00bc
0004a1 2e33      	.DB  0xBC,0xD0,0xA3,0xD7,0xBC,0x0,0x33,0x2E
0004a2 a8cd
0004a3 c0b5
0004a4 bdcc
0004a5 b7cd      	.DB  0xCD,0xA8,0xB5,0xC0,0xCC,0xBD,0xCD,0xB7
0004a6 a1d1
0004a7 f1d4
0004a8 3400
0004a9 c92e      	.DB  0xD1,0xA1,0xD4,0xF1,0x0,0x34,0x2E,0xC9
0004aa d6e8
0004ab ccc3
0004ac cdbd
0004ad b2b7      	.DB  0xE8,0xD6,0xC3,0xCC,0xBD,0xCD,0xB7,0xB2
0004ae cace
0004af 00fd
0004b0 ebc7
0004b1 e4ca      	.DB  0xCE,0xCA,0xFD,0x0,0xC7,0xEB,0xCA,0xE4
0004b2 ebc8
0004b3 e2cd
0004b4 eab1
0004b5 bcd7      	.DB  0xC8,0xEB,0xCD,0xE2,0xB1,0xEA,0xD7,0xBC
0004b6 4328
0004b7 3148
0004b8 d729
0004b9 d6e8      	.DB  0x28,0x43,0x48,0x31,0x29,0xD7,0xE8,0xD6
0004ba 00b5
0004bb 2528
0004bc 2969
0004bd b500      	.DB  0xB5,0x0,0x28,0x25,0x69,0x29,0x0,0xB5
0004be c1e7
0004bf bbf7
0004c0 cfbb
0004c1 caf2      	.DB  0xE7,0xC1,0xF7,0xBB,0xBB,0xCF,0xF2,0xCA
0004c2 bcb1
0004c3 c9e4
0004c4 d6e8
0004c5 00c3      	.DB  0xB1,0xBC,0xE4,0xC9,0xE8,0xD6,0xC3,0x0
0004c6 c8c8
0004c7 e7b5
0004c8 bcc5
0004c9 ceb2      	.DB  0xC8,0xC8,0xB5,0xE7,0xC5,0xBC,0xB2,0xCE
0004ca fdca
0004cb e4c5
0004cc c3d6
0004cd 3100      	.DB  0xCA,0xFD,0xC5,0xE4,0xD6,0xC3,0x0,0x31
0004ce d12e
0004cf d4a1
0004d0 b8f1
0004d1 cdf7      	.DB  0x2E,0xD1,0xA1,0xD4,0xF1,0xB8,0xF7,0xCD
0004d2 b5a8
0004d3 ccc0
0004d4 cdbd
0004d5 00b7      	.DB  0xA8,0xB5,0xC0,0xCC,0xBD,0xCD,0xB7,0x0
0004d6 2e32
0004d7 e8c9
0004d8 c3d6
0004d9 f7b8      	.DB  0x32,0x2E,0xC9,0xE8,0xD6,0xC3,0xB8,0xF7
0004da bdcc
0004db b7cd
0004dc ceb2
0004dd fdca      	.DB  0xCC,0xBD,0xCD,0xB7,0xB2,0xCE,0xCA,0xFD
0004de d100
0004df d4a1
0004e0 d2f1
0004e1 c5aa      	.DB  0x0,0xD1,0xA1,0xD4,0xF1,0xD2,0xAA,0xC5
0004e2 d6e4
0004e3 b5c3
0004e4 cdc4
0004e5 b5a8      	.DB  0xE4,0xD6,0xC3,0xB5,0xC4,0xCD,0xA8,0xB5
0004e6 00c0
0004e7 6925
0004e8 4300
0004e9 2548      	.DB  0xC0,0x0,0x25,0x69,0x0,0x43,0x48,0x25
0004ea 3a69
0004eb 002a
0004ec 4843
0004ed 6925      	.DB  0x69,0x3A,0x2A,0x0,0x43,0x48,0x25,0x69
0004ee 253a
0004ef 0073
0004f0 ebc7
0004f1 a1d1      	.DB  0x3A,0x25,0x73,0x0,0xC7,0xEB,0xD1,0xA1
0004f2 f1d4
0004f3 aad2
0004f4 e4c5
0004f5 c3d6      	.DB  0xD4,0xF1,0xD2,0xAA,0xC5,0xE4,0xD6,0xC3
0004f6 c4b5
0004f7 bdcc
0004f8 b7cd
0004f9 2500      	.DB  0xB5,0xC4,0xCC,0xBD,0xCD,0xB7,0x0,0x25
0004fa 2e69
0004fb 7325
0004fc c700
0004fd d1eb      	.DB  0x69,0x2E,0x25,0x73,0x0,0xC7,0xEB,0xD1
0004fe d4a1
0004ff cdf1
000500 b5a8
000501 25c0      	.DB  0xA1,0xD4,0xF1,0xCD,0xA8,0xB5,0xC0,0x25
000502 ca69
000503 d3b9
000504 b5c3
000505 ccc4      	.DB  0x69,0xCA,0xB9,0xD3,0xC3,0xB5,0xC4,0xCC
000506 cdbd
000507 00b7
000508 2e31
000509 5450      	.DB  0xBD,0xCD,0xB7,0x0,0x31,0x2E,0x50,0x54
00050a 3031
00050b 0030
00050c 2e32
00050d 5450      	.DB  0x31,0x30,0x30,0x0,0x32,0x2E,0x50,0x54
00050e 3532
00050f 3300
000510 4b2e
000511 542d      	.DB  0x32,0x35,0x0,0x33,0x2E,0x4B,0x2D,0x54
000512 5059
000513 0045
000514 2e34
000515 2d4e      	.DB  0x59,0x50,0x45,0x0,0x34,0x2E,0x4E,0x2D
000516 5954
000517 4550
000518 3500
000519 452e      	.DB  0x54,0x59,0x50,0x45,0x0,0x35,0x2E,0x45
00051a 542d
00051b 5059
00051c 0045
00051d 2e36      	.DB  0x2D,0x54,0x59,0x50,0x45,0x0,0x36,0x2E
00051e 2d42
00051f 5954
000520 4550
000521 3700      	.DB  0x42,0x2D,0x54,0x59,0x50,0x45,0x0,0x37
000522 4a2e
000523 542d
000524 5059
000525 0045      	.DB  0x2E,0x4A,0x2D,0x54,0x59,0x50,0x45,0x0
000526 2e38
000527 2d53
000528 5954
000529 4550      	.DB  0x38,0x2E,0x53,0x2D,0x54,0x59,0x50,0x45
00052a 3900
00052b 522e
00052c 542d
00052d 5059      	.DB  0x0,0x39,0x2E,0x52,0x2D,0x54,0x59,0x50
00052e 0045
00052f bdcc
000530 b7cd
000531 6925      	.DB  0x45,0x0,0xCC,0xBD,0xCD,0xB7,0x25,0x69
000532 e0c0
000533 cdd0
000534 e8c9
000535 c3d6      	.DB  0xC0,0xE0,0xD0,0xCD,0xC9,0xE8,0xD6,0xC3
000536 aace
000537 003a
000538 5450
000539 2020      	.DB  0xCE,0xAA,0x3A,0x0,0x50,0x54,0x20,0x20
00053a 3532
00053b 5000
00053c 2054
00053d 3031      	.DB  0x32,0x35,0x0,0x50,0x54,0x20,0x31,0x30
00053e 0030
00053f 204b
000540 5954
000541 4550      	.DB  0x30,0x0,0x4B,0x20,0x54,0x59,0x50,0x45
000542 4e00
000543 5420
000544 5059
000545 0045      	.DB  0x0,0x4E,0x20,0x54,0x59,0x50,0x45,0x0
000546 2045
000547 5954
000548 4550
000549 4200      	.DB  0x45,0x20,0x54,0x59,0x50,0x45,0x0,0x42
00054a 5420
00054b 5059
00054c 0045
00054d 204a      	.DB  0x20,0x54,0x59,0x50,0x45,0x0,0x4A,0x20
00054e 5954
00054f 4550
000550 5300
000551 5420      	.DB  0x54,0x59,0x50,0x45,0x0,0x53,0x20,0x54
000552 5059
000553 0045
000554 2052
000555 5954      	.DB  0x59,0x50,0x45,0x0,0x52,0x20,0x54,0x59
000556 4550
000557 3f00
000558 5420
000559 5059      	.DB  0x50,0x45,0x0,0x3F,0x20,0x54,0x59,0x50
00055a 0045
00055b 2e31
00055c f2d0
00055d d0c1      	.DB  0x45,0x0,0x31,0x2E,0xD0,0xF2,0xC1,0xD0
00055e c5ba
00055f 3200
000560 c02e
000561 d0e0      	.DB  0xBA,0xC5,0x0,0x32,0x2E,0xC0,0xE0,0xD0
000562 00cd
000563 2e33
000564 3400
000565 002e      	.DB  0xCD,0x0,0x33,0x2E,0x0,0x34,0x2E,0x0
000566 2e35
000567 c800
000568 b5c8
000569 c5e7      	.DB  0x35,0x2E,0x0,0xC8,0xC8,0xB5,0xE7,0xC5
00056a ccbc
00056b cdbd
00056c 25b7
00056d b269      	.DB  0xBC,0xCC,0xBD,0xCD,0xB7,0x25,0x69,0xB2
00056e cace
00056f 00fd
000570 acb2
000571 e7b5      	.DB  0xCE,0xCA,0xFD,0x0,0xB2,0xAC,0xB5,0xE7
000572 e8d7
000573 bdcc
000574 b7cd
000575 6925      	.DB  0xD7,0xE8,0xCC,0xBD,0xCD,0xB7,0x25,0x69
000576 ceb2
000577 fdca
000578 5200
000579 3028      	.DB  0xB2,0xCE,0xCA,0xFD,0x0,0x52,0x28,0x30
00057a 2921
00057b 253a
00057c 6637
00057d 6100      	.DB  0x21,0x29,0x3A,0x25,0x37,0x66,0x0,0x61
00057e 253a
00057f 2e39
000580 4533
000581 6200      	.DB  0x3A,0x25,0x39,0x2E,0x33,0x45,0x0,0x62
000582 253a
000583 2e39
000584 4533
000585 6300      	.DB  0x3A,0x25,0x39,0x2E,0x33,0x45,0x0,0x63
000586 253a
000587 2e39
000588 4533
000589 c700      	.DB  0x3A,0x25,0x39,0x2E,0x33,0x45,0x0,0xC7
00058a caeb
00058b c8e4
00058c cceb
00058d cdbd      	.DB  0xEB,0xCA,0xE4,0xC8,0xEB,0xCC,0xBD,0xCD
00058e d0b7
00058f c1f2
000590 bad0
000591 00c5      	.DB  0xB7,0xD0,0xF2,0xC1,0xD0,0xBA,0xC5,0x0
000592 e4ca
000593 ebc8
000594 2852
000595 2130      	.DB  0xCA,0xE4,0xC8,0xEB,0x52,0x28,0x30,0x21
000596 0029
000597 e4ca
000598 ebc8
000599 b5cf      	.DB  0x29,0x0,0xCA,0xE4,0xC8,0xEB,0xCF,0xB5
00059a fdca
00059b 0061
00059c e4ca
00059d ebc8      	.DB  0xCA,0xFD,0x61,0x0,0xCA,0xE4,0xC8,0xEB
00059e b5cf
00059f fdca
0005a0 0062
0005a1 e4ca      	.DB  0xCF,0xB5,0xCA,0xFD,0x62,0x0,0xCA,0xE4
0005a2 ebc8
0005a3 b5cf
0005a4 fdca
0005a5 0063      	.DB  0xC8,0xEB,0xCF,0xB5,0xCA,0xFD,0x63,0x0
0005a6 ebc7
0005a7 a1d1
0005a8 f1d4
0005a9 a4b9      	.DB  0xC7,0xEB,0xD1,0xA1,0xD4,0xF1,0xB9,0xA4
0005aa f7d7
0005ab a3c4
0005ac bdca
0005ad 3100      	.DB  0xD7,0xF7,0xC4,0xA3,0xCA,0xBD,0x0,0x31
0005ae b22e
0005af b5ac
0005b0 d7e7
0005b1 b2e8      	.DB  0x2E,0xB2,0xAC,0xB5,0xE7,0xD7,0xE8,0xB2
0005b2 c1e2
0005b3 00bf
0005b4 2e32
0005b5 acb2      	.DB  0xE2,0xC1,0xBF,0x0,0x32,0x2E,0xB2,0xAC
0005b6 e7b5
0005b7 e8d7
0005b8 e4c5
0005b9 c3d6      	.DB  0xB5,0xE7,0xD7,0xE8,0xC5,0xE4,0xD6,0xC3
0005ba 3300
0005bb c82e
0005bc b5c8
0005bd c5e7      	.DB  0x0,0x33,0x2E,0xC8,0xC8,0xB5,0xE7,0xC5
0005be b2bc
0005bf c1e2
0005c0 00bf
0005c1 2e34      	.DB  0xBC,0xB2,0xE2,0xC1,0xBF,0x0,0x34,0x2E
0005c2 c8c8
0005c3 e7b5
0005c4 bcc5
0005c5 e4c5      	.DB  0xC8,0xC8,0xB5,0xE7,0xC5,0xBC,0xC5,0xE4
0005c6 c3d6
0005c7 5500
0005c8 3a50
0005c9 2f2b      	.DB  0xD6,0xC3,0x0,0x55,0x50,0x3A,0x2B,0x2F
0005ca 2c2d
0005cb 4e44
0005cc 273a
0005cd 2745      	.DB  0x2D,0x2C,0x44,0x4E,0x3A,0x27,0x45,0x27
0005ce 5500
0005cf 2f50
0005d0 4e44
0005d1 273a      	.DB  0x0,0x55,0x50,0x2F,0x44,0x4E,0x3A,0x27
0005d2 2741
0005d3 272d
0005d4 275a
main.inc(844): warning: .cseg .db misalignment - padding zero byte
main.asm(997): 'main.inc' included form here
0005d5 0000      	.DB  0x41,0x27,0x2D,0x27,0x5A,0x27,0x0
                 
                 __GLOBAL_INI_TBL:
0005d6 000c      	.DW  0x0C
0005d7 07c5      	.DW  _3
0005d8 07c4      	.DW  _0*2
                 
0005d9 0010      	.DW  0x10
0005da 07d1      	.DW  _4
0005db 07d0      	.DW  _0*2+0x0C
                 
0005dc 0002      	.DW  0x02
0005dd 0006      	.DW  0x06
0005de 00aa      	.DW  _5*2
                 
0005df 0002      	.DW  0x02
0005e0 0008      	.DW  0x08
0005e1 00ac      	.DW  _6*2
                 
0005e2 0002      	.DW  0x02
0005e3 000a      	.DW  0x0A
0005e4 00ae      	.DW  _7*2
                 
0005e5 0001      	.DW  0x01
0005e6 0607      	.DW  _nav1v
0005e7 00b0      	.DW  _8*2
                 
0005e8 0001      	.DW  0x01
0005e9 0610      	.DW  _tA_G1
0005ea 00bc      	.DW  _90*2
                 
0005eb 0001      	.DW  0x01
0005ec 0611      	.DW  _tB_G1
0005ed 00be      	.DW  _91*2
                 
0005ee 0003      	.DW  0x03
0005ef 0743      	.DW  _head_G8
0005f0 0460      	.DW  _428*2
                 
0005f1 0003      	.DW  0x03
0005f2 0746      	.DW  _tail_G8
0005f3 0464      	.DW  _429*2
                 
0005f4 000a      	.DW  0x0A
0005f5 074b      	.DW  _idle_G8
0005f6 0468      	.DW  _437*2
                 
0005f7 0004      	.DW  0x04
0005f8 0756      	.DW  _reading_G9
0005f9 0472      	.DW  _454*2
                 
0005fa 000f      	.DW  0x0F
0005fb 07e1      	.DW  _548
0005fc 090b      	.DW  _0*2+0x147
                 
0005fd 0010      	.DW  0x10
0005fe 07f0      	.DW  _549
0005ff 091a      	.DW  _0*2+0x156
                 
000600 000b      	.DW  0x0B
000601 0800      	.DW  _550
000602 092a      	.DW  _0*2+0x166
                 
000603 000d      	.DW  0x0D
000604 080b      	.DW  _551
000605 0935      	.DW  _0*2+0x171
                 
000606 000f      	.DW  0x0F
000607 0818      	.DW  _552
000608 0942      	.DW  _0*2+0x17E
                 
000609 000f      	.DW  0x0F
00060a 0827      	.DW  _553
00060b 0951      	.DW  _0*2+0x18D
                 
00060c 0001      	.DW  0x01
00060d 0797      	.DW  _curr_sel_S4B
00060e 0538      	.DW  _556*2
                 
00060f 0001      	.DW  0x01
000610 0798      	.DW  _last_sel_S4B
000611 053a      	.DW  _557*2
                 
000612 000f      	.DW  0x0F
000613 0836      	.DW  _576
000614 098c      	.DW  _0*2+0x1C8
                 
000615 0011      	.DW  0x11
000616 0845      	.DW  _577
000617 099b      	.DW  _0*2+0x1D7
                 
000618 0011      	.DW  0x11
000619 0856      	.DW  _578
00061a 09ac      	.DW  _0*2+0x1E8
                 
00061b 0001      	.DW  0x01
00061c 0799      	.DW  _curr_sel_S4C
00061d 055a      	.DW  _579*2
                 
00061e 0001      	.DW  0x01
00061f 079a      	.DW  _last_sel_S4C
000620 055c      	.DW  _580*2
                 
000621 0011      	.DW  0x11
000622 0867      	.DW  _597
000623 09bd      	.DW  _0*2+0x1F9
                 
000624 0002      	.DW  0x02
000625 079b      	.DW  _curr_pos_S4D
000626 05ae      	.DW  _598*2
                 
000627 0002      	.DW  0x02
000628 079d      	.DW  _last_pos_S4D
000629 05b0      	.DW  _599*2
                 
00062a 0013      	.DW  0x13
00062b 0878      	.DW  _641
00062c 09e0      	.DW  _0*2+0x21C
                 
00062d 0002      	.DW  0x02
00062e 079f      	.DW  _curr_pos_S4E
00062f 0602      	.DW  _642*2
                 
000630 0002      	.DW  0x02
000631 07a1      	.DW  _last_pos_S4E
000632 0604      	.DW  _643*2
                 
000633 0002      	.DW  0x02
000634 07a3      	.DW  _curr_pos_S4F
000635 0658      	.DW  _679*2
                 
000636 0002      	.DW  0x02
000637 07a5      	.DW  _last_pos_S4F
000638 065a      	.DW  _680*2
                 
000639 0008      	.DW  0x08
00063a 088b      	.DW  _721
00063b 0a10      	.DW  _0*2+0x24C
                 
00063c 0007      	.DW  0x07
00063d 0893      	.DW  _722
00063e 0a18      	.DW  _0*2+0x254
                 
00063f 0009      	.DW  0x09
000640 089a      	.DW  _723
000641 0a1f      	.DW  _0*2+0x25B
                 
000642 0009      	.DW  0x09
000643 08a3      	.DW  _724
000644 0a28      	.DW  _0*2+0x264
                 
000645 0009      	.DW  0x09
000646 08ac      	.DW  _725
000647 0a31      	.DW  _0*2+0x26D
                 
000648 0009      	.DW  0x09
000649 08b5      	.DW  _726
00064a 0a3a      	.DW  _0*2+0x276
                 
00064b 0009      	.DW  0x09
00064c 08be      	.DW  _727
00064d 0a43      	.DW  _0*2+0x27F
                 
00064e 0009      	.DW  0x09
00064f 08c7      	.DW  _728
000650 0a4c      	.DW  _0*2+0x288
                 
000651 0009      	.DW  0x09
000652 08d0      	.DW  _729
000653 0a55      	.DW  _0*2+0x291
                 
000654 0002      	.DW  0x02
000655 07a7      	.DW  _curr_sel_S50
000656 06c2      	.DW  _730*2
                 
000657 0002      	.DW  0x02
000658 07a9      	.DW  _last_sel_S50
000659 06c4      	.DW  _731*2
                 
00065a 0009      	.DW  0x09
00065b 08d9      	.DW  _779
00065c 0ab6      	.DW  _0*2+0x2F2
                 
00065d 0007      	.DW  0x07
00065e 08e2      	.DW  _780
00065f 0abf      	.DW  _0*2+0x2FB
                 
000660 0003      	.DW  0x03
000661 08e9      	.DW  _781
000662 0ac6      	.DW  _0*2+0x302
                 
000663 0003      	.DW  0x03
000664 08ec      	.DW  _782
000665 0ac9      	.DW  _0*2+0x305
                 
000666 0003      	.DW  0x03
000667 08ef      	.DW  _783
000668 0acc      	.DW  _0*2+0x308
                 
000669 0003      	.DW  0x03
00066a 08f2      	.DW  _784
00066b 0ac6      	.DW  _0*2+0x302
                 
00066c 000f      	.DW  0x0F
00066d 08f5      	.DW  _806
00066e 0b4c      	.DW  _0*2+0x388
                 
00066f 000d      	.DW  0x0D
000670 0904      	.DW  _807
000671 0b5b      	.DW  _0*2+0x397
                 
000672 000d      	.DW  0x0D
000673 0911      	.DW  _808
000674 0b68      	.DW  _0*2+0x3A4
                 
000675 000d      	.DW  0x0D
000676 091e      	.DW  _809
000677 0b75      	.DW  _0*2+0x3B1
                 
000678 000d      	.DW  0x0D
000679 092b      	.DW  _810
00067a 0b82      	.DW  _0*2+0x3BE
                 
00067b 0001      	.DW  0x01
00067c 07b2      	.DW  _curr_sel_S53
00067d 077a      	.DW  _811*2
                 
00067e 0001      	.DW  0x01
00067f 07b3      	.DW  _last_sel_S53
000680 077c      	.DW  _812*2
                 
000681 0002      	.DW  0x02
000682 07b4      	.DW  _curr_window
000683 077e      	.DW  _828*2
                 
000684 000e      	.DW  0x0E
000685 0938      	.DW  _829
000686 0b8f      	.DW  _0*2+0x3CB
                 
000687 000e      	.DW  0x0E
000688 0946      	.DW  _830
000689 0b9d      	.DW  _0*2+0x3D9
                 
00068a 0000      	.DW  0
                 _0x4C5:
                 
                 __RESET:
00068b 94f8      	CLI
00068c 27ee      	CLR  R30
00068d bbec      	OUT  EECR,R30
                 
                 ;INTERRUPT VECTORS ARE PLACED
                 ;AT THE START OF FLASH
00068e e0f1      	LDI  R31,1
00068f bff5      	OUT  MCUCR,R31
000690 bfe5      	OUT  MCUCR,R30
000691 93e0 006c 	STS  XMCRB,R30
                 
                 ;DISABLE WATCHDOG
000693 e1f8      	LDI  R31,0x18
000694 bdf1      	OUT  WDTCR,R31
000695 bde1      	OUT  WDTCR,R30
                 
                 ;CLEAR R2-R14
000696 e08d      	LDI  R24,13
000697 e0a2      	LDI  R26,2
000698 27bb      	CLR  R27
                 __CLEAR_REG:
000699 93ed      	ST   X+,R30
00069a 958a      	DEC  R24
00069b f7e9      	BRNE __CLEAR_REG
                 
                 ;CLEAR SRAM
00069c e080      	LDI  R24,LOW(0x1000)
00069d e190      	LDI  R25,HIGH(0x1000)
00069e e0a0      	LDI  R26,LOW(0x100)
00069f e0b1      	LDI  R27,HIGH(0x100)
                 __CLEAR_SRAM:
0006a0 93ed      	ST   X+,R30
0006a1 9701      	SBIW R24,1
0006a2 f7e9      	BRNE __CLEAR_SRAM
                 
                 ;GLOBAL VARIABLES INITIALIZATION
0006a3 eaec      	LDI  R30,LOW(__GLOBAL_INI_TBL*2)
0006a4 e0fb      	LDI  R31,HIGH(__GLOBAL_INI_TBL*2)
                 __GLOBAL_INI_NEXT:
0006a5 9185      	LPM  R24,Z+
0006a6 9195      	LPM  R25,Z+
0006a7 9700      	SBIW R24,0
0006a8 f061      	BREQ __GLOBAL_INI_END
0006a9 91a5      	LPM  R26,Z+
0006aa 91b5      	LPM  R27,Z+
0006ab 9005      	LPM  R0,Z+
0006ac 9015      	LPM  R1,Z+
0006ad 01bf      	MOVW R22,R30
0006ae 01f0      	MOVW R30,R0
                 __GLOBAL_INI_LOOP:
0006af 9005      	LPM  R0,Z+
0006b0 920d      	ST   X+,R0
0006b1 9701      	SBIW R24,1
0006b2 f7e1      	BRNE __GLOBAL_INI_LOOP
0006b3 01fb      	MOVW R30,R22
0006b4 cff0      	RJMP __GLOBAL_INI_NEXT
                 __GLOBAL_INI_END:
                 
                 ;STACK POINTER INITIALIZATION
0006b5 efef      	LDI  R30,LOW(0x10FF)
0006b6 bfed      	OUT  SPL,R30
0006b7 e1e0      	LDI  R30,HIGH(0x10FF)
0006b8 bfee      	OUT  SPH,R30
                 
                 ;DATA STACK POINTER INITIALIZATION
0006b9 e0c0      	LDI  R28,LOW(0x500)
0006ba e0d5      	LDI  R29,HIGH(0x500)
                 
0006bb 940c 0989 	JMP  _main
                 
                 	.ESEG
                 	.ORG 0
                 
                 	.DSEG
                 	.ORG 0x500
                 ;       1 /*****************************************************
                 ;       2 This program was produced by the
                 ;       3 CodeWizardAVR V1.24.6 Professional
                 ;       4 Automatic Program Generator
                 ;       5 ?Copyright 1998-2005 Pavel Haiduc, HP InfoTech s.r.l.
                 ;       6 http://www.hpinfotech.com
                 ;       7 e-mail:office@hpinfotech.com
                 ;       8 
                 ;       9 Project :
                 ;      10 Version :
                 ;      11 Date    : 2007-1-15
                 ;      12 Author  : F4CG
                 ;      13 Company : F4CG
                 ;      14 Comments:
                 ;      15 
                 ;      16 
                 ;      17 Chip type           : ATmega64
                 ;      18 Program type        : Application
                 ;      19 Clock frequency     : 14.745600 MHz
                 ;      20 Memory model        : Small
                 ;      21 External SRAM size  : 0
                 ;      22 Data Stack size     : 1024
                 ;      23 *****************************************************/
                 ;      24 
                 ;      25 #include <mega64.h>
                 ;      26 #include "uart.h"
                 ;      27 #include "init.h"
                 ;      28 #include "16c554.h"
                 ;      29 #include "global.h"
                 ;      30 #include "utili.h"
                 ;      31 #include "window.h"
                 ;      32 #include "lcd.h"
                 ;      33 #include "key.h"
                 ;      34 #include "wendu.h"
                 ;      35 #include "scanner.h"
                 ;      36 #include "uart.h"
                 ;      37 #include "stdlib.h"
                 ;      38 //#include "math.h"
                 ;      39 extern void pgmain_handler(uchar);	//running menu
                 ;      40 extern void pgrconfig_handler(uchar);	//main menu of R config
                 ;      41 extern void pgtconfig_handler(uchar);	//main menu of T config
                 ;      42 extern void pgchset_handler(uchar);	//menu of channel probe setup
                 ;      43 extern void pgprblist_handler(uchar);	//list of probe selection
                 ;      44 extern void pgprbtypelist_handler(uchar); //select probe type
                 ;      45 extern void pgprbset_handler(uchar);	//menu of probe setup
                 ;      46 extern void pgprbconfig_handler(uchar);  //config of probe
                 ;      47 extern void pgboottype_handler(uchar msg) ; //boot up config
                 ;      48 extern void com1_putstr(char *s);
                 ;      49 extern unsigned int strlen(char *s);
                 ;      50 RUNDATA rundata;
                 _rundata:
000500           	.BYTE 0xC8
                 ;      51 SYSDATA eeprom sysdata = {
                 
                 	.ESEG
                 _sysdata:
                 ;      52 	0,0,100,3,
000000 00 00     	.DW  0x0
000002 00 00     	.DW  0x0
000004 00 00     	.DW  0x0
000006 00 00     	.DW  0x0
000008 00 00     	.DW  0x0
00000a c8 42     	.DW  0x42C8
00000c 03 00     	.DW  0x3
                 ;      53 	{0x00,0xff,0xff,0xff,0xff,0xff,0xff,0xff,
                 ;      54 	0xff,0xff,0xff,0xff,0xff,0xff,0xff,0xff,
                 ;      55 	0xff,0xff,0xff,0xff,0xff,0xff,0xff,0xff},
00000e 00        	.DB  0x0
00000f ff        	.DB  0xFF
000010 ff        	.DB  0xFF
000011 ff        	.DB  0xFF
000012 ff        	.DB  0xFF
000013 ff        	.DB  0xFF
000014 ff        	.DB  0xFF
000015 ff        	.DB  0xFF
000016 ff        	.DB  0xFF
000017 ff        	.DB  0xFF
000018 ff        	.DB  0xFF
000019 ff        	.DB  0xFF
00001a ff        	.DB  0xFF
00001b ff        	.DB  0xFF
00001c ff        	.DB  0xFF
00001d ff        	.DB  0xFF
00001e ff        	.DB  0xFF
00001f ff        	.DB  0xFF
000020 ff        	.DB  0xFF
000021 ff        	.DB  0xFF
000022 ff        	.DB  0xFF
000023 ff        	.DB  0xFF
000024 ff        	.DB  0xFF
000025 ff        	.DB  0xFF
                 ;      56 	{0x00,0xff,0xff,0xff,0xff,0xff,0xff,0xff,
                 ;      57 	0xff,0xff,0xff,0xff,0xff,0xff,0xff,0xff,
                 ;      58 	0xff,0xff,0xff,0xff,0xff,0xff,0xff,0xff},
000026 00        	.DB  0x0
000027 ff        	.DB  0xFF
000028 ff        	.DB  0xFF
000029 ff        	.DB  0xFF
00002a ff        	.DB  0xFF
00002b ff        	.DB  0xFF
00002c ff        	.DB  0xFF
00002d ff        	.DB  0xFF
00002e ff        	.DB  0xFF
00002f ff        	.DB  0xFF
000030 ff        	.DB  0xFF
000031 ff        	.DB  0xFF
000032 ff        	.DB  0xFF
000033 ff        	.DB  0xFF
000034 ff        	.DB  0xFF
000035 ff        	.DB  0xFF
000036 ff        	.DB  0xFF
000037 ff        	.DB  0xFF
000038 ff        	.DB  0xFF
000039 ff        	.DB  0xFF
00003a ff        	.DB  0xFF
00003b ff        	.DB  0xFF
00003c ff        	.DB  0xFF
00003d ff        	.DB  0xFF
                 ;      59 	1,1};
00003e 01        	.DB  0x1
00003f 01        	.DB  0x1
                 ;      60 PRBDATA	eeprom tprbdata = {
                 _tprbdata:
                 ;      61        {0.0,0.0,0.0,0.0,0.0,0.0,0.0,0.0,
                 ;      62 	0.0,0.0,0.0,0.0,0.0,0.0,0.0,0.0,
                 ;      63 	0.0,0.0,0.0,0.0,0.0,0.0,0.0,0.0},
000040 00 00     	.DW  0x0
000042 00 00     	.DW  0x0
000044 00 00     	.DW  0x0
000046 00 00     	.DW  0x0
000048 00 00     	.DW  0x0
00004a 00 00     	.DW  0x0
00004c 00 00     	.DW  0x0
00004e 00 00     	.DW  0x0
000050 00 00     	.DW  0x0
000052 00 00     	.DW  0x0
000054 00 00     	.DW  0x0
000056 00 00     	.DW  0x0
000058 00 00     	.DW  0x0
00005a 00 00     	.DW  0x0
00005c 00 00     	.DW  0x0
00005e 00 00     	.DW  0x0
000060 00 00     	.DW  0x0
000062 00 00     	.DW  0x0
000064 00 00     	.DW  0x0
000066 00 00     	.DW  0x0
000068 00 00     	.DW  0x0
00006a 00 00     	.DW  0x0
00006c 00 00     	.DW  0x0
00006e 00 00     	.DW  0x0
000070 00 00     	.DW  0x0
000072 00 00     	.DW  0x0
000074 00 00     	.DW  0x0
000076 00 00     	.DW  0x0
000078 00 00     	.DW  0x0
00007a 00 00     	.DW  0x0
00007c 00 00     	.DW  0x0
00007e 00 00     	.DW  0x0
000080 00 00     	.DW  0x0
000082 00 00     	.DW  0x0
000084 00 00     	.DW  0x0
000086 00 00     	.DW  0x0
000088 00 00     	.DW  0x0
00008a 00 00     	.DW  0x0
00008c 00 00     	.DW  0x0
00008e 00 00     	.DW  0x0
000090 00 00     	.DW  0x0
000092 00 00     	.DW  0x0
000094 00 00     	.DW  0x0
000096 00 00     	.DW  0x0
000098 00 00     	.DW  0x0
00009a 00 00     	.DW  0x0
00009c 00 00     	.DW  0x0
00009e 00 00     	.DW  0x0
                 ;      64 	{0.0,0.0,0.0,0.0,0.0,0.0,0.0,0.0,
                 ;      65 	0.0,0.0,0.0,0.0,0.0,0.0,0.0,0.0,
                 ;      66 	0.0,0.0,0.0,0.0,0.0,0.0,0.0,0.0},
0000a0 00 00     	.DW  0x0
0000a2 00 00     	.DW  0x0
0000a4 00 00     	.DW  0x0
0000a6 00 00     	.DW  0x0
0000a8 00 00     	.DW  0x0
0000aa 00 00     	.DW  0x0
0000ac 00 00     	.DW  0x0
0000ae 00 00     	.DW  0x0
0000b0 00 00     	.DW  0x0
0000b2 00 00     	.DW  0x0
0000b4 00 00     	.DW  0x0
0000b6 00 00     	.DW  0x0
0000b8 00 00     	.DW  0x0
0000ba 00 00     	.DW  0x0
0000bc 00 00     	.DW  0x0
0000be 00 00     	.DW  0x0
0000c0 00 00     	.DW  0x0
0000c2 00 00     	.DW  0x0
0000c4 00 00     	.DW  0x0
0000c6 00 00     	.DW  0x0
0000c8 00 00     	.DW  0x0
0000ca 00 00     	.DW  0x0
0000cc 00 00     	.DW  0x0
0000ce 00 00     	.DW  0x0
0000d0 00 00     	.DW  0x0
0000d2 00 00     	.DW  0x0
0000d4 00 00     	.DW  0x0
0000d6 00 00     	.DW  0x0
0000d8 00 00     	.DW  0x0
0000da 00 00     	.DW  0x0
0000dc 00 00     	.DW  0x0
0000de 00 00     	.DW  0x0
0000e0 00 00     	.DW  0x0
0000e2 00 00     	.DW  0x0
0000e4 00 00     	.DW  0x0
0000e6 00 00     	.DW  0x0
0000e8 00 00     	.DW  0x0
0000ea 00 00     	.DW  0x0
0000ec 00 00     	.DW  0x0
0000ee 00 00     	.DW  0x0
0000f0 00 00     	.DW  0x0
0000f2 00 00     	.DW  0x0
0000f4 00 00     	.DW  0x0
0000f6 00 00     	.DW  0x0
0000f8 00 00     	.DW  0x0
0000fa 00 00     	.DW  0x0
0000fc 00 00     	.DW  0x0
0000fe 00 00     	.DW  0x0
                 ;      67 	{0.0,0.0,0.0,0.0,0.0,0.0,0.0,0.0,
                 ;      68 	0.0,0.0,0.0,0.0,0.0,0.0,0.0,0.0,
                 ;      69 	0.0,0.0,0.0,0.0,0.0,0.0,0.0,0.0},
000100 00 00     	.DW  0x0
000102 00 00     	.DW  0x0
000104 00 00     	.DW  0x0
000106 00 00     	.DW  0x0
000108 00 00     	.DW  0x0
00010a 00 00     	.DW  0x0
00010c 00 00     	.DW  0x0
00010e 00 00     	.DW  0x0
000110 00 00     	.DW  0x0
000112 00 00     	.DW  0x0
000114 00 00     	.DW  0x0
000116 00 00     	.DW  0x0
000118 00 00     	.DW  0x0
00011a 00 00     	.DW  0x0
00011c 00 00     	.DW  0x0
00011e 00 00     	.DW  0x0
000120 00 00     	.DW  0x0
000122 00 00     	.DW  0x0
000124 00 00     	.DW  0x0
000126 00 00     	.DW  0x0
000128 00 00     	.DW  0x0
00012a 00 00     	.DW  0x0
00012c 00 00     	.DW  0x0
00012e 00 00     	.DW  0x0
000130 00 00     	.DW  0x0
000132 00 00     	.DW  0x0
000134 00 00     	.DW  0x0
000136 00 00     	.DW  0x0
000138 00 00     	.DW  0x0
00013a 00 00     	.DW  0x0
00013c 00 00     	.DW  0x0
00013e 00 00     	.DW  0x0
000140 00 00     	.DW  0x0
000142 00 00     	.DW  0x0
000144 00 00     	.DW  0x0
000146 00 00     	.DW  0x0
000148 00 00     	.DW  0x0
00014a 00 00     	.DW  0x0
00014c 00 00     	.DW  0x0
00014e 00 00     	.DW  0x0
000150 00 00     	.DW  0x0
000152 00 00     	.DW  0x0
000154 00 00     	.DW  0x0
000156 00 00     	.DW  0x0
000158 00 00     	.DW  0x0
00015a 00 00     	.DW  0x0
00015c 00 00     	.DW  0x0
00015e 00 00     	.DW  0x0
                 ;      70 	{"11","","","","","","","",
                 ;      71 	"","","","","","","","",
                 ;      72 	"","","","","","","",""},
000160 31        	.DB  0x31
000161 31        	.DB  0x31
000162 00        	.DB  0x0
000163 00        	.DB  0x0
000164 00        	.DB  0x0
000165 00        	.DB  0x0
000166 00        	.DB  0x0
000167 00        	.DB  0x0
000168 00        	.DB  0x0
000169 00        	.DB  0x0
00016a 00        	.DB  0x0
00016b 00        	.DB  0x0
00016c 00        	.DB  0x0
00016d 00        	.DB  0x0
00016e 00        	.DB  0x0
00016f 00        	.DB  0x0
000170 00        	.DB  0x0
000171 00        	.DB  0x0
000172 00        	.DB  0x0
000173 00        	.DB  0x0
000174 00        	.DB  0x0
000175 00        	.DB  0x0
000176 00        	.DB  0x0
000177 00        	.DB  0x0
000178 00        	.DB  0x0
000179 00        	.DB  0x0
00017a 00        	.DB  0x0
00017b 00        	.DB  0x0
00017c 00        	.DB  0x0
00017d 00        	.DB  0x0
00017e 00        	.DB  0x0
00017f 00        	.DB  0x0
000180 00        	.DB  0x0
000181 00        	.DB  0x0
000182 00        	.DB  0x0
000183 00        	.DB  0x0
000184 00        	.DB  0x0
000185 00        	.DB  0x0
000186 00        	.DB  0x0
000187 00        	.DB  0x0
000188 00        	.DB  0x0
000189 00        	.DB  0x0
00018a 00        	.DB  0x0
00018b 00        	.DB  0x0
00018c 00        	.DB  0x0
00018d 00        	.DB  0x0
00018e 00        	.DB  0x0
00018f 00        	.DB  0x0
000190 00        	.DB  0x0
000191 00        	.DB  0x0
000192 00        	.DB  0x0
000193 00        	.DB  0x0
000194 00        	.DB  0x0
000195 00        	.DB  0x0
000196 00        	.DB  0x0
000197 00        	.DB  0x0
000198 00        	.DB  0x0
000199 00        	.DB  0x0
00019a 00        	.DB  0x0
00019b 00        	.DB  0x0
00019c 00        	.DB  0x0
00019d 00        	.DB  0x0
00019e 00        	.DB  0x0
00019f 00        	.DB  0x0
0001a0 00        	.DB  0x0
0001a1 00        	.DB  0x0
0001a2 00        	.DB  0x0
0001a3 00        	.DB  0x0
0001a4 00        	.DB  0x0
0001a5 00        	.DB  0x0
0001a6 00        	.DB  0x0
0001a7 00        	.DB  0x0
0001a8 00        	.DB  0x0
0001a9 00        	.DB  0x0
0001aa 00        	.DB  0x0
0001ab 00        	.DB  0x0
0001ac 00        	.DB  0x0
0001ad 00        	.DB  0x0
0001ae 00        	.DB  0x0
0001af 00        	.DB  0x0
0001b0 00        	.DB  0x0
0001b1 00        	.DB  0x0
0001b2 00        	.DB  0x0
0001b3 00        	.DB  0x0
0001b4 00        	.DB  0x0
0001b5 00        	.DB  0x0
0001b6 00        	.DB  0x0
0001b7 00        	.DB  0x0
0001b8 00        	.DB  0x0
0001b9 00        	.DB  0x0
0001ba 00        	.DB  0x0
0001bb 00        	.DB  0x0
0001bc 00        	.DB  0x0
0001bd 00        	.DB  0x0
0001be 00        	.DB  0x0
0001bf 00        	.DB  0x0
0001c0 00        	.DB  0x0
0001c1 00        	.DB  0x0
0001c2 00        	.DB  0x0
0001c3 00        	.DB  0x0
0001c4 00        	.DB  0x0
0001c5 00        	.DB  0x0
0001c6 00        	.DB  0x0
0001c7 00        	.DB  0x0
0001c8 00        	.DB  0x0
0001c9 00        	.DB  0x0
0001ca 00        	.DB  0x0
0001cb 00        	.DB  0x0
0001cc 00        	.DB  0x0
0001cd 00        	.DB  0x0
0001ce 00        	.DB  0x0
0001cf 00        	.DB  0x0
0001d0 00        	.DB  0x0
0001d1 00        	.DB  0x0
0001d2 00        	.DB  0x0
0001d3 00        	.DB  0x0
0001d4 00        	.DB  0x0
0001d5 00        	.DB  0x0
0001d6 00        	.DB  0x0
0001d7 00        	.DB  0x0
0001d8 00        	.DB  0x0
0001d9 00        	.DB  0x0
0001da 00        	.DB  0x0
0001db 00        	.DB  0x0
0001dc 00        	.DB  0x0
0001dd 00        	.DB  0x0
0001de 00        	.DB  0x0
0001df 00        	.DB  0x0
0001e0 00        	.DB  0x0
0001e1 00        	.DB  0x0
0001e2 00        	.DB  0x0
0001e3 00        	.DB  0x0
0001e4 00        	.DB  0x0
0001e5 00        	.DB  0x0
0001e6 00        	.DB  0x0
0001e7 00        	.DB  0x0
0001e8 00        	.DB  0x0
0001e9 00        	.DB  0x0
0001ea 00        	.DB  0x0
0001eb 00        	.DB  0x0
0001ec 00        	.DB  0x0
0001ed 00        	.DB  0x0
0001ee 00        	.DB  0x0
0001ef 00        	.DB  0x0
0001f0 00        	.DB  0x0
0001f1 00        	.DB  0x0
0001f2 00        	.DB  0x0
0001f3 00        	.DB  0x0
0001f4 00        	.DB  0x0
0001f5 00        	.DB  0x0
0001f6 00        	.DB  0x0
0001f7 00        	.DB  0x0
0001f8 00        	.DB  0x0
0001f9 00        	.DB  0x0
0001fa 00        	.DB  0x0
0001fb 00        	.DB  0x0
0001fc 00        	.DB  0x0
0001fd 00        	.DB  0x0
0001fe 00        	.DB  0x0
0001ff 00        	.DB  0x0
000200 00        	.DB  0x0
000201 00        	.DB  0x0
000202 00        	.DB  0x0
000203 00        	.DB  0x0
000204 00        	.DB  0x0
000205 00        	.DB  0x0
000206 00        	.DB  0x0
000207 00        	.DB  0x0
000208 00        	.DB  0x0
000209 00        	.DB  0x0
00020a 00        	.DB  0x0
00020b 00        	.DB  0x0
00020c 00        	.DB  0x0
00020d 00        	.DB  0x0
00020e 00        	.DB  0x0
00020f 00        	.DB  0x0
000210 00        	.DB  0x0
000211 00        	.DB  0x0
000212 00        	.DB  0x0
000213 00        	.DB  0x0
000214 00        	.DB  0x0
000215 00        	.DB  0x0
000216 00        	.DB  0x0
000217 00        	.DB  0x0
000218 00        	.DB  0x0
000219 00        	.DB  0x0
00021a 00        	.DB  0x0
00021b 00        	.DB  0x0
00021c 00        	.DB  0x0
00021d 00        	.DB  0x0
00021e 00        	.DB  0x0
00021f 00        	.DB  0x0
                 ;      73        {0x03,0xff,0xff,0xff,0xff,0xff,0xff,0xff,
                 ;      74 	0xff,0xff,0xff,0xff,0xff,0xff,0xff,0xff,
                 ;      75 	0xff,0xff,0xff,0xff,0xff,0xff,0xff,0xff}
000220 03        	.DB  0x3
000221 ff        	.DB  0xFF
000222 ff        	.DB  0xFF
000223 ff        	.DB  0xFF
000224 ff        	.DB  0xFF
000225 ff        	.DB  0xFF
000226 ff        	.DB  0xFF
000227 ff        	.DB  0xFF
000228 ff        	.DB  0xFF
000229 ff        	.DB  0xFF
00022a ff        	.DB  0xFF
00022b ff        	.DB  0xFF
00022c ff        	.DB  0xFF
00022d ff        	.DB  0xFF
00022e ff        	.DB  0xFF
00022f ff        	.DB  0xFF
000230 ff        	.DB  0xFF
000231 ff        	.DB  0xFF
000232 ff        	.DB  0xFF
000233 ff        	.DB  0xFF
000234 ff        	.DB  0xFF
000235 ff        	.DB  0xFF
000236 ff        	.DB  0xFF
000237 ff        	.DB  0xFF
                 ;      76 };
                 ;      77 PRBDATA	eeprom rprbdata = {
                 _rprbdata:
                 ;      78        {0.0,0.0,0.0,0.0,0.0,0.0,0.0,0.0,
                 ;      79 	0.0,0.0,0.0,0.0,0.0,0.0,0.0,0.0,
                 ;      80 	0.0,0.0,0.0,0.0,0.0,0.0,0.0,0.0},
000238 00 00     	.DW  0x0
00023a 00 00     	.DW  0x0
00023c 00 00     	.DW  0x0
00023e 00 00     	.DW  0x0
000240 00 00     	.DW  0x0
000242 00 00     	.DW  0x0
000244 00 00     	.DW  0x0
000246 00 00     	.DW  0x0
000248 00 00     	.DW  0x0
00024a 00 00     	.DW  0x0
00024c 00 00     	.DW  0x0
00024e 00 00     	.DW  0x0
000250 00 00     	.DW  0x0
000252 00 00     	.DW  0x0
000254 00 00     	.DW  0x0
000256 00 00     	.DW  0x0
000258 00 00     	.DW  0x0
00025a 00 00     	.DW  0x0
00025c 00 00     	.DW  0x0
00025e 00 00     	.DW  0x0
000260 00 00     	.DW  0x0
000262 00 00     	.DW  0x0
000264 00 00     	.DW  0x0
000266 00 00     	.DW  0x0
000268 00 00     	.DW  0x0
00026a 00 00     	.DW  0x0
00026c 00 00     	.DW  0x0
00026e 00 00     	.DW  0x0
000270 00 00     	.DW  0x0
000272 00 00     	.DW  0x0
000274 00 00     	.DW  0x0
000276 00 00     	.DW  0x0
000278 00 00     	.DW  0x0
00027a 00 00     	.DW  0x0
00027c 00 00     	.DW  0x0
00027e 00 00     	.DW  0x0
000280 00 00     	.DW  0x0
000282 00 00     	.DW  0x0
000284 00 00     	.DW  0x0
000286 00 00     	.DW  0x0
000288 00 00     	.DW  0x0
00028a 00 00     	.DW  0x0
00028c 00 00     	.DW  0x0
00028e 00 00     	.DW  0x0
000290 00 00     	.DW  0x0
000292 00 00     	.DW  0x0
000294 00 00     	.DW  0x0
000296 00 00     	.DW  0x0
                 ;      81 	{0.0,0.0,0.0,0.0,0.0,0.0,0.0,0.0,
                 ;      82 	0.0,0.0,0.0,0.0,0.0,0.0,0.0,0.0,
                 ;      83 	0.0,0.0,0.0,0.0,0.0,0.0,0.0,0.0},
000298 00 00     	.DW  0x0
00029a 00 00     	.DW  0x0
00029c 00 00     	.DW  0x0
00029e 00 00     	.DW  0x0
0002a0 00 00     	.DW  0x0
0002a2 00 00     	.DW  0x0
0002a4 00 00     	.DW  0x0
0002a6 00 00     	.DW  0x0
0002a8 00 00     	.DW  0x0
0002aa 00 00     	.DW  0x0
0002ac 00 00     	.DW  0x0
0002ae 00 00     	.DW  0x0
0002b0 00 00     	.DW  0x0
0002b2 00 00     	.DW  0x0
0002b4 00 00     	.DW  0x0
0002b6 00 00     	.DW  0x0
0002b8 00 00     	.DW  0x0
0002ba 00 00     	.DW  0x0
0002bc 00 00     	.DW  0x0
0002be 00 00     	.DW  0x0
0002c0 00 00     	.DW  0x0
0002c2 00 00     	.DW  0x0
0002c4 00 00     	.DW  0x0
0002c6 00 00     	.DW  0x0
0002c8 00 00     	.DW  0x0
0002ca 00 00     	.DW  0x0
0002cc 00 00     	.DW  0x0
0002ce 00 00     	.DW  0x0
0002d0 00 00     	.DW  0x0
0002d2 00 00     	.DW  0x0
0002d4 00 00     	.DW  0x0
0002d6 00 00     	.DW  0x0
0002d8 00 00     	.DW  0x0
0002da 00 00     	.DW  0x0
0002dc 00 00     	.DW  0x0
0002de 00 00     	.DW  0x0
0002e0 00 00     	.DW  0x0
0002e2 00 00     	.DW  0x0
0002e4 00 00     	.DW  0x0
0002e6 00 00     	.DW  0x0
0002e8 00 00     	.DW  0x0
0002ea 00 00     	.DW  0x0
0002ec 00 00     	.DW  0x0
0002ee 00 00     	.DW  0x0
0002f0 00 00     	.DW  0x0
0002f2 00 00     	.DW  0x0
0002f4 00 00     	.DW  0x0
0002f6 00 00     	.DW  0x0
                 ;      84 	{0.0,0.0,0.0,0.0,0.0,0.0,0.0,0.0,
                 ;      85 	0.0,0.0,0.0,0.0,0.0,0.0,0.0,0.0,
                 ;      86 	0.0,0.0,0.0,0.0,0.0,0.0,0.0,0.0},
0002f8 00 00     	.DW  0x0
0002fa 00 00     	.DW  0x0
0002fc 00 00     	.DW  0x0
0002fe 00 00     	.DW  0x0
000300 00 00     	.DW  0x0
000302 00 00     	.DW  0x0
000304 00 00     	.DW  0x0
000306 00 00     	.DW  0x0
000308 00 00     	.DW  0x0
00030a 00 00     	.DW  0x0
00030c 00 00     	.DW  0x0
00030e 00 00     	.DW  0x0
000310 00 00     	.DW  0x0
000312 00 00     	.DW  0x0
000314 00 00     	.DW  0x0
000316 00 00     	.DW  0x0
000318 00 00     	.DW  0x0
00031a 00 00     	.DW  0x0
00031c 00 00     	.DW  0x0
00031e 00 00     	.DW  0x0
000320 00 00     	.DW  0x0
000322 00 00     	.DW  0x0
000324 00 00     	.DW  0x0
000326 00 00     	.DW  0x0
000328 00 00     	.DW  0x0
00032a 00 00     	.DW  0x0
00032c 00 00     	.DW  0x0
00032e 00 00     	.DW  0x0
000330 00 00     	.DW  0x0
000332 00 00     	.DW  0x0
000334 00 00     	.DW  0x0
000336 00 00     	.DW  0x0
000338 00 00     	.DW  0x0
00033a 00 00     	.DW  0x0
00033c 00 00     	.DW  0x0
00033e 00 00     	.DW  0x0
000340 00 00     	.DW  0x0
000342 00 00     	.DW  0x0
000344 00 00     	.DW  0x0
000346 00 00     	.DW  0x0
000348 00 00     	.DW  0x0
00034a 00 00     	.DW  0x0
00034c 00 00     	.DW  0x0
00034e 00 00     	.DW  0x0
000350 00 00     	.DW  0x0
000352 00 00     	.DW  0x0
000354 00 00     	.DW  0x0
000356 00 00     	.DW  0x0
                 ;      87 	{"11","","","","","","","",
                 ;      88 	"","","","","","","","",
                 ;      89 	"","","","","","","",""},
000358 31        	.DB  0x31
000359 31        	.DB  0x31
00035a 00        	.DB  0x0
00035b 00        	.DB  0x0
00035c 00        	.DB  0x0
00035d 00        	.DB  0x0
00035e 00        	.DB  0x0
00035f 00        	.DB  0x0
000360 00        	.DB  0x0
000361 00        	.DB  0x0
000362 00        	.DB  0x0
000363 00        	.DB  0x0
000364 00        	.DB  0x0
000365 00        	.DB  0x0
000366 00        	.DB  0x0
000367 00        	.DB  0x0
000368 00        	.DB  0x0
000369 00        	.DB  0x0
00036a 00        	.DB  0x0
00036b 00        	.DB  0x0
00036c 00        	.DB  0x0
00036d 00        	.DB  0x0
00036e 00        	.DB  0x0
00036f 00        	.DB  0x0
000370 00        	.DB  0x0
000371 00        	.DB  0x0
000372 00        	.DB  0x0
000373 00        	.DB  0x0
000374 00        	.DB  0x0
000375 00        	.DB  0x0
000376 00        	.DB  0x0
000377 00        	.DB  0x0
000378 00        	.DB  0x0
000379 00        	.DB  0x0
00037a 00        	.DB  0x0
00037b 00        	.DB  0x0
00037c 00        	.DB  0x0
00037d 00        	.DB  0x0
00037e 00        	.DB  0x0
00037f 00        	.DB  0x0
000380 00        	.DB  0x0
000381 00        	.DB  0x0
000382 00        	.DB  0x0
000383 00        	.DB  0x0
000384 00        	.DB  0x0
000385 00        	.DB  0x0
000386 00        	.DB  0x0
000387 00        	.DB  0x0
000388 00        	.DB  0x0
000389 00        	.DB  0x0
00038a 00        	.DB  0x0
00038b 00        	.DB  0x0
00038c 00        	.DB  0x0
00038d 00        	.DB  0x0
00038e 00        	.DB  0x0
00038f 00        	.DB  0x0
000390 00        	.DB  0x0
000391 00        	.DB  0x0
000392 00        	.DB  0x0
000393 00        	.DB  0x0
000394 00        	.DB  0x0
000395 00        	.DB  0x0
000396 00        	.DB  0x0
000397 00        	.DB  0x0
000398 00        	.DB  0x0
000399 00        	.DB  0x0
00039a 00        	.DB  0x0
00039b 00        	.DB  0x0
00039c 00        	.DB  0x0
00039d 00        	.DB  0x0
00039e 00        	.DB  0x0
00039f 00        	.DB  0x0
0003a0 00        	.DB  0x0
0003a1 00        	.DB  0x0
0003a2 00        	.DB  0x0
0003a3 00        	.DB  0x0
0003a4 00        	.DB  0x0
0003a5 00        	.DB  0x0
0003a6 00        	.DB  0x0
0003a7 00        	.DB  0x0
0003a8 00        	.DB  0x0
0003a9 00        	.DB  0x0
0003aa 00        	.DB  0x0
0003ab 00        	.DB  0x0
0003ac 00        	.DB  0x0
0003ad 00        	.DB  0x0
0003ae 00        	.DB  0x0
0003af 00        	.DB  0x0
0003b0 00        	.DB  0x0
0003b1 00        	.DB  0x0
0003b2 00        	.DB  0x0
0003b3 00        	.DB  0x0
0003b4 00        	.DB  0x0
0003b5 00        	.DB  0x0
0003b6 00        	.DB  0x0
0003b7 00        	.DB  0x0
0003b8 00        	.DB  0x0
0003b9 00        	.DB  0x0
0003ba 00        	.DB  0x0
0003bb 00        	.DB  0x0
0003bc 00        	.DB  0x0
0003bd 00        	.DB  0x0
0003be 00        	.DB  0x0
0003bf 00        	.DB  0x0
0003c0 00        	.DB  0x0
0003c1 00        	.DB  0x0
0003c2 00        	.DB  0x0
0003c3 00        	.DB  0x0
0003c4 00        	.DB  0x0
0003c5 00        	.DB  0x0
0003c6 00        	.DB  0x0
0003c7 00        	.DB  0x0
0003c8 00        	.DB  0x0
0003c9 00        	.DB  0x0
0003ca 00        	.DB  0x0
0003cb 00        	.DB  0x0
0003cc 00        	.DB  0x0
0003cd 00        	.DB  0x0
0003ce 00        	.DB  0x0
0003cf 00        	.DB  0x0
0003d0 00        	.DB  0x0
0003d1 00        	.DB  0x0
0003d2 00        	.DB  0x0
0003d3 00        	.DB  0x0
0003d4 00        	.DB  0x0
0003d5 00        	.DB  0x0
0003d6 00        	.DB  0x0
0003d7 00        	.DB  0x0
0003d8 00        	.DB  0x0
0003d9 00        	.DB  0x0
0003da 00        	.DB  0x0
0003db 00        	.DB  0x0
0003dc 00        	.DB  0x0
0003dd 00        	.DB  0x0
0003de 00        	.DB  0x0
0003df 00        	.DB  0x0
0003e0 00        	.DB  0x0
0003e1 00        	.DB  0x0
0003e2 00        	.DB  0x0
0003e3 00        	.DB  0x0
0003e4 00        	.DB  0x0
0003e5 00        	.DB  0x0
0003e6 00        	.DB  0x0
0003e7 00        	.DB  0x0
0003e8 00        	.DB  0x0
0003e9 00        	.DB  0x0
0003ea 00        	.DB  0x0
0003eb 00        	.DB  0x0
0003ec 00        	.DB  0x0
0003ed 00        	.DB  0x0
0003ee 00        	.DB  0x0
0003ef 00        	.DB  0x0
0003f0 00        	.DB  0x0
0003f1 00        	.DB  0x0
0003f2 00        	.DB  0x0
0003f3 00        	.DB  0x0
0003f4 00        	.DB  0x0
0003f5 00        	.DB  0x0
0003f6 00        	.DB  0x0
0003f7 00        	.DB  0x0
0003f8 00        	.DB  0x0
0003f9 00        	.DB  0x0
0003fa 00        	.DB  0x0
0003fb 00        	.DB  0x0
0003fc 00        	.DB  0x0
0003fd 00        	.DB  0x0
0003fe 00        	.DB  0x0
0003ff 00        	.DB  0x0
000400 00        	.DB  0x0
000401 00        	.DB  0x0
000402 00        	.DB  0x0
000403 00        	.DB  0x0
000404 00        	.DB  0x0
000405 00        	.DB  0x0
000406 00        	.DB  0x0
000407 00        	.DB  0x0
000408 00        	.DB  0x0
000409 00        	.DB  0x0
00040a 00        	.DB  0x0
00040b 00        	.DB  0x0
00040c 00        	.DB  0x0
00040d 00        	.DB  0x0
00040e 00        	.DB  0x0
00040f 00        	.DB  0x0
000410 00        	.DB  0x0
000411 00        	.DB  0x0
000412 00        	.DB  0x0
000413 00        	.DB  0x0
000414 00        	.DB  0x0
000415 00        	.DB  0x0
000416 00        	.DB  0x0
000417 00        	.DB  0x0
                 ;      90        {0x03,0xff,0xff,0xff,0xff,0xff,0xff,0xff,
                 ;      91 	0xff,0xff,0xff,0xff,0xff,0xff,0xff,0xff,
                 ;      92 	0xff,0xff,0xff,0xff,0xff,0xff,0xff,0xff}
000418 03        	.DB  0x3
000419 ff        	.DB  0xFF
00041a ff        	.DB  0xFF
00041b ff        	.DB  0xFF
00041c ff        	.DB  0xFF
00041d ff        	.DB  0xFF
00041e ff        	.DB  0xFF
00041f ff        	.DB  0xFF
000420 ff        	.DB  0xFF
000421 ff        	.DB  0xFF
000422 ff        	.DB  0xFF
000423 ff        	.DB  0xFF
000424 ff        	.DB  0xFF
000425 ff        	.DB  0xFF
000426 ff        	.DB  0xFF
000427 ff        	.DB  0xFF
000428 ff        	.DB  0xFF
000429 ff        	.DB  0xFF
00042a ff        	.DB  0xFF
00042b ff        	.DB  0xFF
00042c ff        	.DB  0xFF
00042d ff        	.DB  0xFF
00042e ff        	.DB  0xFF
00042f ff        	.DB  0xFF
                 ;      93 };
                 ;      94 
                 ;      95 char  strbuf[50];        //buffer for menu display
                 
                 	.DSEG
                 _strbuf:
0005c8           	.BYTE 0x32
                 ;      96 uchar key;
                 ;      97 
                 ;      98 
                 ;      99 
                 ;     100 LABEL flash bootup = {LBL_HZ16,30,30,7,"..."};
                 
                 	.CSEG
                 ;     101 LABEL flash modify = {LBL_HZ16,30,30,8,"..."};
                 ;     102 
                 ;     103 LABEL flash lbldbg = {LBL_HZ6X8,10,30,8,strbuf};
                 ;     104 
                 ;     105 uchar nextwin = 0;
                 ;     106 
                 ;     107 int   curr_ch = 1;	//index of current channel in config menu window, 1 based
                 
                 	.DSEG
                 ;     108 int   curr_prb = 1;	//index of current probe selection in menu window 1 based
                 ;     109 int   curr_dispch = 1;  //index of start channel in main running window, 1 based
                 ;     110 int ch_to_search = 0;   //current channel , 0 based
                 ;     111 
                 ;     112 unsigned long dlg_cnt = 0;        //delay count time display
                 _dlg_cnt:
0005fa           	.BYTE 0x4
                 ;     113 unsigned long onesec_cnt = 0;
                 _onesec_cnt:
0005fe           	.BYTE 0x4
                 ;     114 uchar phase = 0;       //state machine index
                 _phase:
000602           	.BYTE 0x1
                 ;     115 double valuep;
                 _valuep:
000603           	.BYTE 0x4
                 ;     116 
                 ;     117 /**************************************************************************************/
                 ;     118 //                      Timer 1 overflow interrupt service routine
                 ;     119 /**************************************************************************************/
                 ;     120 interrupt [TIM1_OVF] void timer1_ovf_isr(void)
                 ;     121 {
                 
                 	.CSEG
                 _timer1_ovf_isr:
                 ;     122 // Place your flash here
                 ;     123 }
0006bd 9518      	RETI
                 ;     124 void dbgout(double val)
                 ;     125 {
                 _dbgout:
                 ;     126         sprintf(strbuf,"%f\r\n",val);
                 ;	val -> Y+0
0006be 940e 263b 	CALL SUBOPT_0x0
0006c0 eee0
0006c1 e0f7      	__POINTW1FN _0,28
0006c2 93fa      	ST   -Y,R31
0006c3 93ea      	ST   -Y,R30
0006c4 940e 2640 	CALL SUBOPT_0x1
0006c6 940e 2645 	CALL SUBOPT_0x2
                 ;     127         prints(strbuf,strlen(strbuf),PORT_PC);
0006c8 940e 263b 	CALL SUBOPT_0x0
0006ca 940e 264c 	CALL SUBOPT_0x3
                 ;     128 }
0006cc c032      	RJMP _0x498
                 ;     129 void InitLED()
                 ;     130 {
                 _InitLED:
                 ;     131 /*
                 ;     132     PORTB.7=1;
                 ;     133     PORTB.6=1;
                 ;     134     PORTB.5=1;
                 ;     135     PORTB.4=1;
                 ;     136     PORTD.7=1;
                 ;     137     PORTD.6=0;
                 ;     138 */
                 ;     139 }
0006cd 9508      	RET
                 ;     140 uchar nav1v = 1;
                 
                 	.DSEG
                 _nav1v:
000607           	.BYTE 0x1
                 ;     141 void navto120mv()
                 ;     142 {
                 
                 	.CSEG
                 _navto120mv:
                 ;     143    nav1v = 0;
0006ce e0e0      	LDI  R30,LOW(0)
0006cf 93e0 0607 	STS  _nav1v,R30
                 ;     144    dbgout(-0.12);
0006d1 e8ef
0006d2 ecf2
0006d3 ef65
0006d4 eb7d      	__GETD1N 0xBDF5C28F
0006d5 940e 2653 	CALL SUBOPT_0x4
                 ;     145    nav_command(NAV_120MV);
0006d7 e0e4      	LDI  R30,LOW(4)
0006d8 940e 2657 	CALL SUBOPT_0x5
                 ;     146    sleepms(20000);
                 ;     147 }
0006da 9508      	RET
                 ;     148 
                 ;     149 void navto1v()
                 ;     150 {
                 _navto1v:
                 ;     151     nav1v = 1;
0006db e0e1      	LDI  R30,LOW(1)
0006dc 93e0 0607 	STS  _nav1v,R30
                 ;     152     dbgout(-1.0);
0006de e0e0
0006df e0f0
0006e0 e860
0006e1 eb7f      	__GETD1N 0xBF800000
0006e2 940e 2653 	CALL SUBOPT_0x4
                 ;     153     nav_command(NAV_INIT);
0006e4 e0e1      	LDI  R30,LOW(1)
0006e5 940e 2657 	CALL SUBOPT_0x5
                 ;     154     sleepms(20000);
                 ;     155     nav_command(NAV_1V);
0006e7 e0e3      	LDI  R30,LOW(3)
0006e8 940e 2657 	CALL SUBOPT_0x5
                 ;     156     sleepms(20000);
                 ;     157     nav_command(NAV_SLOWMODE);
0006ea e0e7      	LDI  R30,LOW(7)
0006eb 940e 2657 	CALL SUBOPT_0x5
                 ;     158     sleepms(20000);
                 ;     159     nav_command(NAV_AFLTON);
0006ed e0e6      	LDI  R30,LOW(6)
0006ee 940e 2657 	CALL SUBOPT_0x5
                 ;     160     sleepms(20000);
                 ;     161 }
0006f0 9508      	RET
                 ;     162 double mabs(double val)
                 ;     163 {
                 _mabs:
                 ;     164         if(val < 0)
                 ;	val -> Y+0
0006f1 81a8
0006f2 81b9
0006f3 818a
0006f4 819b      	__GETD2S 0
0006f5 940e 3262 	CALL __CPD20
0006f7 f42c      	BRGE _0x9
                 ;     165                 return -val;
0006f8 940e 2660 	CALL SUBOPT_0x6
0006fa 940e 30b3 	CALL __ANEGF1
0006fc c002      	RJMP _0x498
                 ;     166         else
                 _0x9:
                 ;     167                 return val;
0006fd 940e 2660 	CALL SUBOPT_0x6
                 ;     168 }
                 _0x498:
0006ff 9624      	ADIW R28,4
000700 9508      	RET
                 ;     169 u8 ToByte(char l, char h)
                 ;     170 {
                 ;     171 	h = (h > 'A')?(h-'A'+0x0A):(h-'0');
                 ;	l -> Y+1
                 ;	h -> Y+0
                 ;     172 	l = (l > 'A')?(l-'A'+0x0A):(l-'0');
                 ;     173 	return (h<<4)|l;
                 ;     174 }
                 ;     175 
                 ;     176 /**************************************************************************************/
                 ;     177 //                              Global Variable
                 ;     178 /**************************************************************************************/
                 ;     179 
                 ;     180 /**************************************************************************************/
                 ;     181 //                               Watchdog
                 ;     182 // Enable watchdog timer.
                 ;     183 // Timeout limit WDTCR[2:0]:
                 ;     184 // 000 - 16.3ms    001 - 32.5ms    010 - 65ms    011 - 0.13s
                 ;     185 // 100 - 0.26ms    101 - 0.52s     110 - 1.0s    111 - 2.1s
                 ;     186 /**************************************************************************************/
                 ;     187 #define WDCE 4
                 ;     188 #define WDE  3
                 ;     189 
                 ;     190 
                 ;     191 
                 ;     192 void Turn_on_Watchdog()
                 ;     193 {
                 ;     194   #asm("cli")
                 ;     195   #asm("wdr")                    // reset watchdog timer to avoid timeout reset
                 ;     196   WDTCR |= (1<<WDCE) | (1<<WDE); // set WDCE and WDE bit
                 ;     197   WDTCR = 0x08;                  // turn on watch dog timer: WDE = 1, WDP = 000, 16.3ms.
                 ;     198   #asm("sei")                    // Enable global interrupt.
                 ;     199 }
                 ;     200 
                 ;     201 char namebuf[8];
                 
                 	.DSEG
                 _namebuf:
000608           	.BYTE 0x8
                 ;     202 char* tname2b(u8 i)
                 ;     203 {
                 
                 	.CSEG
                 _tname2b:
                 ;     204         u8 j=0;
                 ;     205         for(j=0;j<8;j++)
000701 931a      	ST   -Y,R17
                 ;	i -> Y+1
                 ;	j -> R17
000702 e010      	LDI  R17,0
000703 e010      	LDI  R17,LOW(0)
                 _0x12:
000704 3018      	CPI  R17,8
000705 f530      	BRSH _0x13
                 ;     206         {
                 ;     207             namebuf[j] = tprbdata.name[i][j];
000706 940e 2665 	CALL SUBOPT_0x7
000708 010f      	MOVW R0,R30
000709 e6a0
00070a e0b1      	__POINTW2MN _tprbdata,288
00070b 940e 266a 	CALL SUBOPT_0x8
                 ;     208             if(namebuf[j] == '\0')
00070d 81e0      	LD   R30,Z
00070e 30e0      	CPI  R30,0
00070f f0e1      	BREQ _0x13
                 ;     209                 break;
                 ;     210 
                 ;     211             if((namebuf[j] >= '0' && namebuf[j] <= '9') || (namebuf[j] >= 'A' && namebuf[j] <= 'Z'))
000710 940e 2665 	CALL SUBOPT_0x7
000712 81e0      	LD   R30,Z
000713 33e0      	CPI  R30,LOW(0x30)
000714 f028      	BRLO _0x16
000715 940e 2665 	CALL SUBOPT_0x7
000717 81e0      	LD   R30,Z
000718 33ea      	CPI  R30,LOW(0x3A)
000719 f058      	BRLO _0x18
                 _0x16:
00071a 940e 2665 	CALL SUBOPT_0x7
00071c 81e0      	LD   R30,Z
00071d 34e1      	CPI  R30,LOW(0x41)
00071e f028      	BRLO _0x19
00071f 940e 2665 	CALL SUBOPT_0x7
000721 81e0      	LD   R30,Z
000722 35eb      	CPI  R30,LOW(0x5B)
000723 f008      	BRLO _0x18
                 _0x19:
000724 c001      	RJMP _0x15
                 _0x18:
                 ;     212                 continue;
000725 c004      	RJMP _0x11
                 ;     213             namebuf[0] = '\0';
                 _0x15:
000726 e0e0      	LDI  R30,LOW(0)
000727 93e0 0608 	STS  _namebuf,R30
                 ;     214             break;
000729 c002      	RJMP _0x13
                 ;     215         }
                 _0x11:
00072a 5f1f      	SUBI R17,-1
00072b cfd8      	RJMP _0x12
                 _0x13:
                 ;     216         return namebuf;
00072c e0e8      	LDI  R30,LOW(_namebuf)
00072d e0f6      	LDI  R31,HIGH(_namebuf)
00072e 8118      	LDD  R17,Y+0
00072f c038      	RJMP _0x497
                 ;     217 }
                 ;     218 
                 ;     219 char* rname2b(u8 i)
                 ;     220 {
                 _rname2b:
                 ;     221         u8 j=0;
                 ;     222         for(j=0;j<8;j++)
000730 931a      	ST   -Y,R17
                 ;	i -> Y+1
                 ;	j -> R17
000731 e010      	LDI  R17,0
000732 e010      	LDI  R17,LOW(0)
                 _0x1D:
000733 3018      	CPI  R17,8
000734 f530      	BRSH _0x1E
                 ;     223         {
                 ;     224             namebuf[j] = rprbdata.name[i][j];
000735 940e 2665 	CALL SUBOPT_0x7
000737 010f      	MOVW R0,R30
000738 e5a8
000739 e0b3      	__POINTW2MN _rprbdata,288
00073a 940e 266a 	CALL SUBOPT_0x8
                 ;     225             if(namebuf[j] == '\0')
00073c 81e0      	LD   R30,Z
00073d 30e0      	CPI  R30,0
00073e f0e1      	BREQ _0x1E
                 ;     226                 break;
                 ;     227 
                 ;     228             if((namebuf[j] >= '0' && namebuf[j] <= '9') || (namebuf[j] >= 'A' && namebuf[j] <= 'Z'))
00073f 940e 2665 	CALL SUBOPT_0x7
000741 81e0      	LD   R30,Z
000742 33e0      	CPI  R30,LOW(0x30)
000743 f028      	BRLO _0x21
000744 940e 2665 	CALL SUBOPT_0x7
000746 81e0      	LD   R30,Z
000747 33ea      	CPI  R30,LOW(0x3A)
000748 f058      	BRLO _0x23
                 _0x21:
000749 940e 2665 	CALL SUBOPT_0x7
00074b 81e0      	LD   R30,Z
00074c 34e1      	CPI  R30,LOW(0x41)
00074d f028      	BRLO _0x24
00074e 940e 2665 	CALL SUBOPT_0x7
000750 81e0      	LD   R30,Z
000751 35eb      	CPI  R30,LOW(0x5B)
000752 f008      	BRLO _0x23
                 _0x24:
000753 c001      	RJMP _0x20
                 _0x23:
                 ;     229                 continue;
000754 c004      	RJMP _0x1C
                 ;     230             namebuf[0] = '\0';
                 _0x20:
000755 e0e0      	LDI  R30,LOW(0)
000756 93e0 0608 	STS  _namebuf,R30
                 ;     231             break;
000758 c002      	RJMP _0x1E
                 ;     232         }
                 _0x1C:
000759 5f1f      	SUBI R17,-1
00075a cfd8      	RJMP _0x1D
                 _0x1E:
                 ;     233         return namebuf;
00075b e0e8      	LDI  R30,LOW(_namebuf)
00075c e0f6      	LDI  R31,HIGH(_namebuf)
00075d 8118      	LDD  R17,Y+0
00075e c009      	RJMP _0x497
                 ;     234 }
                 ;     235 void sleepms(u16 ms)
                 ;     236 {
                 _sleepms:
                 ;     237     while(ms-- > 0)
                 ;	ms -> Y+0
                 _0x27:
00075f 81a8      	LD   R26,Y
000760 81b9      	LDD  R27,Y+1
000761 9711      	SBIW R26,1
000762 83a8      	ST   Y,R26
000763 83b9      	STD  Y+1,R27
000764 9611      	ADIW R26,1
000765 940e 325e 	CALL __CPW02
000767 f3b8      	BRLO _0x27
                 ;     238         ;
                 ;     239 }
                 _0x497:
000768 9622      	ADIW R28,2
000769 9508      	RET
                 ;     240 
                 ;     241 
                 ;     242 /**************************************************************************************/
                 ;     243 //      board init related function.
                 ;     244 /**************************************************************************************/
                 ;     245 void init_var()
                 ;     246 {
                 _init_var:
                 ;     247 }
00076a 9508      	RET
                 ;     248 //state machine of therm type
                 ;     249 //phase 0 : search the current channel and switch to it if apply, add delay, to phase 1, otherwise to phase 2
                 ;     250 //phase 1:get the reading and update the display
                 ;     251 //phase 2: move to next channel
                 ;     252 uchar therm_state()
                 ;     253 {
                 _therm_state:
                 ;     254         uchar i;
                 ;     255 	i = sysdata.tid[ch_to_search];
00076b 931a      	ST   -Y,R17
                 ;	i -> R17
00076c e0ee
00076d e0f0      	__POINTW1MN _sysdata,14
00076e 940e 2678 	CALL SUBOPT_0x9
                 ;     256 	if(i == INVALID_PROBE)
000770 f411      	BRNE _0x2A
                 ;     257 	{
                 ;     258         	rundata.temperature[ch_to_search] = -9999;
000771 940e 2680 	CALL SUBOPT_0xA
                 ;     259         	phase = 2;
                 ;     260 	}
                 ;     261 	if(phase == 0)
                 _0x2A:
000773 91e0 0602 	LDS  R30,_phase
000775 30e0      	CPI  R30,0
000776 f4b1      	BRNE _0x2B
                 ;     262 	{
                 ;     263 		if( (tprbdata.type[i] >= PRBTYPE_K) && (tprbdata.type[i] <= PRBTYPE_R))
000777 940e 2691 	CALL SUBOPT_0xB
000779 30e3      	CPI  R30,LOW(0x3)
00077a f020      	BRLO _0x2D
00077b 940e 2691 	CALL SUBOPT_0xB
00077d 30ea      	CPI  R30,LOW(0xA)
00077e f008      	BRLO _0x2E
                 _0x2D:
00077f c00b      	RJMP _0x2C
                 _0x2E:
                 ;     264 		{
                 ;     265 			scanner_set_channel(ch_to_search+1);
000780 940e 2699 	CALL SUBOPT_0xC
                 ;     266 			dlg_cnt = ONESEC;
000782 940e 269e 	CALL SUBOPT_0xD
000784 940e 26a3 	CALL SUBOPT_0xE
                 ;     267 			onesec_cnt = 0;
                 ;     268 			phase = 1;
000786 e0e1      	LDI  R30,LOW(1)
000787 93e0 0602 	STS  _phase,R30
                 ;     269 			return 0;
000789 e0e0      	LDI  R30,LOW(0)
00078a c1ad      	RJMP _0x496
                 ;     270 		}else{
                 _0x2C:
                 ;     271 			rundata.temperature[ch_to_search] = -9999; //invalid data
00078b 940e 2680 	CALL SUBOPT_0xA
                 ;     272 			phase = 2;
                 ;     273 		}
                 ;     274 	}
                 ;     275 	if(phase == 1)
                 _0x2B:
00078d 91a0 0602 	LDS  R26,_phase
00078f 30a1      	CPI  R26,LOW(0x1)
000790 f5e1      	BRNE _0x30
                 ;     276 	{
                 ;     277 		rundata.reading[ch_to_search] = nav_read();//-sysdata.V0;
000791 940e 26b5 	CALL SUBOPT_0xF
000793 0fea      	ADD  R30,R26
000794 1ffb      	ADC  R31,R27
000795 93ff      	PUSH R31
000796 93ef      	PUSH R30
000797 940e 13a9 	CALL _nav_read
000799 91af      	POP  R26
00079a 91bf      	POP  R27
00079b 940e 303a 	CALL __PUTDP1
                 ;     278                 sprintf(strbuf,"%2d;%f;",ch_to_search+1,rundata.reading[ch_to_search]);
00079d 940e 263b 	CALL SUBOPT_0x0
00079f 940e 26bb 	CALL SUBOPT_0x10
0007a1 940e 26b5 	CALL SUBOPT_0xF
0007a3 940e 26c6 	CALL SUBOPT_0x11
0007a5 940e 26cd 	CALL SUBOPT_0x12
                 ;     279                 prints(strbuf,strlen(strbuf),PORT_PC);
0007a7 940e 263b 	CALL SUBOPT_0x0
0007a9 940e 264c 	CALL SUBOPT_0x3
                 ;     280 
                 ;     281 		rundata.temperature[ch_to_search] = MValueToTValue(rundata.reading[ch_to_search], tprbdata.type[i]);
0007ab 940e 26d2 	CALL SUBOPT_0x13
0007ad 0fea      	ADD  R30,R26
0007ae 1ffb      	ADC  R31,R27
0007af 93ff      	PUSH R31
0007b0 93ef      	PUSH R30
0007b1 940e 26b5 	CALL SUBOPT_0xF
0007b3 940e 26c6 	CALL SUBOPT_0x11
0007b5 940e 2691 	CALL SUBOPT_0xB
0007b7 93ea      	ST   -Y,R30
0007b8 940e 1168 	CALL _MValueToTValue
0007ba 91af      	POP  R26
0007bb 91bf      	POP  R27
0007bc 940e 303a 	CALL __PUTDP1
                 ;     282 //		if(ch_to_search==1) 		     rundata.temperature[ch_to_search] = 10;
                 ;     283                 sprintf(strbuf,"%f;\r\n",rundata.temperature[ch_to_search]);
0007be 940e 263b 	CALL SUBOPT_0x0
0007c0 940e 26d8 	CALL SUBOPT_0x14
0007c2 940e 26dd 	CALL SUBOPT_0x15
0007c4 940e 2645 	CALL SUBOPT_0x2
                 ;     284                 prints(strbuf,strlen(strbuf),PORT_PC);
0007c6 940e 263b 	CALL SUBOPT_0x0
0007c8 940e 264c 	CALL SUBOPT_0x3
                 ;     285 		phase = 2;
0007ca e0e2      	LDI  R30,LOW(2)
0007cb 93e0 0602 	STS  _phase,R30
                 ;     286 	}
                 ;     287 	if(phase == 2)
                 _0x30:
0007cd 91a0 0602 	LDS  R26,_phase
0007cf 30a2      	CPI  R26,LOW(0x2)
0007d0 f411      	BRNE _0x31
                 ;     288 	{
                 ;     289 		pgmain_handler(MSG_REFRESH);
0007d1 940e 26e2 	CALL SUBOPT_0x16
                 ;     290 		phase = 0;
                 ;     291 	}
                 ;     292 	return 1;       //one reading is updated
                 _0x31:
0007d3 e0e1      	LDI  R30,LOW(1)
0007d4 c163      	RJMP _0x496
                 ;     293 }
                 ;     294 //state machine of bore measure
                 ;     295 //phase0 the search the current channel and switch to it if apply, switch to rs, pktt, add delay, if not ktt to phase 2 else to phase 1, otherwise to phase n
                 ;     296 //phase1 get reading of rs+, set to nktt, add delay
                 ;     297 //phase2 get reading of rs-, switch to rx, add delay, if  ktt to phase 3 else to phase 4
                 ;     298 //phase3 get reading of rx-, set to pktt, add delay
                 ;     299 //phase4 get reading of rx+, switch to rx, caculate
                 ;     300 //phase5 update display and move to next channel
                 ;     301 uchar bore_state()
                 ;     302 {
                 _bore_state:
                 ;     303         uchar i;
                 ;     304 	i = sysdata.rid[ch_to_search];
0007d5 931a      	ST   -Y,R17
                 ;	i -> R17
0007d6 e2e6
0007d7 e0f0      	__POINTW1MN _sysdata,38
0007d8 940e 2678 	CALL SUBOPT_0x9
                 ;     305 	if(i == INVALID_PROBE)
0007da f421      	BRNE _0x32
                 ;     306 	{
                 ;     307         	rundata.temperature[ch_to_search] = -9999;
0007db 940e 26d2 	CALL SUBOPT_0x13
0007dd 940e 26ea 	CALL SUBOPT_0x17
                 ;     308         	phase = 5;
                 ;     309 	}
                 ;     310 	if(phase == 0)
                 _0x32:
0007df 91e0 0602 	LDS  R30,_phase
0007e1 30e0      	CPI  R30,0
0007e2 f4f9      	BRNE _0x33
                 ;     311 	{
                 ;     312 		if((rprbdata.type[i] <= PRBTYPE_PT25) && (rprbdata.type[i] >= PRBTYPE_PT100))
0007e3 940e 26f6 	CALL SUBOPT_0x18
0007e5 3fe3      	CPI  R30,LOW(0xF3)
0007e6 f420      	BRSH _0x35
0007e7 940e 26f6 	CALL SUBOPT_0x18
0007e9 3fe1      	CPI  R30,LOW(0xF1)
0007ea f408      	BRSH _0x36
                 _0x35:
0007eb c012      	RJMP _0x34
                 _0x36:
                 ;     313 		{
                 ;     314 			scanner_set_channel(ch_to_search+1);
0007ec 940e 2699 	CALL SUBOPT_0xC
                 ;     315 			SET_PKTT;
0007ee 940e 26fe 	CALL SUBOPT_0x19
                 ;     316 			SET_TORS;
0007f0 940e 2704 	CALL SUBOPT_0x1A
                 ;     317 			dlg_cnt =  ONESEC * sysdata.ktime;
0007f2 940e 270a 	CALL SUBOPT_0x1B
                 ;     318 			onesec_cnt = 0;
                 ;     319 			if(IS_MODE_KTT)
0007f4 940e 2717 	CALL SUBOPT_0x1C
0007f6 f411      	BRNE _0x37
                 ;     320 				phase = 1;
0007f7 e0e1      	LDI  R30,LOW(1)
0007f8 c001      	RJMP _0x499
                 ;     321 			else
                 _0x37:
                 ;     322 				phase = 2;
0007f9 e0e2      	LDI  R30,LOW(2)
                 _0x499:
0007fa 93e0 0602 	STS  _phase,R30
                 ;     323        			return 0;
0007fc e0e0      	LDI  R30,LOW(0)
0007fd c13a      	RJMP _0x496
                 ;     324 		}else{
                 _0x34:
                 ;     325 			rundata.temperature[ch_to_search] = -9999;
0007fe 940e 26d2 	CALL SUBOPT_0x13
000800 940e 26ea 	CALL SUBOPT_0x17
                 ;     326 			phase = 5;
                 ;     327 		}
                 ;     328 
                 ;     329 	}
                 ;     330 	if(phase == 1)  //-stdV in ktt mode
                 _0x33:
000802 91a0 0602 	LDS  R26,_phase
000804 30a1      	CPI  R26,LOW(0x1)
000805 f471      	BRNE _0x3A
                 ;     331 	{
                 ;     332 		rundata.stdV = mabs(nav_read());
000806 940e 271d 	CALL SUBOPT_0x1D
000808 940e 2723 	CALL SUBOPT_0x1E
                 ;     333 		SET_NKTT;
00080a e6e9      	LDI  R30,LOW(105)
00080b 940e 272c 	CALL SUBOPT_0x1F
                 ;     334 		dlg_cnt =  ONESEC * sysdata.ktime;
00080d 940e 270a 	CALL SUBOPT_0x1B
                 ;     335 		onesec_cnt = 0;
                 ;     336 		phase = 2;
00080f e0e2      	LDI  R30,LOW(2)
000810 93e0 0602 	STS  _phase,R30
                 ;     337 		return 0;
000812 e0e0      	LDI  R30,LOW(0)
000813 c124      	RJMP _0x496
                 ;     338 	}
                 ;     339 	if(phase == 2) //final stdV
                 _0x3A:
000814 91a0 0602 	LDS  R26,_phase
000816 30a2      	CPI  R26,LOW(0x2)
000817 f501      	BRNE _0x3B
                 ;     340 	{
                 ;     341 		if(IS_MODE_KTT)
000818 940e 2717 	CALL SUBOPT_0x1C
00081a f481      	BRNE _0x3C
                 ;     342 		{
                 ;     343 			rundata.stdV = (rundata.stdV + mabs(nav_read()));
00081b 940e 271d 	CALL SUBOPT_0x1D
00081d 91a0 05c4
00081f 91b0 05c5
000821 9180 05c6
000823 9190 05c7 	__GETD2MN _rundata,196
000825 940e 3159 	CALL __ADDF12
000827 940e 2723 	CALL SUBOPT_0x1E
                 ;     344 			phase = 3;
000829 e0e3      	LDI  R30,LOW(3)
00082a c005      	RJMP _0x49A
                 ;     345 		}else{
                 _0x3C:
                 ;     346 			rundata.stdV = mabs(nav_read());
00082b 940e 271d 	CALL SUBOPT_0x1D
00082d 940e 2723 	CALL SUBOPT_0x1E
                 ;     347 			phase = 4;
00082f e0e4      	LDI  R30,LOW(4)
                 _0x49A:
000830 93e0 0602 	STS  _phase,R30
                 ;     348 		}
                 ;     349 		SET_TORX;
000832 940e 2731 	CALL SUBOPT_0x20
                 ;     350 		dlg_cnt = ONESEC * sysdata.ktime;
000834 940e 270a 	CALL SUBOPT_0x1B
                 ;     351 		onesec_cnt = 0;
                 ;     352 		return 0;
000836 e0e0      	LDI  R30,LOW(0)
000837 c100      	RJMP _0x496
                 ;     353 	}
                 ;     354 	if(phase == 3)  //-V on rx in ktt mode
                 _0x3B:
000838 91a0 0602 	LDS  R26,_phase
00083a 30a3      	CPI  R26,LOW(0x3)
00083b f469      	BRNE _0x3E
                 ;     355 	{
                 ;     356 		valuep = mabs(nav_read());
00083c 940e 271d 	CALL SUBOPT_0x1D
00083e 940e 2737 	CALL SUBOPT_0x21
                 ;     357 		SET_PKTT;
000840 940e 26fe 	CALL SUBOPT_0x19
                 ;     358 		dlg_cnt = ONESEC * sysdata.ktime;
000842 940e 270a 	CALL SUBOPT_0x1B
                 ;     359 		onesec_cnt = 0;
                 ;     360 		phase = 4;
000844 e0e4      	LDI  R30,LOW(4)
000845 93e0 0602 	STS  _phase,R30
                 ;     361 		return 0;
000847 e0e0      	LDI  R30,LOW(0)
000848 c0ef      	RJMP _0x496
                 ;     362 	}
                 ;     363 	if(phase == 4) // final V on rx
                 _0x3E:
000849 91a0 0602 	LDS  R26,_phase
00084b 30a4      	CPI  R26,LOW(0x4)
00084c f011      	BREQ PC+3
00084d 940c 0931 	JMP _0x3F
                 ;     364 	{
                 ;     365 		if(IS_MODE_KTT){
00084f 940e 2717 	CALL SUBOPT_0x1C
000851 f5e9      	BRNE _0x40
                 ;     366 			valuep = (valuep + mabs(nav_read()));
000852 940e 271d 	CALL SUBOPT_0x1D
000854 940e 2740 	CALL SUBOPT_0x22
000856 940e 3159 	CALL __ADDF12
000858 940e 2737 	CALL SUBOPT_0x21
                 ;     367 			dbgout(valuep);
00085a 91e0 0603 	LDS  R30,_valuep
00085c 91f0 0604 	LDS  R31,_valuep+1
00085e 9160 0605 	LDS  R22,_valuep+2
000860 9170 0606 	LDS  R23,_valuep+3
000862 940e 2653 	CALL SUBOPT_0x4
                 ;     368 			if((valuep > 0.21) && (valuep < 2) && (nav1v == 0))
000864 940e 2749 	CALL SUBOPT_0x23
000866 f009      	BREQ PC+2
000867 f410      	BRCC PC+3
000868 940c 0875 	JMP  _0x42
00086a 940e 2740 	CALL SUBOPT_0x22
00086c 940e 2751 	CALL SUBOPT_0x24
00086e 940e 323a 	CALL __CMPF12
000870 f420      	BRSH _0x42
000871 91a0 0607 	LDS  R26,_nav1v
000873 30a0      	CPI  R26,LOW(0x0)
000874 f009      	BREQ _0x43
                 _0x42:
000875 c002      	RJMP _0x41
                 _0x43:
                 ;     369 			{
                 ;     370         		        navto1v();
000876 940e 06db 	CALL _navto1v
                 ;     371 			}
                 ;     372 			if((valuep < 0.21) && (valuep > 0.0002) && (nav1v == 1))
                 _0x41:
000878 940e 2749 	CALL SUBOPT_0x23
00087a f480      	BRSH _0x45
00087b 940e 2740 	CALL SUBOPT_0x22
00087d e1e7
00087e ebf7
00087f e561
000880 e379      	__GETD1N 0x3951B717
000881 940e 323a 	CALL __CMPF12
000883 f009      	BREQ PC+2
000884 f410      	BRCC PC+3
000885 940c 088b 	JMP  _0x45
000887 91a0 0607 	LDS  R26,_nav1v
000889 30a1      	CPI  R26,LOW(0x1)
00088a f009      	BREQ _0x46
                 _0x45:
00088b c002      	RJMP _0x44
                 _0x46:
                 ;     373 			{
                 ;     374 			        navto120mv();
00088c 940e 06ce 	CALL _navto120mv
                 ;     375 			}
                 ;     376 		}else{
                 _0x44:
00088e c02e      	RJMP _0x47
                 _0x40:
                 ;     377 			valuep = mabs(nav_read());
00088f 940e 271d 	CALL SUBOPT_0x1D
000891 940e 2737 	CALL SUBOPT_0x21
                 ;     378 			if((valuep > 0.105) && (valuep < 1) && (nav1v == 0))
000893 940e 2756 	CALL SUBOPT_0x25
000895 f009      	BREQ PC+2
000896 f410      	BRCC PC+3
000897 940c 08a4 	JMP  _0x49
000899 940e 2740 	CALL SUBOPT_0x22
00089b 940e 275e 	CALL SUBOPT_0x26
00089d 940e 323a 	CALL __CMPF12
00089f f420      	BRSH _0x49
0008a0 91a0 0607 	LDS  R26,_nav1v
0008a2 30a0      	CPI  R26,LOW(0x0)
0008a3 f009      	BREQ _0x4A
                 _0x49:
0008a4 c002      	RJMP _0x48
                 _0x4A:
                 ;     379 			{
                 ;     380         		        navto1v();
0008a5 940e 06db 	CALL _navto1v
                 ;     381 			}
                 ;     382 			if((valuep < 0.105) && (valuep > 0.0001) && (nav1v == 1))
                 _0x48:
0008a7 940e 2756 	CALL SUBOPT_0x25
0008a9 f480      	BRSH _0x4C
0008aa 940e 2740 	CALL SUBOPT_0x22
0008ac e1e7
0008ad ebf7
0008ae ed61
0008af e378      	__GETD1N 0x38D1B717
0008b0 940e 323a 	CALL __CMPF12
0008b2 f009      	BREQ PC+2
0008b3 f410      	BRCC PC+3
0008b4 940c 08ba 	JMP  _0x4C
0008b6 91a0 0607 	LDS  R26,_nav1v
0008b8 30a1      	CPI  R26,LOW(0x1)
0008b9 f009      	BREQ _0x4D
                 _0x4C:
0008ba c002      	RJMP _0x4B
                 _0x4D:
                 ;     383 			{
                 ;     384 			        navto120mv();
0008bb 940e 06ce 	CALL _navto120mv
                 ;     385 			}
                 ;     386 		}
                 _0x4B:
                 _0x47:
                 ;     387 		if(rundata.stdV != 0)
0008bd 940e 2763 	CALL SUBOPT_0x27
0008bf 940e 325a 	CALL __CPD10
0008c1 f411      	BRNE PC+3
0008c2 940c 0924 	JMP _0x4E
                 ;     388 		{
                 ;     389 			rundata.reading[ch_to_search] = valuep*sysdata.Rs1/rundata.stdV - sysdata.R0;
0008c4 940e 26b5 	CALL SUBOPT_0xF
0008c6 0fea      	ADD  R30,R26
0008c7 1ffb      	ADC  R31,R27
0008c8 93ff      	PUSH R31
0008c9 93ef      	PUSH R30
0008ca 940e 276c 	CALL SUBOPT_0x28
0008cc 940e 2740 	CALL SUBOPT_0x22
0008ce 940e 2771 	CALL SUBOPT_0x29
0008d0 940e 2763 	CALL SUBOPT_0x27
0008d2 940e 31f5 	CALL __DIVF21
0008d4 937f      	PUSH R23
0008d5 936f      	PUSH R22
0008d6 93ff      	PUSH R31
0008d7 93ef      	PUSH R30
0008d8 940e 2776 	CALL SUBOPT_0x2A
0008da 91af      	POP  R26
0008db 91bf      	POP  R27
0008dc 918f      	POP  R24
0008dd 919f      	POP  R25
0008de 940e 277b 	CALL SUBOPT_0x2B
0008e0 91af      	POP  R26
0008e1 91bf      	POP  R27
0008e2 940e 303a 	CALL __PUTDP1
                 ;     390 			if(rundata.reading[ch_to_search] > 0)
0008e4 940e 26b5 	CALL SUBOPT_0xF
0008e6 940e 26dd 	CALL SUBOPT_0x15
0008e8 01df      	MOVW R26,R30
0008e9 01cb      	MOVW R24,R22
0008ea 940e 3266 	CALL __CPD02
0008ec f5b4      	BRGE _0x4F
                 ;     391 			{
                 ;     392                                 sprintf(strbuf,"%2d;%f;",ch_to_search+1,rundata.Rx);
0008ed 940e 263b 	CALL SUBOPT_0x0
0008ef 940e 26bb 	CALL SUBOPT_0x10
0008f1 940e 2780 	CALL SUBOPT_0x2C
0008f3 940e 3049 	CALL __PUTPARD1
0008f5 940e 26cd 	CALL SUBOPT_0x12
                 ;     393                                 prints(strbuf,strlen(strbuf),PORT_PC);
0008f7 940e 263b 	CALL SUBOPT_0x0
0008f9 940e 264c 	CALL SUBOPT_0x3
                 ;     394 
                 ;     395 			        rundata.temperature[ch_to_search] = RValueToTValue(rundata.reading[ch_to_search],i);
0008fb 940e 26d2 	CALL SUBOPT_0x13
0008fd 0fea      	ADD  R30,R26
0008fe 1ffb      	ADC  R31,R27
0008ff 93ff      	PUSH R31
000900 93ef      	PUSH R30
000901 940e 26b5 	CALL SUBOPT_0xF
000903 940e 26c6 	CALL SUBOPT_0x11
000905 931a      	ST   -Y,R17
000906 d541      	RCALL _RValueToTValue
000907 91af      	POP  R26
000908 91bf      	POP  R27
000909 940e 303a 	CALL __PUTDP1
                 ;     396                                 rundata.Rx = rundata.reading[ch_to_search];
00090b 940e 26b5 	CALL SUBOPT_0xF
00090d 940e 26dd 	CALL SUBOPT_0x15
00090f 93e0 05c0
000911 93f0 05c1
000913 9360 05c2
000915 9370 05c3 	__PUTD1MN _rundata,192
                 ;     397                                 sprintf(strbuf,"%f;\r\n",rundata.temperature[ch_to_search]);
000917 940e 263b 	CALL SUBOPT_0x0
000919 940e 26d8 	CALL SUBOPT_0x14
00091b 940e 26dd 	CALL SUBOPT_0x15
00091d 940e 2645 	CALL SUBOPT_0x2
                 ;     398                                 prints(strbuf,strlen(strbuf),PORT_PC);
00091f 940e 263b 	CALL SUBOPT_0x0
000921 940e 264c 	CALL SUBOPT_0x3
                 ;     399 			}
                 ;     400 		}else{
                 _0x4F:
000923 c00a      	RJMP _0x50
                 _0x4E:
                 ;     401 		        rundata.temperature[ch_to_search] = -9999;
000924 940e 26d2 	CALL SUBOPT_0x13
000926 0fae      	ADD  R26,R30
000927 1fbf      	ADC  R27,R31
000928 e0e0
000929 e3fc
00092a e16c
00092b ec76      	__GETD1N 0xC61C3C00
00092c 940e 303a 	CALL __PUTDP1
                 ;     402 		}
                 _0x50:
                 ;     403 		phase = 5;
00092e e0e5      	LDI  R30,LOW(5)
00092f 93e0 0602 	STS  _phase,R30
                 ;     404 	}
                 ;     405 	if(phase == 5) //got one reading
                 _0x3F:
000931 91a0 0602 	LDS  R26,_phase
000933 30a5      	CPI  R26,LOW(0x5)
000934 f411      	BRNE _0x51
                 ;     406 	{
                 ;     407 		pgmain_handler(MSG_REFRESH);
000935 940e 26e2 	CALL SUBOPT_0x16
                 ;     408 		phase = 0;
                 ;     409 	}
                 ;     410 	return 1;
                 _0x51:
000937 e0e1      	LDI  R30,LOW(1)
                 _0x496:
000938 9119      	LD   R17,Y+
000939 9508      	RET
                 ;     411 }
                 ;     412 LABEL flash statelbl = {LBL_HZ6X8,100,55,16,strbuf};
                 ;     413 
                 ;     414 void updatestate()
                 ;     415 {
                 _updatestate:
                 ;     416         char star[6];
                 ;     417         sprintf(star,"    ");
00093a 9726      	SBIW R28,6
                 ;	star -> Y+0
00093b 940e 2789 	CALL SUBOPT_0x2D
00093d efe3
00093e e0f7      	__POINTW1FN _0,47
00093f 940e 278d 	CALL SUBOPT_0x2E
                 ;     418         if(phase == 0)                sprintf(star,"*   ");
000941 91e0 0602 	LDS  R30,_phase
000943 30e0      	CPI  R30,0
000944 f431      	BRNE _0x52
000945 940e 2789 	CALL SUBOPT_0x2D
000947 efe8
000948 e0f7      	__POINTW1FN _0,52
000949 940e 278d 	CALL SUBOPT_0x2E
                 ;     419         if(phase == 1)                sprintf(star,"**  ");
                 _0x52:
00094b 91a0 0602 	LDS  R26,_phase
00094d 30a1      	CPI  R26,LOW(0x1)
00094e f431      	BRNE _0x53
00094f 940e 2789 	CALL SUBOPT_0x2D
000951 efed
000952 e0f7      	__POINTW1FN _0,57
000953 940e 278d 	CALL SUBOPT_0x2E
                 ;     420         if(phase == 2)                sprintf(star,"*** ");
                 _0x53:
000955 91a0 0602 	LDS  R26,_phase
000957 30a2      	CPI  R26,LOW(0x2)
000958 f431      	BRNE _0x54
000959 940e 2789 	CALL SUBOPT_0x2D
00095b e0e2
00095c e0f8      	__POINTW1FN _0,62
00095d 940e 278d 	CALL SUBOPT_0x2E
                 ;     421         if(phase == 3)                sprintf(star,"****");
                 _0x54:
00095f 91a0 0602 	LDS  R26,_phase
000961 30a3      	CPI  R26,LOW(0x3)
000962 f431      	BRNE _0x55
000963 940e 2789 	CALL SUBOPT_0x2D
000965 e0e7
000966 e0f8      	__POINTW1FN _0,67
000967 940e 278d 	CALL SUBOPT_0x2E
                 ;     422 
                 ;     423         if(IS_BORE_MODE){
                 _0x55:
000969 940e 2794 	CALL SUBOPT_0x2F
00096b f461      	BRNE _0x56
                 ;     424                 if(IS_MODE_KTT)
00096c 940e 2717 	CALL SUBOPT_0x1C
00096e f401      	BRNE _0x57
                 ;     425                         sprintf(strbuf,"(ch%2i,%2d,%s)",ch_to_search+1,dlg_cnt/ONESEC,star);
                 ;     426                 else
                 _0x57:
                 ;     427                         sprintf(strbuf,"(ch%2i,%2d,%s)",ch_to_search+1,dlg_cnt/ONESEC,star);
                 _0x49B:
00096f ece8      	LDI  R30,LOW(_strbuf)
000970 e0f5      	LDI  R31,HIGH(_strbuf)
000971 93fa      	ST   -Y,R31
000972 93ea      	ST   -Y,R30
000973 e0ec
000974 e0f8      	__POINTW1FN _0,72
000975 940e 279a 	CALL SUBOPT_0x30
                 ;     428         }else{
000977 c006      	RJMP _0x59
                 _0x56:
                 ;     429                 sprintf(strbuf,"(ch:%2i,%2d,%s)",ch_to_search+1,dlg_cnt/ONESEC,star);
000978 940e 263b 	CALL SUBOPT_0x0
00097a e1eb
00097b e0f8      	__POINTW1FN _0,87
00097c 940e 279a 	CALL SUBOPT_0x30
                 ;     430         }
                 _0x59:
                 ;     431         draw_label(&statelbl,SW_NORMAL);
00097e ebe2      	LDI  R30,LOW(_statelbl*2)
00097f e0f0      	LDI  R31,HIGH(_statelbl*2)
000980 940e 27ba 	CALL SUBOPT_0x31
                 ;     432 }
000982 9626      	ADIW R28,6
000983 9508      	RET
                 ;     433 static uchar tA = 0xff;
                 
                 	.DSEG
                 _tA_G1:
000610           	.BYTE 0x1
                 ;     434 static uchar tB = 0xff;
                 _tB_G1:
000611           	.BYTE 0x1
                 ;     435 void testA(uchar data)
                 ;     436 {
                 
                 	.CSEG
                 _testA:
                 ;     437         tA = data;
                 ;	data -> Y+0
000984 81e8      	LD   R30,Y
000985 93e0 0610 	STS  _tA_G1,R30
                 ;     438 }
000987 9621      	ADIW R28,1
000988 9508      	RET
                 ;     439 void testB(uchar data)
                 ;     440 {
                 ;     441         tB = data;
                 ;	data -> Y+0
                 ;     442 }
                 ;     443 /**************************************************************************************/
                 ;     444 //                              Main Function Loop
                 ;     445 /**************************************************************************************/
                 ;     446 extern double GetThmoVolt(double t,char type);
                 ;     447 extern u8 databuf[12];
                 ;     448 extern u8 pos_databuf; //position in data buffer
                 ;     449 void main(void)
                 ;     450 {
                 _main:
                 ;     451     u16 i;
                 ;     452     double dt;
                 ;     453 
                 ;     454     /*  just test algrithom
                 ;     455     sprintf(databuf,"9.99");
                 ;     456     pos_databuf = 4;
                 ;     457     dt = buf2double();
                 ;     458     rprbdata.type[0] = PRBTYPE_PT100;
                 ;     459     rprbdata.param1[0] = 3.9083e-3;
                 ;     460     rprbdata.param2[0] = -5.775e-7;
                 ;     461     rprbdata.param3[0] = 100;//-4.183e-12;
                 ;     462     dt = RValueToTValue(139.26, 0);//102
                 ;     463     */
                 ;     464     // RS485 Node
                 ;     465     init_var();	//init data structure
000989 9724      	SBIW R28,4
                 ;	i -> R16,R17
                 ;	dt -> Y+0
00098a 940e 076a 	CALL _init_var
                 ;     466     // System Initialization
                 ;     467     Init_Port();
00098c d3ee      	RCALL _Init_Port
                 ;     468 //    Init_Timers();
                 ;     469 //    Init_Ex_Interrupt();
                 ;     470     Init_UART();
00098d d262      	RCALL _Init_UART
                 ;     471     Enable_XMEM();
00098e d40b      	RCALL _Enable_XMEM
                 ;     472     Init_554();
00098f d2f6      	RCALL _Init_554
                 ;     473     InitLED();
000990 940e 06cd 	CALL _InitLED
                 ;     474     Key_Init();
000992 940e 11f8 	CALL _Key_Init
                 ;     475     // Global enable interrupts
                 ;     476     WDTCR = 0x00; //disable dog watch
000994 e0e0      	LDI  R30,LOW(0)
000995 bde1      	OUT  0x21,R30
                 ;     477     #asm("sei")
000996 9478      	sei
                 ;     478     /*********************************************************************/
                 ;     479     // System hardware dection
                 ;     480     /*********************************************************************/
                 ;     481     // intialize LED.
                 ;     482     nextwin = 0;
000997 2444      	CLR  R4
                 ;     483 
                 ;     484     sleepms(2000);
000998 ede0      	LDI  R30,LOW(2000)
000999 e0f7      	LDI  R31,HIGH(2000)
00099a 940e 27c0 	CALL SUBOPT_0x32
                 ;     485     LCD_Init();
00099c 940e 1296 	CALL _LCD_Init
                 ;     486     wnd_msgbox(&bootup);
00099e e8ec      	LDI  R30,LOW(_bootup*2)
00099f e0f0      	LDI  R31,HIGH(_bootup*2)
0009a0 940e 27c4 	CALL SUBOPT_0x33
                 ;     487     //init the DMM
                 ;     488     nav_command(NAV_INIT);
0009a2 e0e1      	LDI  R30,LOW(1)
0009a3 940e 2657 	CALL SUBOPT_0x5
                 ;     489     sleepms(20000);
                 ;     490     nav_command(NAV_1V);
0009a5 e0e3      	LDI  R30,LOW(3)
0009a6 940e 2657 	CALL SUBOPT_0x5
                 ;     491     sleepms(20000);
                 ;     492     nav_command(NAV_SLOWMODE);
0009a8 e0e7      	LDI  R30,LOW(7)
0009a9 940e 2657 	CALL SUBOPT_0x5
                 ;     493     sleepms(20000);
                 ;     494     nav_command(NAV_AFLTON);
0009ab e0e6      	LDI  R30,LOW(6)
0009ac 940e 2657 	CALL SUBOPT_0x5
                 ;     495     sleepms(20000);
                 ;     496 
                 ;     497     sleepms(2*ONESEC); //wait until all the node is ready after power up
0009ae e4e0      	LDI  R30,LOW(200000)
0009af e0fd      	LDI  R31,HIGH(200000)
0009b0 940e 27c0 	CALL SUBOPT_0x32
                 ;     498     State_Init();
0009b2 940e 143a 	CALL _State_Init
                 ;     499 
                 ;     500     SET_BORE_MODE;
0009b4 940e 27c8 	CALL SUBOPT_0x34
                 ;     501 
                 ;     502     SET_PKTT;
0009b6 940e 26fe 	CALL SUBOPT_0x19
                 ;     503     SET_TORS;
0009b8 940e 2704 	CALL SUBOPT_0x1A
                 ;     504 
                 ;     505 	 nextwin = PG_BOOTTYPE;
0009ba e0ed      	LDI  R30,LOW(13)
0009bb 2e4e      	MOV  R4,R30
                 ;     506 	 key = KEY_INVALID;
0009bc e2ed      	LDI  R30,LOW(45)
0009bd 2e5e      	MOV  R5,R30
                 ;     507 
                 ;     508 	 curr_ch = 1; //channel for display
0009be e0e1      	LDI  R30,LOW(1)
0009bf e0f0      	LDI  R31,HIGH(1)
0009c0 013f      	MOVW R6,R30
                 ;     509 	 curr_dispch = 1;
0009c1 940e 27d1 	CALL SUBOPT_0x35
                 ;     510 	 while(1)
                 _0x5C:
                 ;     511 	 {
                 ;     512  	 	if(nextwin != 0)
0009c3 2044      	TST  R4
0009c4 f051      	BREQ _0x5F
                 ;     513 		{
                 ;     514 			SwitchWindow(nextwin);
0009c5 924a      	ST   -Y,R4
0009c6 d163      	RCALL _SwitchWindow
                 ;     515 			(*curr_window)(MSG_INIT);
0009c7 efef      	LDI  R30,LOW(255)
0009c8 93ea      	ST   -Y,R30
0009c9 91e0 07b4
0009cb 91f0 07b5
0009cd 9509      	__CALL1MN _curr_window,0
                 ;     516 			nextwin = 0;
0009ce 2444      	CLR  R4
                 ;     517 		}
                 ;     518 		if(key != KEY_INVALID)
                 _0x5F:
0009cf e2ed      	LDI  R30,LOW(45)
0009d0 15e5      	CP   R30,R5
0009d1 f411      	BRNE PC+3
0009d2 940c 0a8e 	JMP _0x60
                 ;     519 		{
                 ;     520 			if((key == KEY_BTN1)||(key == KEY_BTN2)||(key == KEY_BTN3)||(key == KEY_BTN4))
0009d4 e6e1      	LDI  R30,LOW(97)
0009d5 15e5      	CP   R30,R5
0009d6 f051      	BREQ _0x62
0009d7 e6e2      	LDI  R30,LOW(98)
0009d8 15e5      	CP   R30,R5
0009d9 f039      	BREQ _0x62
0009da e6e3      	LDI  R30,LOW(99)
0009db 15e5      	CP   R30,R5
0009dc f021      	BREQ _0x62
0009dd e6e4      	LDI  R30,LOW(100)
0009de 15e5      	CP   R30,R5
0009df f009      	BREQ _0x62
0009e0 c0a4      	RJMP _0x61
                 _0x62:
                 ;     521 			{
                 ;     522 				if(curr_window == pgmain_handler)
0009e1 940e 27d5 	CALL SUBOPT_0x36
0009e3 f431      	BRNE _0x64
                 ;     523 				{
                 ;     524 					LCD_Cls();
0009e4 940e 129e 	CALL _LCD_Cls
                 ;     525 					wnd_msgbox(&modify);
0009e6 e9e6      	LDI  R30,LOW(_modify*2)
0009e7 e0f0      	LDI  R31,HIGH(_modify*2)
0009e8 940e 27c4 	CALL SUBOPT_0x33
                 ;     526 				}
                 ;     527 				if(key == KEY_BTN1) //mode switch
                 _0x64:
0009ea e6e1      	LDI  R30,LOW(97)
0009eb 15e5      	CP   R30,R5
0009ec f521      	BRNE _0x65
                 ;     528 				{
                 ;     529 					if(IS_BORE_MODE){
0009ed 940e 2794 	CALL SUBOPT_0x2F
0009ef f449      	BRNE _0x66
                 ;     530 						SET_THERM_MODE;
0009f0 940e 27de 	CALL SUBOPT_0x37
                 ;     531                                                 SET_TORS;
0009f2 940e 2704 	CALL SUBOPT_0x1A
                 ;     532                 				SET_PKTT;
0009f4 940e 26fe 	CALL SUBOPT_0x19
                 ;     533                                                 navto120mv();
0009f6 940e 06ce 	CALL _navto120mv
                 ;     534 					}else{
0009f8 c008      	RJMP _0x67
                 _0x66:
                 ;     535 						SET_BORE_MODE;
0009f9 940e 27c8 	CALL SUBOPT_0x34
                 ;     536                                                 SET_TORX;
0009fb 940e 2731 	CALL SUBOPT_0x20
                 ;     537                 				SET_PKTT;
0009fd 940e 26fe 	CALL SUBOPT_0x19
                 ;     538                                                 navto1v();
0009ff 940e 06db 	CALL _navto1v
                 ;     539 					}
                 _0x67:
                 ;     540 					dlg_cnt = 0;
000a01 e0e0      	LDI  R30,0
000a02 93e0 05fa 	STS  _dlg_cnt,R30
000a04 93e0 05fb 	STS  _dlg_cnt+1,R30
000a06 93e0 05fc 	STS  _dlg_cnt+2,R30
000a08 93e0 05fd 	STS  _dlg_cnt+3,R30
                 ;     541 					onesec_cnt = 0;
000a0a 940e 27eb 	CALL SUBOPT_0x38
                 ;     542 					phase = 0;      //reset the state machine
000a0c e0e0      	LDI  R30,LOW(0)
000a0d 93e0 0602 	STS  _phase,R30
                 ;     543 
                 ;     544 					SET_PKTT;
000a0f 940e 26fe 	CALL SUBOPT_0x19
                 ;     545 				}
                 ;     546 				if(key == KEY_BTN2) //auto ktt or not
                 _0x65:
000a11 e6e2      	LDI  R30,LOW(98)
000a12 15e5      	CP   R30,R5
000a13 f4e1      	BRNE _0x68
                 ;     547 				{
                 ;     548 					if(IS_BORE_MODE)
000a14 940e 2794 	CALL SUBOPT_0x2F
000a16 f4c9      	BRNE _0x69
                 ;     549 					{
                 ;     550 						if((IS_MODE_KTT)){
000a17 940e 2717 	CALL SUBOPT_0x1C
000a19 f449      	BRNE _0x6A
                 ;     551 							CLR_MODE_KTT;
000a1a e3af
000a1b e0b0      	__POINTW2MN _sysdata,63
000a1c e0e0      	LDI  R30,LOW(0)
000a1d 940e 3083 	CALL __EEPROMWRB
000a1f e6e2      	LDI  R30,LOW(98)
000a20 93ea      	ST   -Y,R30
000a21 e0e1      	LDI  R30,LOW(1)
000a22 c008      	RJMP _0x49C
                 ;     552 							SET_PKTT;
                 ;     553 						}else{
                 _0x6A:
                 ;     554 							SET_MODE_KTT;
000a23 e3af
000a24 e0b0      	__POINTW2MN _sysdata,63
000a25 e0e1      	LDI  R30,LOW(1)
000a26 940e 3083 	CALL __EEPROMWRB
000a28 e6e2      	LDI  R30,LOW(98)
000a29 93ea      	ST   -Y,R30
000a2a e0e0      	LDI  R30,LOW(0)
                 _0x49C:
000a2b 93ea      	ST   -Y,R30
000a2c 940e 12aa 	CALL _display_buttons
                 ;     555 							SET_PKTT;
000a2e 940e 26fe 	CALL SUBOPT_0x19
                 ;     556 						}
                 ;     557 					}
                 ;     558 				}
                 _0x69:
                 ;     559 				if(key == KEY_BTN3) //thermal probe type
                 _0x68:
000a30 e6e3      	LDI  R30,LOW(99)
000a31 15e5      	CP   R30,R5
000a32 f569      	BRNE _0x6C
                 ;     560 				{
                 ;     561 
                 ;     562 					display_buttons(KEY_BTN3,1);
000a33 93ea      	ST   -Y,R30
000a34 e0e1      	LDI  R30,LOW(1)
000a35 93ea      	ST   -Y,R30
000a36 940e 12aa 	CALL _display_buttons
                 ;     563 					if(IS_THERM_MODE)
000a38 940e 27f5 	CALL SUBOPT_0x39
000a3a f511      	BRNE _0x6D
                 ;     564 					{
                 ;     565 					        i = sysdata.tid[curr_dispch-1];
000a3b 940e 27fb 	CALL SUBOPT_0x3A
000a3d 2f0e      	MOV  R16,R30
000a3e 2711      	CLR  R17
                 ;     566 					        if(i != INVALID_PROBE)
000a3f efef      	LDI  R30,LOW(255)
000a40 e0f0      	LDI  R31,HIGH(255)
000a41 17e0      	CP   R30,R16
000a42 07f1      	CPC  R31,R17
000a43 f0c9      	BREQ _0x6E
                 ;     567 					        {
                 ;     568                 					if((tprbdata.type[i] >= PRBTYPE_K) &&\
                 ;     569 	                				   (tprbdata.type[i] <= PRBTYPE_R))
000a44 940e 2804 	CALL SUBOPT_0x3B
000a46 30e3      	CPI  R30,LOW(0x3)
000a47 f020      	BRLO _0x70
000a48 940e 2804 	CALL SUBOPT_0x3B
000a4a 30ea      	CPI  R30,LOW(0xA)
000a4b f008      	BRLO _0x71
                 _0x70:
000a4c c010      	RJMP _0x6F
                 _0x71:
                 ;     570 		                			{
                 ;     571 			                			if(tprbdata.type[i] == PRBTYPE_R)
000a4d 940e 2804 	CALL SUBOPT_0x3B
000a4f 30e9      	CPI  R30,LOW(0x9)
000a50 f439      	BRNE _0x72
                 ;     572 				                			tprbdata.type[i] = PRBTYPE_K;
000a51 e2e0
000a52 e0f2      	__POINTW1MN _tprbdata,480
000a53 0fe0      	ADD  R30,R16
000a54 1ff1      	ADC  R31,R17
000a55 01df      	MOVW R26,R30
000a56 e0e3      	LDI  R30,LOW(3)
000a57 c003      	RJMP _0x49D
                 ;     573 					                	else
                 _0x72:
                 ;     574 						                	tprbdata.type[i] +=1;
000a58 940e 2804 	CALL SUBOPT_0x3B
000a5a 5fef      	SUBI R30,-LOW(1)
                 _0x49D:
000a5b 940e 3083 	CALL __EEPROMWRB
                 ;     575         					        }
                 ;     576         					}
                 _0x6F:
                 ;     577                                         }
                 _0x6E:
                 ;     578 					display_buttons(KEY_BTN3,0);
                 _0x6D:
000a5d e6e3      	LDI  R30,LOW(99)
000a5e 940e 272c 	CALL SUBOPT_0x1F
                 ;     579 
                 ;     580 				}
                 ;     581 				if(key == KEY_BTN4) //remove zero
                 _0x6C:
000a60 e6e4      	LDI  R30,LOW(100)
000a61 15e5      	CP   R30,R5
000a62 f4d1      	BRNE _0x74
                 ;     582 				{
                 ;     583 					display_buttons(KEY_BTN4,1);
000a63 93ea      	ST   -Y,R30
000a64 e0e1      	LDI  R30,LOW(1)
000a65 93ea      	ST   -Y,R30
000a66 940e 12aa 	CALL _display_buttons
                 ;     584 					if(IS_BORE_MODE){
000a68 940e 2794 	CALL SUBOPT_0x2F
000a6a f439      	BRNE _0x75
                 ;     585 					        sysdata.R0 = rundata.Rx;
000a6b 940e 2780 	CALL SUBOPT_0x2C
000a6d e0a0      	LDI  R26,LOW(_sysdata)
000a6e e0b0      	LDI  R27,HIGH(_sysdata)
000a6f 940e 3070 	CALL __EEPROMWRD
                 ;     586 					}else{
000a71 c008      	RJMP _0x76
                 _0x75:
                 ;     587 					        //sysdata.V0 = nav_read();
                 ;     588 					        nav_command(NAV_ZEROON);
000a72 e0e8      	LDI  R30,LOW(8)
000a73 93ea      	ST   -Y,R30
000a74 940e 134c 	CALL _nav_command
                 ;     589 					        sleepms(ONESEC);
000a76 eae0      	LDI  R30,LOW(100000)
000a77 e8f6      	LDI  R31,HIGH(100000)
000a78 940e 27c0 	CALL SUBOPT_0x32
                 ;     590 					}
                 _0x76:
                 ;     591 					display_buttons(KEY_BTN4,0);
000a7a e6e4      	LDI  R30,LOW(100)
000a7b 940e 272c 	CALL SUBOPT_0x1F
                 ;     592 				}
                 ;     593 				if(curr_window == pgmain_handler)       //redraw the running window
                 _0x74:
000a7d 940e 27d5 	CALL SUBOPT_0x36
000a7f f421      	BRNE _0x77
                 ;     594 				{
                 ;     595 					pgmain_handler(MSG_INIT);
000a80 efef      	LDI  R30,LOW(255)
000a81 93ea      	ST   -Y,R30
000a82 940e 1453 	CALL _pgmain_handler
                 ;     596 				}
                 ;     597 			}else{
                 _0x77:
000a84 c006      	RJMP _0x78
                 _0x61:
                 ;     598 				(*curr_window)(key);
000a85 925a      	ST   -Y,R5
000a86 91e0 07b4
000a88 91f0 07b5
000a8a 9509      	__CALL1MN _curr_window,0
                 ;     599 			}
                 _0x78:
                 ;     600 			key = KEY_INVALID;
000a8b e2ed      	LDI  R30,LOW(45)
000a8c 2e5e      	MOV  R5,R30
                 ;     601 	  	}else{
000a8d c09a      	RJMP _0x79
                 _0x60:
                 ;     602 			if(curr_window != pgmain_handler)
000a8e 940e 27d5 	CALL SUBOPT_0x36
000a90 f009      	BREQ _0x7A
                 ;     603 				continue;
000a91 cf31      	RJMP _0x5C
                 ;     604 
                 ;     605 
                 ;     606 			if(dlg_cnt > 1)
                 _0x7A:
000a92 91a0 05fa 	LDS  R26,_dlg_cnt
000a94 91b0 05fb 	LDS  R27,_dlg_cnt+1
000a96 9180 05fc 	LDS  R24,_dlg_cnt+2
000a98 9190 05fd 	LDS  R25,_dlg_cnt+3
000a9a 30a2
000a9b e0e0
000a9c 07be
000a9d e0e0
000a9e 078e
000a9f e0e0
000aa0 079e      	__CPD2N 0x2
000aa1 f1f0      	BRLO _0x7B
                 ;     607 			{
                 ;     608 			        onesec_cnt++;
000aa2 91e0 05fe 	LDS  R30,_onesec_cnt
000aa4 91f0 05ff 	LDS  R31,_onesec_cnt+1
000aa6 9160 0600 	LDS  R22,_onesec_cnt+2
000aa8 9170 0601 	LDS  R23,_onesec_cnt+3
000aaa 940e 280c 	CALL SUBOPT_0x3C
000aac 93e0 05fe 	STS  _onesec_cnt,R30
000aae 93f0 05ff 	STS  _onesec_cnt+1,R31
000ab0 9360 0600 	STS  _onesec_cnt+2,R22
000ab2 9370 0601 	STS  _onesec_cnt+3,R23
                 ;     609 			        if(onesec_cnt == (ONESEC-10))
000ab4 940e 2811 	CALL SUBOPT_0x3D
000ab6 39a6
000ab7 e8e6
000ab8 07be
000ab9 e0e1
000aba 078e
000abb e0e0
000abc 079e      	__CPD2N 0x18696
000abd f411      	BRNE _0x7C
                 ;     610 			        {
                 ;     611         			        updatestate();
000abe 940e 093a 	CALL _updatestate
                 ;     612 
                 ;     613         			}
                 ;     614         			if(onesec_cnt == ONESEC)
                 _0x7C:
000ac0 940e 2811 	CALL SUBOPT_0x3D
000ac2 3aa0
000ac3 e8e6
000ac4 07be
000ac5 e0e1
000ac6 078e
000ac7 e0e0
000ac8 079e      	__CPD2N 0x186A0
000ac9 f411      	BRNE _0x7D
                 ;     615         			        onesec_cnt = 0 ;
000aca 940e 27eb 	CALL SUBOPT_0x38
                 ;     616 				dlg_cnt--;
                 _0x7D:
000acc 91e0 05fa 	LDS  R30,_dlg_cnt
000ace 91f0 05fb 	LDS  R31,_dlg_cnt+1
000ad0 9160 05fc 	LDS  R22,_dlg_cnt+2
000ad2 9170 05fd 	LDS  R23,_dlg_cnt+3
000ad4 9731      	SBIW R30,1
000ad5 4060      	SBCI R22,0
000ad6 4070      	SBCI R23,0
000ad7 93e0 05fa 	STS  _dlg_cnt,R30
000ad9 93f0 05fb 	STS  _dlg_cnt+1,R31
000adb 9360 05fc 	STS  _dlg_cnt+2,R22
000add 9370 05fd 	STS  _dlg_cnt+3,R23
                 ;     617 				continue;
000adf cee3      	RJMP _0x5C
                 ;     618 			}
                 ;     619 			updatestate();
                 _0x7B:
000ae0 940e 093a 	CALL _updatestate
                 ;     620 			if((IS_THERM_MODE))
000ae2 940e 27f5 	CALL SUBOPT_0x39
000ae4 f431      	BRNE _0x7E
                 ;     621 			{
                 ;     622 				if(therm_state() == 0)
000ae5 940e 076b 	CALL _therm_state
000ae7 30e0      	CPI  R30,0
000ae8 f409      	BRNE _0x7F
                 ;     623 				        continue;
000ae9 ced9      	RJMP _0x5C
                 ;     624 			}else{
                 _0x7F:
000aea c005      	RJMP _0x80
                 _0x7E:
                 ;     625 				if(bore_state() == 0)
000aeb 940e 07d5 	CALL _bore_state
000aed 30e0      	CPI  R30,0
000aee f409      	BRNE _0x81
                 ;     626 				        continue;
000aef ced3      	RJMP _0x5C
                 ;     627 			}
                 _0x81:
                 _0x80:
                 ;     628                         //shift to next channel
                 ;     629                         while(true)
                 _0x82:
                 ;     630                         {
                 ;     631                                 ch_to_search += 1;
000af0 01f6      	MOVW R30,R12
000af1 9631      	ADIW R30,1
000af2 016f      	MOVW R12,R30
                 ;     632         			if(ch_to_search >= MAX_CH_NUM)
000af3 e1e8      	LDI  R30,LOW(24)
000af4 e0f0      	LDI  R31,HIGH(24)
000af5 16ce      	CP   R12,R30
000af6 06df      	CPC  R13,R31
000af7 f01c      	BRLT _0x85
                 ;     633         			{
                 ;     634 	        			ch_to_search = 0;
000af8 24cc      	CLR  R12
000af9 24dd      	CLR  R13
                 ;     635 	        			break;
000afa c02d      	RJMP _0x84
                 ;     636 	        		}
                 ;     637 	        		if(IS_THERM_MODE)
                 _0x85:
000afb 940e 27f5 	CALL SUBOPT_0x39
000afd f419      	BRNE _0x86
                 ;     638 	        		{
                 ;     639 	        		        i = sysdata.tid[ch_to_search];
000afe e0ee
000aff e0f0      	__POINTW1MN _sysdata,14
000b00 c002      	RJMP _0x49E
                 ;     640 	        		}else{
                 _0x86:
                 ;     641 	        		        i = sysdata.rid[ch_to_search];
000b01 e2e6
000b02 e0f0      	__POINTW1MN _sysdata,38
                 _0x49E:
000b03 0dec      	ADD  R30,R12
000b04 1dfd      	ADC  R31,R13
000b05 01df      	MOVW R26,R30
000b06 940e 3064 	CALL __EEPROMRDB
000b08 2f0e      	MOV  R16,R30
000b09 2711      	CLR  R17
                 ;     642 	        		}
                 ;     643 	        		if(i == INVALID_PROBE)
000b0a efef      	LDI  R30,LOW(255)
000b0b e0f0      	LDI  R31,HIGH(255)
000b0c 17e0      	CP   R30,R16
000b0d 07f1      	CPC  R31,R17
000b0e f309      	BREQ _0x82
                 ;     644 	        		        continue;
                 ;     645 	        		if(IS_THERM_MODE)
000b0f 940e 27f5 	CALL SUBOPT_0x39
000b11 f459      	BRNE _0x89
                 ;     646 	        		{
                 ;     647        					if((tprbdata.type[i] >= PRBTYPE_K) && (tprbdata.type[i] <= PRBTYPE_R))
000b12 940e 2804 	CALL SUBOPT_0x3B
000b14 30e3      	CPI  R30,LOW(0x3)
000b15 f020      	BRLO _0x8B
000b16 940e 2804 	CALL SUBOPT_0x3B
000b18 30ea      	CPI  R30,LOW(0xA)
000b19 f008      	BRLO _0x8C
                 _0x8B:
000b1a c001      	RJMP _0x8A
                 _0x8C:
                 ;     648        					        break;
000b1b c00c      	RJMP _0x84
                 ;     649 	        		}else{
                 _0x8A:
000b1c c00a      	RJMP _0x8D
                 _0x89:
                 ;     650        		        		if((rprbdata.type[i] <= PRBTYPE_PT25) && (rprbdata.type[i] >= PRBTYPE_PT100))
000b1d 940e 281a 	CALL SUBOPT_0x3E
000b1f 3fe3      	CPI  R30,LOW(0xF3)
000b20 f420      	BRSH _0x8F
000b21 940e 281a 	CALL SUBOPT_0x3E
000b23 3fe1      	CPI  R30,LOW(0xF1)
000b24 f408      	BRSH _0x90
                 _0x8F:
000b25 c001      	RJMP _0x8E
                 _0x90:
                 ;     651        		        		        break;
000b26 c001      	RJMP _0x84
                 ;     652 	        		}
                 _0x8E:
                 _0x8D:
                 ;     653 	                }
000b27 cfc8      	RJMP _0x82
                 _0x84:
                 ;     654 		}
                 _0x79:
                 ;     655 	}
000b28 ce9a      	RJMP _0x5C
                 ;     656 }
                 _0x91:
000b29 cfff      	RJMP _0x91
                 ;     657 
                 ;     658 WINDOW flash wins[]={
                 ;     659 	{PG_MAIN,	pgmain_handler},	//running menu
                 ;     660 	{PG_RCONFIG,	pgrconfig_handler},	//main menu of R config
                 ;     661 	{PG_TCONFIG,	pgtconfig_handler},	//main menu of T config
                 ;     662 	{PG_CHSET,	pgchset_handler},	//menu of channel probe setup
                 ;     663 	{PG_PRBLIST,	pgprblist_handler},	//list of probe selection
                 ;     664 	{PG_PRBTYPELIST,pgprbtypelist_handler}, //select probe type
                 ;     665 	{PG_PRBSET,	pgprbset_handler},	//menu of probe setup
                 ;     666 	{PG_PRBCONFIG,	pgprbconfig_handler},  //config of r probe
                 ;     667 	{PG_BOOTTYPE,	pgboottype_handler}	//config of t probe
                 ;     668 };
                 ;     669 
                 ;     670 
                 ;     671 void SwitchWindow(uchar page)
                 ;     672 {
                 _SwitchWindow:
                 ;     673 	u8 i;
                 ;     674 	for(i = 0; i<sizeof(wins)/sizeof(WINDOW);i++)
000b2a 931a      	ST   -Y,R17
                 ;	page -> Y+1
                 ;	i -> R17
000b2b e010      	LDI  R17,LOW(0)
                 _0x93:
000b2c 3019      	CPI  R17,9
000b2d f4d0      	BRSH _0x94
                 ;     675 	{
                 ;     676 		if(wins[i].page_id == page)
000b2e e0e3      	LDI  R30,LOW(3)
000b2f 9fe1      	MUL  R30,R17
000b30 01f0      	MOVW R30,R0
000b31 54e0      	SUBI R30,LOW(-_wins*2)
000b32 4fff      	SBCI R31,HIGH(-_wins*2)
000b33 91e4      	LPM  R30,Z
000b34 2fae      	MOV  R26,R30
000b35 81e9      	LDD  R30,Y+1
000b36 17ea      	CP   R30,R26
000b37 f471      	BRNE _0x95
                 ;     677 		{
                 ;     678 			curr_window = wins[i].handler;
000b38 2fa1      	MOV  R26,R17
000b39 27bb      	CLR  R27
000b3a ec61
000b3b e070      	__POINTWRFN 22,23,_wins,1
000b3c e0e3      	LDI  R30,LOW(3)
000b3d e0f0      	LDI  R31,HIGH(3)
000b3e 940e 2822 	CALL SUBOPT_0x3F
000b40 93e0 07b4 	STS  _curr_window,R30
000b42 93f0 07b5 	STS  _curr_window+1,R31
                 ;     679 			return;
000b44 8118      	LDD  R17,Y+0
000b45 c003      	RJMP _0x495
                 ;     680 		}
                 ;     681 	}
                 _0x95:
000b46 5f1f      	SUBI R17,-1
000b47 cfe4      	RJMP _0x93
                 _0x94:
                 ;     682 }
000b48 8118      	LDD  R17,Y+0
                 _0x495:
000b49 9622      	ADIW R28,2
000b4a 9508      	RET
                 ;     683 /*********************************************************************************/
                 ;     684 //                         UART0 and UART1 Subroutines
                 ;     685 /*********************************************************************************/
                 ;     686 #include <mega64.h>
                 ;     687 #include "uart.h"
                 ;     688 #include "16c554.h"
                 ;     689 #include "global.h"
                 ;     690 
                 ;     691 //extern u8 dsm_rcmd, dsm_rpara,dsm_cmd_received;    /* debug state machine */
                 ;     692 //extern u8 x_modem_databuf[];                       /* store data sent from PC */
                 ;     693 //extern u8 x_modem_one_pack_received;               /* tell main loop one pack has been received */
                 ;     694 //extern u8 x_modem_file_being_transferred;
                 ;     695 //extern u8 x_modem_file_transfer_complete;
                 ;     696 
                 ;     697 /*********************************************************************************/
                 ;     698 //                     UART0  Variables & Buffer Definition
                 ;     699 /*********************************************************************************/
                 ;     700 u8 volatile tx_buffer0[TX_BUFFER_SIZE0];
                 
                 	.DSEG
                 _tx_buffer0:
000612           	.BYTE 0x80
                 ;     701 u8 volatile tx_wr_index0,tx_rd_index0,tx_counter0;
                 _tx_wr_index0:
000692           	.BYTE 0x1
                 _tx_rd_index0:
000693           	.BYTE 0x1
                 _tx_counter0:
000694           	.BYTE 0x1
                 ;     702 
                 ;     703 /*********************************************************************************/
                 ;     704 //                     UART1  Variables & Buffer Definition
                 ;     705 /*********************************************************************************/
                 ;     706 u8 volatile tx_buffer1[TX_BUFFER_SIZE1];
                 _tx_buffer1:
000695           	.BYTE 0x80
                 ;     707 u8 volatile tx_wr_index1,tx_rd_index1,tx_counter1;
                 _tx_wr_index1:
000715           	.BYTE 0x1
                 _tx_rd_index1:
000716           	.BYTE 0x1
                 _tx_counter1:
000717           	.BYTE 0x1
                 ;     708 
                 ;     709 /*
                 ;     710  * 0-9,a-f,A-F char to hex conversion
                 ;     711  * otherwise 0xff will be returned.
                 ;     712  */
                 ;     713 u8 ishexchar(u8 dat){
                 
                 	.CSEG
                 ;     714         if( (dat >= '0') && (dat <= '9'))
                 ;	dat -> Y+0
                 ;     715                 return dat-'0';
                 ;     716         if( (dat >= 'a') && (dat <= 'f'))
                 ;     717                 return dat-'a'+0x0a;
                 ;     718         if( (dat >= 'A') && (dat <= 'F'))
                 ;     719                 return dat-'A'+0x0a;
                 ;     720         return 0xff;
                 ;     721 }
                 ;     722 
                 ;     723 
                 ;     724 
                 ;     725 interrupt [USART0_RXC] void usart0_rx_isr(void)
                 ;     726 {
                 _usart0_rx_isr:
000b4b 940e 2829 	CALL SUBOPT_0x40
                 ;     727    u8 status,data;
                 ;     728    //read status and data
                 ;     729    status=UCSR0A;
                 ;	status -> R17
                 ;	data -> R16
000b4d b11b      	IN   R17,11
                 ;     730    data=UDR0;
000b4e b10c      	IN   R16,12
                 ;     731    cm0_push(data);
000b4f 930a      	ST   -Y,R16
000b50 d6aa      	RCALL _kbd_uart_push
                 ;     732 }
000b51 940e 2839 	CALL SUBOPT_0x41
000b53 9518      	RETI
                 ;     733 
                 ;     734 /*********************************************************************************/
                 ;     735 //                 USART0 Transmitter interrupt service routine
                 ;     736 /*********************************************************************************/
                 ;     737 interrupt [USART0_TXC] void usart0_tx_isr(void)
                 ;     738 {
                 _usart0_tx_isr:
000b54 93ea      	ST   -Y,R30
000b55 93fa      	ST   -Y,R31
000b56 b7ef      	IN   R30,SREG
000b57 93ea      	ST   -Y,R30
                 ;     739 if (tx_counter0)
000b58 91e0 0694 	LDS  R30,_tx_counter0
000b5a 30e0      	CPI  R30,0
000b5b f099      	BREQ _0x9F
                 ;     740    {
                 ;     741    --tx_counter0;
000b5c 50e1      	SUBI R30,LOW(1)
000b5d 93e0 0694 	STS  _tx_counter0,R30
                 ;     742    UDR0=tx_buffer0[tx_rd_index0++];
000b5f 91e0 0693 	LDS  R30,_tx_rd_index0
000b61 5fef      	SUBI R30,-LOW(1)
000b62 93e0 0693 	STS  _tx_rd_index0,R30
000b64 940e 2849 	CALL SUBOPT_0x42
000b66 5eee      	SUBI R30,LOW(-_tx_buffer0)
000b67 4ff9      	SBCI R31,HIGH(-_tx_buffer0)
000b68 81e0      	LD   R30,Z
000b69 b9ec      	OUT  0xC,R30
                 ;     743    tx_rd_index0 =tx_rd_index0 & (TX_BUFFER_SIZE0-1);
000b6a 91e0 0693 	LDS  R30,_tx_rd_index0
000b6c 77ef      	ANDI R30,0x7F
000b6d 93e0 0693 	STS  _tx_rd_index0,R30
                 ;     744    };
                 _0x9F:
                 ;     745 }
000b6f 91e9      	LD   R30,Y+
000b70 bfef      	OUT  SREG,R30
000b71 91f9      	LD   R31,Y+
000b72 91e9      	LD   R30,Y+
000b73 9518      	RETI
                 ;     746 
                 ;     747 /*********************************************************************************/
                 ;     748 //                      UART1 Receiver interrupt service routine
                 ;     749 /*********************************************************************************/
                 ;     750 interrupt [USART1_RXC] void usart1_rx_isr(void)
                 ;     751 {
                 _usart1_rx_isr:
000b74 940e 2829 	CALL SUBOPT_0x40
                 ;     752    u8 status,data;
                 ;     753 
                 ;     754    //read status and data
                 ;     755    status=UCSR1A;
                 ;	status -> R17
                 ;	data -> R16
000b76 9110 009b 	LDS  R17,155
                 ;     756    data=UDR1;
000b78 9100 009c 	LDS  R16,156
                 ;     757    cm1_push(data);
000b7a 930a      	ST   -Y,R16
000b7b 940e 13ed 	CALL _nav_uart_push
                 ;     758 }
000b7d 940e 2839 	CALL SUBOPT_0x41
000b7f 9518      	RETI
                 ;     759 
                 ;     760 /*********************************************************************************/
                 ;     761 //                   USART1 Transmitter interrupt service routine
                 ;     762 /*********************************************************************************/
                 ;     763 interrupt [USART1_TXC] void usart1_tx_isr(void)
                 ;     764 {
                 _usart1_tx_isr:
000b80 93ea      	ST   -Y,R30
000b81 93fa      	ST   -Y,R31
000b82 b7ef      	IN   R30,SREG
000b83 93ea      	ST   -Y,R30
                 ;     765 if (tx_counter1)
000b84 91e0 0717 	LDS  R30,_tx_counter1
000b86 30e0      	CPI  R30,0
000b87 f0a1      	BREQ _0xA0
                 ;     766    {
                 ;     767    --tx_counter1;
000b88 50e1      	SUBI R30,LOW(1)
000b89 93e0 0717 	STS  _tx_counter1,R30
                 ;     768    UDR1=tx_buffer1[tx_rd_index1++];
000b8b 91e0 0716 	LDS  R30,_tx_rd_index1
000b8d 5fef      	SUBI R30,-LOW(1)
000b8e 93e0 0716 	STS  _tx_rd_index1,R30
000b90 940e 2849 	CALL SUBOPT_0x42
000b92 56eb      	SUBI R30,LOW(-_tx_buffer1)
000b93 4ff9      	SBCI R31,HIGH(-_tx_buffer1)
000b94 81e0      	LD   R30,Z
000b95 93e0 009c 	STS  156,R30
                 ;     769    tx_rd_index1=tx_rd_index1 & (TX_BUFFER_SIZE1-1);
000b97 91e0 0716 	LDS  R30,_tx_rd_index1
000b99 77ef      	ANDI R30,0x7F
000b9a 93e0 0716 	STS  _tx_rd_index1,R30
                 ;     770    };
                 _0xA0:
                 ;     771 }
000b9c 91e9      	LD   R30,Y+
000b9d bfef      	OUT  SREG,R30
000b9e 91f9      	LD   R31,Y+
000b9f 91e9      	LD   R30,Y+
000ba0 9518      	RETI
                 ;     772 
                 ;     773 void com0_putc(char c)
                 ;     774 {
                 _com0_putc:
                 ;     775 if(DEBUG == 1)
                 ;	c -> Y+0
                 ;     776         return;
                 ;     777 while (tx_counter0 == TX_BUFFER_SIZE0);
                 _0xA2:
000ba1 91a0 0694 	LDS  R26,_tx_counter0
000ba3 38a0      	CPI  R26,LOW(0x80)
000ba4 f3e1      	BREQ _0xA2
                 ;     778 #asm("cli")
000ba5 94f8      	cli
                 ;     779 if (tx_counter0 || ((UCSR0A & DATA_REGISTER_EMPTY)==0))
000ba6 91e0 0694 	LDS  R30,_tx_counter0
000ba8 30e0      	CPI  R30,0
000ba9 f411      	BRNE _0xA6
000baa 995d      	SBIC 0xB,5
000bab c016      	RJMP _0xA5
                 _0xA6:
                 ;     780    {
                 ;     781    tx_buffer0[tx_wr_index0++]=c;
000bac 91e0 0692 	LDS  R30,_tx_wr_index0
000bae 5fef      	SUBI R30,-LOW(1)
000baf 93e0 0692 	STS  _tx_wr_index0,R30
000bb1 940e 2849 	CALL SUBOPT_0x42
000bb3 5eee      	SUBI R30,LOW(-_tx_buffer0)
000bb4 4ff9      	SBCI R31,HIGH(-_tx_buffer0)
000bb5 81a8      	LD   R26,Y
000bb6 83a0      	STD  Z+0,R26
                 ;     782    tx_wr_index0 = tx_wr_index0 & (TX_BUFFER_SIZE0-1);
000bb7 91e0 0692 	LDS  R30,_tx_wr_index0
000bb9 77ef      	ANDI R30,0x7F
000bba 93e0 0692 	STS  _tx_wr_index0,R30
                 ;     783    ++tx_counter0;
000bbc 91e0 0694 	LDS  R30,_tx_counter0
000bbe 5fef      	SUBI R30,-LOW(1)
000bbf 93e0 0694 	STS  _tx_counter0,R30
                 ;     784    }
                 ;     785 else
000bc1 c002      	RJMP _0xA8
                 _0xA5:
                 ;     786    UDR0=c;
000bc2 81e8      	LD   R30,Y
000bc3 b9ec      	OUT  0xC,R30
                 ;     787 #asm("sei")
                 _0xA8:
000bc4 9478      	sei
                 ;     788 }
000bc5 9621      	ADIW R28,1
000bc6 9508      	RET
                 ;     789 
                 ;     790 
                 ;     791 void com1_putc(char c)
                 ;     792 {
                 _com1_putc:
                 ;     793 while (tx_counter1 == TX_BUFFER_SIZE1);
                 ;	c -> Y+0
                 _0xA9:
000bc7 91a0 0717 	LDS  R26,_tx_counter1
000bc9 38a0      	CPI  R26,LOW(0x80)
000bca f3e1      	BREQ _0xA9
                 ;     794 #asm("cli")
000bcb 94f8      	cli
                 ;     795 if (tx_counter1 || ((UCSR1A & DATA_REGISTER_EMPTY)==0))
000bcc 91e0 0717 	LDS  R30,_tx_counter1
000bce 30e0      	CPI  R30,0
000bcf f421      	BRNE _0xAD
000bd0 91e0 009b 	LDS  R30,155
000bd2 72e0      	ANDI R30,LOW(0x20)
000bd3 f4b1      	BRNE _0xAC
                 _0xAD:
                 ;     796    {
                 ;     797    tx_buffer1[tx_wr_index1++]=c;
000bd4 91e0 0715 	LDS  R30,_tx_wr_index1
000bd6 5fef      	SUBI R30,-LOW(1)
000bd7 93e0 0715 	STS  _tx_wr_index1,R30
000bd9 940e 2849 	CALL SUBOPT_0x42
000bdb 56eb      	SUBI R30,LOW(-_tx_buffer1)
000bdc 4ff9      	SBCI R31,HIGH(-_tx_buffer1)
000bdd 81a8      	LD   R26,Y
000bde 83a0      	STD  Z+0,R26
                 ;     798    tx_wr_index1 = tx_wr_index1 & (TX_BUFFER_SIZE1-1);
000bdf 91e0 0715 	LDS  R30,_tx_wr_index1
000be1 77ef      	ANDI R30,0x7F
000be2 93e0 0715 	STS  _tx_wr_index1,R30
                 ;     799    ++tx_counter1;
000be4 91e0 0717 	LDS  R30,_tx_counter1
000be6 5fef      	SUBI R30,-LOW(1)
000be7 93e0 0717 	STS  _tx_counter1,R30
                 ;     800    }
                 ;     801 else
000be9 c003      	RJMP _0xAF
                 _0xAC:
                 ;     802    UDR1=c;
000bea 81e8      	LD   R30,Y
000beb 93e0 009c 	STS  156,R30
                 ;     803 #asm("sei")
                 _0xAF:
000bed 9478      	sei
                 ;     804 }
000bee 9621      	ADIW R28,1
000bef 9508      	RET
                 ;     805 
                 ;     806 /*
                 ;     807 void com0_puthex(u8 a)
                 ;     808 {
                 ;     809 	unsigned char h,l;
                 ;     810 	h = (a & 0xf0) >> 4;
                 ;     811 	l = (a & 0x0f);
                 ;     812 	if(h <= 9)
                 ;     813 		com0_putc(h+'0');
                 ;     814 	else
                 ;     815 		com0_putc(h+'A'-0x0a);
                 ;     816 	if(l <= 9)
                 ;     817 		com0_putc(l+'0');
                 ;     818 	else
                 ;     819 		com0_putc(l+'A'-0x0a);
                 ;     820 }
                 ;     821 */
                 ;     822 
                 ;     823 void com0_putstr(u8 *ptr){
                 ;     824         while(*ptr != 0x00){
                 ;	*ptr -> Y+0
                 ;     825                 com0_putc(*ptr++);
                 ;     826         }
                 ;     827 }
                 ;     828 
                 ;     829 void com1_puthex(u8 a)
                 ;     830 {
                 ;     831 	unsigned char h,l;
                 ;     832 	h = (a & 0xf0) >> 4;
                 ;	a -> Y+2
                 ;	h -> R17
                 ;	l -> R16
                 ;     833 	l = (a & 0x0f);
                 ;     834 	if(h <= 9)
                 ;     835 		com1_putc(h+'0');
                 ;     836 	else
                 ;     837 		com1_putc(h+'A'-0x0a);
                 ;     838 	if(l <= 9)
                 ;     839 		com1_putc(l+'0');
                 ;     840 	else
                 ;     841 		com1_putc(l+'A'-0x0a);
                 ;     842 }
                 ;     843 void com1_putstr(u8 *ptr){
                 ;     844         while(*ptr != 0x00){
                 ;	*ptr -> Y+0
                 ;     845                 com1_putc(*ptr++);
                 ;     846         }
                 ;     847 }
                 ;     848 /*
                 ;     849 void com0_mputs(u8 *buf, u8 size){
                 ;     850         while(size-- > 0){
                 ;     851                 com0_puthex(*buf++);
                 ;     852         }
                 ;     853 }
                 ;     854 */
                 ;     855 void com1_mputs(u8 *buf, u8 size){
                 ;     856         while(size-- > 0){
                 ;	*buf -> Y+1
                 ;	size -> Y+0
                 ;     857                 com1_puthex(*buf++);
                 ;     858         }
                 ;     859 }
                 ;     860 
                 ;     861 /*********************************************************************************/
                 ;     862 //                              Intialize UART
                 ;     863 /*********************************************************************************/
                 ;     864 void Init_UART()
                 ;     865 {
                 _Init_UART:
                 ;     866    // USART0 initialization
                 ;     867    // Communication Parameters: 8 Data, 1 Stop, No Parity
                 ;     868    // USART0 Receiver: On
                 ;     869    // USART0 Transmitter: On
                 ;     870    // USART0 Mode: Asynchronous
                 ;     871    // USART0 Baud rate: 115200 (0x7), 57600 (0xF), 38400 (0x17), 19200 (2F), 9600(0x5F)
                 ;     872       UCSR0A=0x00;
000bf0 e0e0      	LDI  R30,LOW(0)
000bf1 b9eb      	OUT  0xB,R30
                 ;     873       UCSR0B=0xD8;
000bf2 ede8      	LDI  R30,LOW(216)
000bf3 b9ea      	OUT  0xA,R30
                 ;     874       UCSR0C=0x06;
000bf4 e0e6      	LDI  R30,LOW(6)
000bf5 93e0 0095 	STS  149,R30
                 ;     875       UBRR0H=0x00;
000bf7 e0e0      	LDI  R30,LOW(0)
000bf8 93e0 0090 	STS  144,R30
                 ;     876       UBRR0L=0x0F;
000bfa e0ef      	LDI  R30,LOW(15)
000bfb b9e9      	OUT  0x9,R30
                 ;     877 
                 ;     878    // USART1 initialization
                 ;     879    // Communication Parameters: 8 Data, 1 Stop, No Parity
                 ;     880    // USART1 Receiver: On
                 ;     881    // USART1 Transmitter: On
                 ;     882    // USART1 Mode: Asynchronous
                 ;     883    // USART0 Baud rate: 115200 (0x7), 57600 (0xF), 38400 (0x17), 19200 (2F), 9600(0x5F)
                 ;     884       UCSR1A=0x00;
000bfc e0e0      	LDI  R30,LOW(0)
000bfd 93e0 009b 	STS  155,R30
                 ;     885       UCSR1B=0xD8;
000bff ede8      	LDI  R30,LOW(216)
000c00 93e0 009a 	STS  154,R30
                 ;     886       UCSR1C=0x06;
000c02 e0e6      	LDI  R30,LOW(6)
000c03 93e0 009d 	STS  157,R30
                 ;     887       UBRR1H=0x00;
000c05 e0e0      	LDI  R30,LOW(0)
000c06 93e0 0098 	STS  152,R30
                 ;     888       UBRR1L=0x0F;
000c08 e0ef      	LDI  R30,LOW(15)
000c09 93e0 0099 	STS  153,R30
                 ;     889 
                 ;     890    // Initialize buffer variables
                 ;     891       tx_wr_index0 = 0;
000c0b e0e0      	LDI  R30,LOW(0)
000c0c 93e0 0692 	STS  _tx_wr_index0,R30
                 ;     892       tx_rd_index0 = 0;
000c0e 93e0 0693 	STS  _tx_rd_index0,R30
                 ;     893       tx_counter0  = 0;
000c10 93e0 0694 	STS  _tx_counter0,R30
                 ;     894 
                 ;     895       tx_wr_index1 = 0;
000c12 93e0 0715 	STS  _tx_wr_index1,R30
                 ;     896       tx_rd_index1 = 0;
000c14 93e0 0716 	STS  _tx_rd_index1,R30
                 ;     897       tx_counter1  = 0;
000c16 93e0 0717 	STS  _tx_counter1,R30
                 ;     898 }
000c18 9508      	RET
                 ;     899 /********************************************************************************/
                 ;     900 //                             TL16C554 Driver
                 ;     901 // Controller:  MEGA64
                 ;     902 // 16C554 clk:  7.3728MHZ
                 ;     903 //
                 ;     904 // Schematic Description:
                 ;     905 // 16C554 <---> MEGA64
                 ;     906 // INTA   <---> INT4
                 ;     907 // INTB   <---> INT5
                 ;     908 // INTC   <---> INT6
                 ;     909 // INTD   <---> INT7
                 ;     910 // CSA#   <---> A15
                 ;     911 // CSB#   <---> A14
                 ;     912 // CSC#   <---> A13
                 ;     913 // CSD#   <---> A12
                 ;     914 //   A0   <---> A8
                 ;     915 //   A1   <---> A9
                 ;     916 //   A2   <---> A10
                 ;     917 // RESET  <---> PB0
                 ;     918 // INTN#  <---> PE2
                 ;     919 
                 ;     920 // Coded by: fd_lxh@yahoo.com.cn
                 ;     921 /********************************************************************************/
                 ;     922 #include "mega64.h"
                 ;     923 #include "global.h"
                 ;     924 #include "16c554.h"
                 ;     925 #include "uart.h"
                 ;     926 
                 ;     927 #define FCR_DATA 0b00000111   // FIFO trigger level: 1 byte
                 ;     928 #define IER_DATA 0b00000001
                 ;     929 // LCR.7 must be cleared to 0 when accessing RBR/THR/IER
                 ;     930 // LCR.7 must be set to 1 when accessing divisor latch
                 ;     931 #define LCR_DATA 0b00011011   // Even Parity 8 data bit, 1 stop bit
                 ;     932 #define DLL_DATA 0x30          // 115200bps: DLL = 0x4, 57600bps: DLL= 0x8, 38400 0xC: 9600 : 0x30
                 ;     933 #define DLM_DATA 0x0
                 ;     934 #define MCR_DATA 0b00001000
                 ;     935 
                 ;     936 #define min(A,B)        ((A<B)?(A):(B))
                 ;     937 /********************************************************************************/
                 ;     938 //               TLC16C554 UART PORT A Interrupt Subroutine
                 ;     939 /********************************************************************************/
                 ;     940 interrupt [EXT_INT4] void ext_int4_isr(void)
                 ;     941 {
                 _ext_int4_isr:
000c19 940e 284c 	CALL SUBOPT_0x43
                 ;     942    u8 rundata;
                 ;     943    switch(UC_554A_IIR & 0xF)
                 ;	rundata -> R17
000c1b 91e0 7200 	LDS  R30,29184
000c1d 70ef      	ANDI R30,LOW(0xF)
                 ;     944    {
                 ;     945       case 0xC:                         // character time out. RBR read to clear interrupt
000c1e 30ec      	CPI  R30,LOW(0xC)
000c1f f419      	BRNE _0xC0
                 ;     946           rundata = UC_554D_RBR;        // read data from receiver FIFO. RBR read to clear int
000c20 9110 e000 	LDS  R17,57344
                 ;     947           break;
000c22 c009      	RJMP _0xBF
                 ;     948       case 0x4:                         // Receiver data available or trigger level reached
                 _0xC0:
000c23 30e4      	CPI  R30,LOW(0x4)
000c24 f439      	BRNE _0xC2
                 ;     949           rundata = UC_554A_RBR;        // read data from receiver FIFO. RBR read to clear int
000c25 9110 7000 	LDS  R17,28672
                 ;     950           cm_pushA(rundata);
000c27 931a      	ST   -Y,R17
000c28 d722      	RCALL _pc_uart_push
                 ;     951           return;
000c29 940e 285b 	CALL SUBOPT_0x44
000c2b 9518      	RETI
                 ;     952       default:
                 _0xC2:
                 ;     953           break;
                 ;     954    }
                 _0xBF:
                 ;     955 
                 ;     956    rundata = UC_554A_LSR;        // read LSR to clear interrupt. dummy read
000c2c 9110 7500 	LDS  R17,29952
                 ;     957 }
000c2e 940e 285b 	CALL SUBOPT_0x44
000c30 9518      	RETI
                 ;     958 /********************************************************************************/
                 ;     959 //               TLC16C554 UART PORT B Interrupt Subroutine
                 ;     960 /********************************************************************************/
                 ;     961 // External Interrupt 5 service routine
                 ;     962 interrupt [EXT_INT5] void ext_int5_isr(void)
                 ;     963 {
                 _ext_int5_isr:
000c31 940e 284c 	CALL SUBOPT_0x43
                 ;     964    u8 rundata;
                 ;     965    switch(UC_554B_IIR & 0xF)
                 ;	rundata -> R17
000c33 91e0 b200 	LDS  R30,45568
000c35 70ef      	ANDI R30,LOW(0xF)
                 ;     966    {
                 ;     967       case 0xC:                         // character time out. RBR read to clear interrupt
000c36 30ec      	CPI  R30,LOW(0xC)
000c37 f419      	BRNE _0xC6
                 ;     968           rundata = UC_554D_RBR;        // read data from receiver FIFO. RBR read to clear int
000c38 9110 e000 	LDS  R17,57344
                 ;     969           break;
000c3a c009      	RJMP _0xC5
                 ;     970       case 0x4:                         // Receiver data available or trigger level reached
                 _0xC6:
000c3b 30e4      	CPI  R30,LOW(0x4)
000c3c f439      	BRNE _0xC8
                 ;     971           rundata = UC_554B_RBR;        // read data from receiver FIFO. RBR read to clear int
000c3d 9110 b000 	LDS  R17,45056
                 ;     972           cm_pushB(rundata);
000c3f 931a      	ST   -Y,R17
000c40 d709      	RCALL _scanner_uart_push
                 ;     973           return;
000c41 940e 285b 	CALL SUBOPT_0x44
000c43 9518      	RETI
                 ;     974       default:
                 _0xC8:
                 ;     975           break;
                 ;     976    }
                 _0xC5:
                 ;     977    rundata = UC_554B_LSR;        // read LSR to clear interrupt. dummy read
000c44 9110 b500 	LDS  R17,46336
                 ;     978 }
000c46 940e 285b 	CALL SUBOPT_0x44
000c48 9518      	RETI
                 ;     979 /********************************************************************************/
                 ;     980 //               TLC16C554 UART PORT C Interrupt Subroutine
                 ;     981 /********************************************************************************/
                 ;     982 // External Interrupt 6 service routine
                 ;     983 interrupt [EXT_INT6] void ext_int6_isr(void)
                 ;     984 {
                 _ext_int6_isr:
000c49 940e 284c 	CALL SUBOPT_0x43
                 ;     985    u8 rundata;
                 ;     986    switch(UC_554C_IIR & 0xF)
                 ;	rundata -> R17
000c4b 91e0 d200 	LDS  R30,53760
000c4d 70ef      	ANDI R30,LOW(0xF)
                 ;     987    {
                 ;     988       case 0xC:                         // character time out. RBR read to clear interrupt
000c4e 30ec      	CPI  R30,LOW(0xC)
000c4f f419      	BRNE _0xCC
                 ;     989           rundata = UC_554D_RBR;        // read data from receiver FIFO. RBR read to clear int
000c50 9110 e000 	LDS  R17,57344
                 ;     990           break;
000c52 c00a      	RJMP _0xCB
                 ;     991       case 0x4:                         // Receiver data available or trigger level reached
                 _0xCC:
000c53 30e4      	CPI  R30,LOW(0x4)
000c54 f441      	BRNE _0xCE
                 ;     992           rundata = UC_554C_RBR;        // read data from receiver FIFO. RBR read to clear int
000c55 9110 d000 	LDS  R17,53248
                 ;     993           cm_pushC(rundata);
000c57 931a      	ST   -Y,R17
000c58 940e 0984 	CALL _testA
                 ;     994           return;
000c5a 940e 285b 	CALL SUBOPT_0x44
000c5c 9518      	RETI
                 ;     995       default:
                 _0xCE:
                 ;     996           break;
                 ;     997    }
                 _0xCB:
                 ;     998 
                 ;     999    rundata = UC_554C_LSR;        // read LSR to clear interrupt. dummy read
000c5d 9110 d500 	LDS  R17,54528
                 ;    1000 }
000c5f 940e 285b 	CALL SUBOPT_0x44
000c61 9518      	RETI
                 ;    1001 
                 ;    1002 /********************************************************************************/
                 ;    1003 //               TLC16C554 UART PORT D Interrupt Subroutine
                 ;    1004 /********************************************************************************/
                 ;    1005 // External Interrupt 7 service routine
                 ;    1006 interrupt [EXT_INT7] void ext_int7_isr(void)
                 ;    1007 {
                 _ext_int7_isr:
000c62 940e 284c 	CALL SUBOPT_0x43
                 ;    1008    u8 rundata;
                 ;    1009    switch(UC_554D_IIR & 0xF)
                 ;	rundata -> R17
000c64 91e0 e200 	LDS  R30,57856
000c66 70ef      	ANDI R30,LOW(0xF)
                 ;    1010    {
                 ;    1011       case 0xC:                         // character time out. RBR read to clear interrupt
000c67 30ec      	CPI  R30,LOW(0xC)
000c68 f419      	BRNE _0xD2
                 ;    1012           rundata = UC_554D_RBR;        // read data from receiver FIFO. RBR read to clear int
000c69 9110 e000 	LDS  R17,57344
                 ;    1013           break;
000c6b c00a      	RJMP _0xD1
                 ;    1014       case 0x4:                         // Receiver data available or trigger level reached
                 _0xD2:
000c6c 30e4      	CPI  R30,LOW(0x4)
000c6d f441      	BRNE _0xD4
                 ;    1015           rundata = UC_554D_RBR;        // read data from receiver FIFO. RBR read to clear int
000c6e 9110 e000 	LDS  R17,57344
                 ;    1016           cm_pushD(rundata);
000c70 931a      	ST   -Y,R17
000c71 940e 0984 	CALL _testA
                 ;    1017           return;
000c73 940e 285b 	CALL SUBOPT_0x44
000c75 9518      	RETI
                 ;    1018       default:
                 _0xD4:
                 ;    1019           break;
                 ;    1020    }
                 _0xD1:
                 ;    1021    rundata = UC_554D_LSR;        // read LSR to clear interrupt. dummy read
000c76 9110 e500 	LDS  R17,58624
                 ;    1022 }
000c78 940e 285b 	CALL SUBOPT_0x44
000c7a 9518      	RETI
                 ;    1023 
                 ;    1024 /********************************************************************************/
                 ;    1025 //                             Reset 16C554
                 ;    1026 /********************************************************************************/
                 ;    1027 void Reset_554(void)
                 ;    1028 {
                 _Reset_554:
                 ;    1029    // reset 16C554. Reset pin of 16C554 is connected to PB0 of MEGA64
                 ;    1030       PORTB.0 = 1;
000c7b 9ac0      	SBI  0x18,0
                 ;    1031       sleepms(500);    // Delay
000c7c efe4      	LDI  R30,LOW(500)
000c7d e0f1      	LDI  R31,HIGH(500)
000c7e 940e 27c0 	CALL SUBOPT_0x32
                 ;    1032       PORTB.0 = 0;     // Recover from reset
000c80 98c0      	CBI  0x18,0
                 ;    1033       sleepms(500);    // Delay
000c81 efe4      	LDI  R30,LOW(500)
000c82 e0f1      	LDI  R31,HIGH(500)
000c83 940e 27c0 	CALL SUBOPT_0x32
                 ;    1034 }
000c85 9508      	RET
                 ;    1035 /********************************************************************************/
                 ;    1036 //                             Initialize 16C554
                 ;    1037 /********************************************************************************/
                 ;    1038 void Init_554(void)
                 ;    1039 {
                 _Init_554:
                 ;    1040       Reset_554();  // Reset 554
000c86 940e 0c7b 	CALL _Reset_554
                 ;    1041 
                 ;    1042    /********************************************************************/
                 ;    1043    //                      Initialize UART A
                 ;    1044    /********************************************************************/
                 ;    1045    // Set Baud rate: 115200bps (0x4), 57600bps (0x8), 38400bps (0xC)
                 ;    1046       UC_554A_LCR = 0x80;
000c88 e8e0      	LDI  R30,LOW(128)
000c89 93e0 7300 	STS  29440,R30
                 ;    1047       UC_554A_DLL = DLL_DATA;
000c8b e3e0      	LDI  R30,LOW(48)
000c8c 93e0 7000 	STS  28672,R30
                 ;    1048       UC_554A_DLM = DLM_DATA;
000c8e e0e0      	LDI  R30,LOW(0)
000c8f 93e0 7100 	STS  28928,R30
                 ;    1049 
                 ;    1050    // Set Line Control Register:
                 ;    1051    // 8 data bits, 1 stop bit, Even Parity, LCR7 = 1 to access divisor latches.
                 ;    1052       UC_554A_LCR = LCR_DATA;
000c91 e1eb      	LDI  R30,LOW(27)
000c92 93e0 7300 	STS  29440,R30
                 ;    1053 
                 ;    1054    // Set FIFO Control Register:
                 ;    1055    // Enable FIFO, Clear buffer, reset counter, trigger level at 14 bytes.
                 ;    1056       UC_554A_FCR = FCR_DATA;
000c94 e0e7      	LDI  R30,LOW(7)
000c95 93e0 7200 	STS  29184,R30
                 ;    1057 
                 ;    1058    // Set Modem Control Register:
                 ;    1059    // Enable enternal interrupt
                 ;    1060       UC_554A_MCR = MCR_DATA;
000c97 e0e8      	LDI  R30,LOW(8)
000c98 93e0 7400 	STS  29696,R30
                 ;    1061 
                 ;    1062    // Set Interrupt Enable Register:
                 ;    1063    // Enable Received data available / timeout / transmitter holding register empty &
                 ;    1064    // Receiver line status interrupt
                 ;    1065       UC_554A_IER = IER_DATA;
000c9a e0e1      	LDI  R30,LOW(1)
000c9b 93e0 7100 	STS  28928,R30
                 ;    1066 
                 ;    1067    /********************************************************************/
                 ;    1068    //                      Initialize UART B
                 ;    1069    /********************************************************************/
                 ;    1070    // Set Baud rate: 115200bps (0x4), 57600bps (0x8), 38400bps (0xC)
                 ;    1071    // LCR.7 must be set to "1" before setting baud rate
                 ;    1072       UC_554B_LCR = 0x80;
000c9d e8e0      	LDI  R30,LOW(128)
000c9e 93e0 b300 	STS  45824,R30
                 ;    1073       UC_554B_DLL = DLL_DATA;
000ca0 e3e0      	LDI  R30,LOW(48)
000ca1 93e0 b000 	STS  45056,R30
                 ;    1074       UC_554B_DLM = DLM_DATA;
000ca3 e0e0      	LDI  R30,LOW(0)
000ca4 93e0 b100 	STS  45312,R30
                 ;    1075 
                 ;    1076    // Set Line Control Register:
                 ;    1077    // 8 data bits, 1 stop bit, Even Parity, LCR7 = 1 to access divisor latches.
                 ;    1078       UC_554B_LCR = LCR_DATA;
000ca6 e1eb      	LDI  R30,LOW(27)
000ca7 93e0 b300 	STS  45824,R30
                 ;    1079 
                 ;    1080    // Set FIFO Control Register:
                 ;    1081    // Enable FIFO, Clear buffer, reset counter, trigger level at 14 bytes.
                 ;    1082       UC_554B_FCR = FCR_DATA;
000ca9 e0e7      	LDI  R30,LOW(7)
000caa 93e0 b200 	STS  45568,R30
                 ;    1083 
                 ;    1084    // Set Modem Control Register:
                 ;    1085    // Enable enternal interrupt
                 ;    1086       UC_554B_MCR = MCR_DATA;
000cac e0e8      	LDI  R30,LOW(8)
000cad 93e0 b400 	STS  46080,R30
                 ;    1087 
                 ;    1088    // Set Interrupt Enable Register:
                 ;    1089    // Enable Received data available / timeout / transmitter holding register empty &
                 ;    1090    // Receiver line status interrupt
                 ;    1091       UC_554B_IER = IER_DATA;
000caf e0e1      	LDI  R30,LOW(1)
000cb0 93e0 b100 	STS  45312,R30
                 ;    1092 
                 ;    1093    /********************************************************************/
                 ;    1094    //                      Initialize UART C
                 ;    1095    /********************************************************************/
                 ;    1096    // Set Baud rate: 115200bps (0x4), 57600bps (0x8), 38400bps (0xC)
                 ;    1097       UC_554C_LCR = 0x80;
000cb2 e8e0      	LDI  R30,LOW(128)
000cb3 93e0 d300 	STS  54016,R30
                 ;    1098       UC_554C_DLL = DLL_DATA;
000cb5 e3e0      	LDI  R30,LOW(48)
000cb6 93e0 d000 	STS  53248,R30
                 ;    1099       UC_554C_DLM = DLM_DATA;
000cb8 e0e0      	LDI  R30,LOW(0)
000cb9 93e0 d100 	STS  53504,R30
                 ;    1100 
                 ;    1101    // Set Line Control Register:
                 ;    1102    // 8 data bits, 1 stop bit, Even Parity, LCR7 = 1 to access divisor latches.
                 ;    1103       UC_554C_LCR = LCR_DATA;
000cbb e1eb      	LDI  R30,LOW(27)
000cbc 93e0 d300 	STS  54016,R30
                 ;    1104 
                 ;    1105    // Set FIFO Control Register:
                 ;    1106    // Enable FIFO, Clear buffer, reset counter, trigger level at 14 bytes.
                 ;    1107       UC_554C_FCR = FCR_DATA;
000cbe e0e7      	LDI  R30,LOW(7)
000cbf 93e0 d200 	STS  53760,R30
                 ;    1108 
                 ;    1109    // Set Modem Control Register:
                 ;    1110    // Enable enternal interrupt
                 ;    1111       UC_554C_MCR = MCR_DATA;
000cc1 e0e8      	LDI  R30,LOW(8)
000cc2 93e0 d400 	STS  54272,R30
                 ;    1112 
                 ;    1113    // Set Interrupt Enable Register:
                 ;    1114    // Enable Received data available / timeout / transmitter holding register empty &
                 ;    1115    // Receiver line status interrupt
                 ;    1116       UC_554C_IER = IER_DATA;
000cc4 e0e1      	LDI  R30,LOW(1)
000cc5 93e0 d100 	STS  53504,R30
                 ;    1117 
                 ;    1118    /********************************************************************/
                 ;    1119    //                      Initialize UART D
                 ;    1120    /********************************************************************/
                 ;    1121    // Set Baud rate: 115200bps (0x4), 57600bps (0x8), 38400bps (0xC)
                 ;    1122       UC_554D_LCR = 0x80;
000cc7 e8e0      	LDI  R30,LOW(128)
000cc8 93e0 e300 	STS  58112,R30
                 ;    1123       UC_554D_DLL = DLL_DATA;
000cca e3e0      	LDI  R30,LOW(48)
000ccb 93e0 e000 	STS  57344,R30
                 ;    1124       UC_554D_DLM = DLM_DATA;
000ccd e0e0      	LDI  R30,LOW(0)
000cce 93e0 e100 	STS  57600,R30
                 ;    1125 
                 ;    1126    // Set Line Control Register:
                 ;    1127    // 8 data bits, 1 stop bit, Even Parity, LCR7 = 1 to access divisor latches.
                 ;    1128       UC_554D_LCR = LCR_DATA;
000cd0 e1eb      	LDI  R30,LOW(27)
000cd1 93e0 e300 	STS  58112,R30
                 ;    1129 
                 ;    1130    // Set FIFO Control Register:
                 ;    1131    // Enable FIFO, Clear buffer, reset counter, trigger level at 14 bytes.
                 ;    1132       UC_554D_FCR = FCR_DATA;
000cd3 e0e7      	LDI  R30,LOW(7)
000cd4 93e0 e200 	STS  57856,R30
                 ;    1133 
                 ;    1134    // Set Modem Control Register:
                 ;    1135    // Enable enternal interrupt
                 ;    1136       UC_554D_MCR = MCR_DATA;
000cd6 e0e8      	LDI  R30,LOW(8)
000cd7 93e0 e400 	STS  58368,R30
                 ;    1137 
                 ;    1138    // Set Interrupt Enable Register:
                 ;    1139    // Enable Received data available / timeout / transmitter holding register empty &
                 ;    1140    // Receiver line status interrupt
                 ;    1141       UC_554D_IER = IER_DATA;
000cd9 e0e1      	LDI  R30,LOW(1)
000cda 93e0 e100 	STS  57600,R30
                 ;    1142 }
000cdc 9508      	RET
                 ;    1143 
                 ;    1144 
                 ;    1145 /********************************************************************************/
                 ;    1146 //                 Send multi-bytes (less than 16 bytes) via UART
                 ;    1147 // Function:
                 ;    1148 // Send multi-bytes ( < 16 Bytes) through the port specified by "uart_port"
                 ;    1149 // format:
                 ;    1150 // print_554(u8 *str, char uart_port)
                 ;    1151 // arg1: string to be sent. arg2: port (A B,C,D)
                 ;    1152 /********************************************************************************/
                 ;    1153 void prints(u8 *str, u8 length, char uart_port)
                 ;    1154 {
                 _prints:
                 ;    1155     u8 len, i;
                 ;    1156     len = length & 0x0F;        //15bytes at most
000cdd 931a      	ST   -Y,R17
000cde 930a      	ST   -Y,R16
                 ;	*str -> Y+4
                 ;	length -> Y+3
                 ;	uart_port -> Y+2
                 ;	len -> R17
                 ;	i -> R16
000cdf 81eb      	LDD  R30,Y+3
000ce0 70ef      	ANDI R30,LOW(0xF)
000ce1 2f1e      	MOV  R17,R30
                 ;    1157     switch(uart_port)
000ce2 81ea      	LDD  R30,Y+2
                 ;    1158     {
                 ;    1159        case SPORTA:
000ce3 30e0      	CPI  R30,0
000ce4 f4e1      	BRNE _0xD8
                 ;    1160            // wait if data still being transmitted in UART
                 ;    1161            // LSR5: Transmitter Holding Register Empty, 1 Empty, 0: Not Empty
                 ;    1162            // LSR6: Transmitter Register Empty. 1 Empty, 0: Not Empty.
                 ;    1163            // check if FIFO is empty by LSR5.
                 ;    1164            // Note: (UC_554A_LSR) & 0x20 bracket here is necessary because
                 ;    1165            // UC_554A_LSR is not a register name,
                 ;    1166            // it is replaced by "*(volatile u8 *)(UARTA_BASE_ADDR+0x300)" during compilation
                 ;    1167            // thus UC_554A_LSR & 0x20 actually means *(volatile u8 *) ((UARTA_BASE_ADDR+0x300) & 0x20)
                 ;    1168            // here in 16c554.h, a bracket is added
                 ;    1169            while(len)
                 _0xD9:
000ce5 3010      	CPI  R17,0
000ce6 f0c9      	BREQ _0xDB
                 ;    1170            {
                 ;    1171               while( !(UC_554A_LSR & 0x20) );  /* wait for FIFO to be empty */
                 _0xDC:
000ce7 91e0 7500 	LDS  R30,29952
000ce9 72e0      	ANDI R30,LOW(0x20)
000cea f3e1      	BREQ _0xDC
                 ;    1172               for(i=0; i < min(len,16); i++)   /* fill FIFO with 16 bytes  */
000ceb e000      	LDI  R16,LOW(0)
                 _0xE0:
000cec 3110      	CPI  R17,16
000ced f410      	BRSH _0xE2
000cee 2fe1      	MOV  R30,R17
000cef c001      	RJMP _0xE3
                 _0xE2:
000cf0 e1e0      	LDI  R30,LOW(16)
                 _0xE3:
000cf1 170e      	CP   R16,R30
000cf2 f430      	BRSH _0xE1
                 ;    1173                   UC_554A_THR = *str++;
000cf3 940e 286a 	CALL SUBOPT_0x45
000cf5 93e0 7000 	STS  28672,R30
                 ;    1174               len = len - min(len,16);
000cf7 5f0f      	SUBI R16,-1
000cf8 cff3      	RJMP _0xE0
                 _0xE1:
000cf9 3110      	CPI  R17,16
000cfa f410      	BRSH _0xE5
000cfb 2fe1      	MOV  R30,R17
000cfc c001      	RJMP _0xE6
                 _0xE5:
000cfd e1e0      	LDI  R30,LOW(16)
                 _0xE6:
000cfe 1b1e      	SUB  R17,R30
                 ;    1175            }
000cff cfe5      	RJMP _0xD9
                 _0xDB:
                 ;    1176            break;
000d00 c076      	RJMP _0xD7
                 ;    1177        case SPORTB:
                 _0xD8:
000d01 30e1      	CPI  R30,LOW(0x1)
000d02 f4e1      	BRNE _0xE8
                 ;    1178            while(len)
                 _0xE9:
000d03 3010      	CPI  R17,0
000d04 f0c9      	BREQ _0xEB
                 ;    1179            {
                 ;    1180               while( !(UC_554B_LSR & 0x20) );  /* wait for FIFO to be empty */
                 _0xEC:
000d05 91e0 b500 	LDS  R30,46336
000d07 72e0      	ANDI R30,LOW(0x20)
000d08 f3e1      	BREQ _0xEC
                 ;    1181               for(i=0; i < min(len,16); i++)   /* fill FIFO with 16 bytes  */
000d09 e000      	LDI  R16,LOW(0)
                 _0xF0:
000d0a 3110      	CPI  R17,16
000d0b f410      	BRSH _0xF2
000d0c 2fe1      	MOV  R30,R17
000d0d c001      	RJMP _0xF3
                 _0xF2:
000d0e e1e0      	LDI  R30,LOW(16)
                 _0xF3:
000d0f 170e      	CP   R16,R30
000d10 f430      	BRSH _0xF1
                 ;    1182                   UC_554B_THR = *str++;
000d11 940e 286a 	CALL SUBOPT_0x45
000d13 93e0 b000 	STS  45056,R30
                 ;    1183               len = len - min(len,16);
000d15 5f0f      	SUBI R16,-1
000d16 cff3      	RJMP _0xF0
                 _0xF1:
000d17 3110      	CPI  R17,16
000d18 f410      	BRSH _0xF5
000d19 2fe1      	MOV  R30,R17
000d1a c001      	RJMP _0xF6
                 _0xF5:
000d1b e1e0      	LDI  R30,LOW(16)
                 _0xF6:
000d1c 1b1e      	SUB  R17,R30
                 ;    1184            }
000d1d cfe5      	RJMP _0xE9
                 _0xEB:
                 ;    1185            break;
000d1e c058      	RJMP _0xD7
                 ;    1186        case SPORTC:
                 _0xE8:
000d1f 30e2      	CPI  R30,LOW(0x2)
000d20 f4e1      	BRNE _0xF8
                 ;    1187            while(len)
                 _0xF9:
000d21 3010      	CPI  R17,0
000d22 f0c9      	BREQ _0xFB
                 ;    1188            {
                 ;    1189               while( !(UC_554C_LSR & 0x20) );  /* wait for FIFO to be empty */
                 _0xFC:
000d23 91e0 d500 	LDS  R30,54528
000d25 72e0      	ANDI R30,LOW(0x20)
000d26 f3e1      	BREQ _0xFC
                 ;    1190               for(i=0; i < min(len,16); i++)   /* fill FIFO with 16 bytes  */
000d27 e000      	LDI  R16,LOW(0)
                 _0x100:
000d28 3110      	CPI  R17,16
000d29 f410      	BRSH _0x102
000d2a 2fe1      	MOV  R30,R17
000d2b c001      	RJMP _0x103
                 _0x102:
000d2c e1e0      	LDI  R30,LOW(16)
                 _0x103:
000d2d 170e      	CP   R16,R30
000d2e f430      	BRSH _0x101
                 ;    1191                   UC_554C_THR = *str++;
000d2f 940e 286a 	CALL SUBOPT_0x45
000d31 93e0 d000 	STS  53248,R30
                 ;    1192               len = len - min(len,16);
000d33 5f0f      	SUBI R16,-1
000d34 cff3      	RJMP _0x100
                 _0x101:
000d35 3110      	CPI  R17,16
000d36 f410      	BRSH _0x105
000d37 2fe1      	MOV  R30,R17
000d38 c001      	RJMP _0x106
                 _0x105:
000d39 e1e0      	LDI  R30,LOW(16)
                 _0x106:
000d3a 1b1e      	SUB  R17,R30
                 ;    1193            }
000d3b cfe5      	RJMP _0xF9
                 _0xFB:
                 ;    1194 
                 ;    1195            break;
000d3c c03a      	RJMP _0xD7
                 ;    1196        case SPORTD:
                 _0xF8:
000d3d 30e3      	CPI  R30,LOW(0x3)
000d3e f4e1      	BRNE _0x108
                 ;    1197            while(len)
                 _0x109:
000d3f 3010      	CPI  R17,0
000d40 f0c9      	BREQ _0x10B
                 ;    1198            {
                 ;    1199               while( !(UC_554D_LSR & 0x20) );  /* wait for FIFO to be empty */
                 _0x10C:
000d41 91e0 e500 	LDS  R30,58624
000d43 72e0      	ANDI R30,LOW(0x20)
000d44 f3e1      	BREQ _0x10C
                 ;    1200               for(i=0; i < min(len,16); i++)   /* fill FIFO with 16 bytes  */
000d45 e000      	LDI  R16,LOW(0)
                 _0x110:
000d46 3110      	CPI  R17,16
000d47 f410      	BRSH _0x112
000d48 2fe1      	MOV  R30,R17
000d49 c001      	RJMP _0x113
                 _0x112:
000d4a e1e0      	LDI  R30,LOW(16)
                 _0x113:
000d4b 170e      	CP   R16,R30
000d4c f430      	BRSH _0x111
                 ;    1201                   UC_554D_THR = *str++;
000d4d 940e 286a 	CALL SUBOPT_0x45
000d4f 93e0 e000 	STS  57344,R30
                 ;    1202               len = len - min(len,16);
000d51 5f0f      	SUBI R16,-1
000d52 cff3      	RJMP _0x110
                 _0x111:
000d53 3110      	CPI  R17,16
000d54 f410      	BRSH _0x115
000d55 2fe1      	MOV  R30,R17
000d56 c001      	RJMP _0x116
                 _0x115:
000d57 e1e0      	LDI  R30,LOW(16)
                 _0x116:
000d58 1b1e      	SUB  R17,R30
                 ;    1203            }
000d59 cfe5      	RJMP _0x109
                 _0x10B:
                 ;    1204            break;
000d5a c01c      	RJMP _0xD7
                 ;    1205        case SPORT0:
                 _0x108:
000d5b 30e4      	CPI  R30,LOW(0x4)
000d5c f459      	BRNE _0x118
                 ;    1206            while(len-- > 0){
                 _0x119:
000d5d 2fa1      	MOV  R26,R17
000d5e 5011      	SUBI R17,1
000d5f 30a1      	CPI  R26,LOW(0x1)
000d60 f030      	BRLO _0x11B
                 ;    1207                 com0_putc(*str++);
000d61 940e 286a 	CALL SUBOPT_0x45
000d63 93ea      	ST   -Y,R30
000d64 940e 0ba1 	CALL _com0_putc
                 ;    1208            }
000d66 cff6      	RJMP _0x119
                 _0x11B:
                 ;    1209            break;
000d67 c00f      	RJMP _0xD7
                 ;    1210        case SPORT1:
                 _0x118:
000d68 30e5      	CPI  R30,LOW(0x5)
000d69 f459      	BRNE _0x120
                 ;    1211            while(len-- > 0){
                 _0x11D:
000d6a 2fa1      	MOV  R26,R17
000d6b 5011      	SUBI R17,1
000d6c 30a1      	CPI  R26,LOW(0x1)
000d6d f030      	BRLO _0x11F
                 ;    1212                 com1_putc(*str++);
000d6e 940e 286a 	CALL SUBOPT_0x45
000d70 93ea      	ST   -Y,R30
000d71 940e 0bc7 	CALL _com1_putc
                 ;    1213            }
000d73 cff6      	RJMP _0x11D
                 _0x11F:
                 ;    1214            break;
000d74 c002      	RJMP _0xD7
                 ;    1215        default:
                 _0x120:
                 ;    1216            PORTC = 0xF0;
000d75 efe0      	LDI  R30,LOW(240)
000d76 bbe5      	OUT  0x15,R30
                 ;    1217            break;
                 ;    1218     }
                 _0xD7:
                 ;    1219 }
000d77 8119      	LDD  R17,Y+1
000d78 8108      	LDD  R16,Y+0
000d79 9626      	ADIW R28,6
000d7a 9508      	RET
                 ;    1220 
                 ;    1221 
                 ;    1222 // System Initialization file
                 ;    1223 
                 ;    1224 #include <mega64.h>
                 ;    1225 #include "global.h"
                 ;    1226 /**************************************************************************************/
                 ;    1227 //                              Initialize Port A-G
                 ;    1228 /**************************************************************************************/
                 ;    1229 void Init_Port()
                 ;    1230 {
                 _Init_Port:
                 ;    1231  // Input/Output Ports initialization
                 ;    1232  // Port A initialization
                 ;    1233  // Func7=In Func6=In Func5=In Func4=In Func3=In Func2=In Func1=In Func0=In
                 ;    1234  // State7=T State6=T State5=T State4=T State3=T State2=T State1=T State0=T
                 ;    1235     PORTA=0x00;
000d7b e0e0      	LDI  R30,LOW(0)
000d7c bbeb      	OUT  0x1B,R30
                 ;    1236     DDRA=0x00;
000d7d bbea      	OUT  0x1A,R30
                 ;    1237 
                 ;    1238  // Port B initialization
                 ;    1239  // Func7=Out Func6=Out Func5=Out Func4=Out Func3=In Func2=In Func1=In Func0=Out
                 ;    1240  // State7=T State6=T State5=T State4=T State3=T State2=T State1=T State0=1
                 ;    1241  // Use PORTB[7:4] as LED output, 0 -> LED ON
                 ;    1242     PORTB=0x01;
000d7e e0e1      	LDI  R30,LOW(1)
000d7f bbe8      	OUT  0x18,R30
                 ;    1243     DDRB=0xF1;
000d80 efe1      	LDI  R30,LOW(241)
000d81 bbe7      	OUT  0x17,R30
                 ;    1244 
                 ;    1245  // Port C initialization
                 ;    1246  // Func7=Out Func6=Out Func5=Out Func4=Out Func3=Out Func2=Out Func1=Out Func0=Out
                 ;    1247  // State7=1 State6=1 State5=1 State4=1 State3=0 State2=0 State1=0 State0=0
                 ;    1248     PORTC=0xF0;
000d82 efe0      	LDI  R30,LOW(240)
000d83 bbe5      	OUT  0x15,R30
                 ;    1249     DDRC=0xFF;
000d84 efef      	LDI  R30,LOW(255)
000d85 bbe4      	OUT  0x14,R30
                 ;    1250 
                 ;    1251  // Port D initialization
                 ;    1252  // Func7=Out Func6=Out Func5=Out Func4=Out Func3=In Func2=In Func1=In Func0=In
                 ;    1253  // State7=T State6=T State5=T State4=T State3=T State2=T State1=T State0=T
                 ;    1254  // Use PORTD[7:6] as LED output, 0 -> LED ON
                 ;    1255  // PORTD.0-1 are set as input of external interrupt 0/1 (see interrupt.c)
                 ;    1256     PORTD=0x00;
000d86 e0e0      	LDI  R30,LOW(0)
000d87 bbe2      	OUT  0x12,R30
                 ;    1257     DDRD=0xF0;
000d88 efe0      	LDI  R30,LOW(240)
000d89 bbe1      	OUT  0x11,R30
                 ;    1258 
                 ;    1259  // Port E initialization
                 ;    1260  // Func7=In Func6=In Func5=In Func4=In Func3=In Func2=Out Func1=In Func0=In
                 ;    1261  // State7=T State6=T State5=T State4=T State3=T State2=0 State1=T State0=T
                 ;    1262     PORTE=0x00;
000d8a e0e0      	LDI  R30,LOW(0)
000d8b b9e3      	OUT  0x3,R30
                 ;    1263     DDRE=0x04;
000d8c e0e4      	LDI  R30,LOW(4)
000d8d b9e2      	OUT  0x2,R30
                 ;    1264 
                 ;    1265  // Port F initialization
                 ;    1266  // Input
                 ;    1267  // State7=T State6=T State5=T State4=T State3=T State2=T State1=Out State0=Out
                 ;    1268     PORTF=0x00;
000d8e e0e0      	LDI  R30,LOW(0)
000d8f 93e0 0062 	STS  98,R30
                 ;    1269     DDRF=0x00;
000d91 93e0 0061 	STS  97,R30
                 ;    1270 
                 ;    1271  // Port G initialization
                 ;    1272  // Func4=out Func3=out Func2=out Func1=out Func0=out
                 ;    1273  // State4=0 State3=0 State2=0 State1=0 State0=0
                 ;    1274     PORTG=0xFF;
000d93 efef      	LDI  R30,LOW(255)
000d94 93e0 0065 	STS  101,R30
                 ;    1275     DDRG=0x1F;
000d96 e1ef      	LDI  R30,LOW(31)
000d97 93e0 0064 	STS  100,R30
                 ;    1276 }
000d99 9508      	RET
                 ;    1277 
                 ;    1278 /**************************************************************************************/
                 ;    1279 //                              Initialize Timers
                 ;    1280 /**************************************************************************************/
                 ;    1281 void Init_Timers()
                 ;    1282 {
                 ;    1283  // Timer/Counter 0 initialization
                 ;    1284  // Clock source: System Clock
                 ;    1285  // Clock value: 14.400 kHz
                 ;    1286  // Mode: Normal top=FFh
                 ;    1287  // OC0 output: Disconnected
                 ;    1288     ASSR=0x00;
                 ;    1289     TCCR0=0x07;
                 ;    1290     TCNT0=0x00;
                 ;    1291     OCR0=0x00;
                 ;    1292 
                 ;    1293  // Timer/Counter 1 initialization
                 ;    1294  // Clock source: System Clock
                 ;    1295  // Clock value: 14.400 kHz
                 ;    1296  // Mode: Normal top=FFFFh
                 ;    1297  // OC1A output: Discon.
                 ;    1298  // OC1B output: Discon.
                 ;    1299  // OC1C output: Discon.
                 ;    1300  // Noise Canceler: Off
                 ;    1301  // Input Capture on Falling Edge
                 ;    1302  // Timer 1 Overflow Interrupt: On
                 ;    1303  // Input Capture Interrupt: Off
                 ;    1304  // Compare A Match Interrupt: Off
                 ;    1305  // Compare B Match Interrupt: Off
                 ;    1306  // Compare C Match Interrupt: Off
                 ;    1307     TCCR1A=0x00;
                 ;    1308     TCCR1B=0x05;
                 ;    1309     TCNT1H=0x00;
                 ;    1310     TCNT1L=0x00;
                 ;    1311     ICR1H=0x00;
                 ;    1312     ICR1L=0x00;
                 ;    1313     OCR1AH=0x00;
                 ;    1314     OCR1AL=0x00;
                 ;    1315     OCR1BH=0x00;
                 ;    1316     OCR1BL=0x00;
                 ;    1317     OCR1CH=0x00;
                 ;    1318     OCR1CL=0x00;
                 ;    1319 
                 ;    1320  // Timer/Counter 2 initialization
                 ;    1321  // Clock source: System Clock
                 ;    1322  // Clock value: Timer 2 Stopped
                 ;    1323  // Mode: Normal top=FFh
                 ;    1324  // OC2 output: Disconnected
                 ;    1325     TCCR2=0x00;
                 ;    1326     TCNT2=0x00;
                 ;    1327     OCR2=0x00;
                 ;    1328 
                 ;    1329  // Timer/Counter 3 initialization
                 ;    1330  // Clock source: System Clock
                 ;    1331  // Clock value: Timer 3 Stopped
                 ;    1332  // Mode: Normal top=FFFFh
                 ;    1333  // Noise Canceler: Off
                 ;    1334  // Input Capture on Falling Edge
                 ;    1335  // OC3A output: Discon.
                 ;    1336  // OC3B output: Discon.
                 ;    1337  // OC3C output: Discon.
                 ;    1338  // Timer 3 Overflow Interrupt: Off
                 ;    1339  // Input Capture Interrupt: Off
                 ;    1340  // Compare A Match Interrupt: Off
                 ;    1341  // Compare B Match Interrupt: Off
                 ;    1342  // Compare C Match Interrupt: Off
                 ;    1343     TCCR3A=0x00;
                 ;    1344     TCCR3B=0x00;
                 ;    1345     TCNT3H=0x00;
                 ;    1346     TCNT3L=0x00;
                 ;    1347     ICR3H=0x00;
                 ;    1348     ICR3L=0x00;
                 ;    1349     OCR3AH=0x00;
                 ;    1350     OCR3AL=0x00;
                 ;    1351     OCR3BH=0x00;
                 ;    1352     OCR3BL=0x00;
                 ;    1353     OCR3CH=0x00;
                 ;    1354     OCR3CL=0x00;
                 ;    1355 
                 ;    1356  // Timer(s)/Counter(s) Interrupt(s) initialization
                 ;    1357     TIMSK=0x05;
                 ;    1358     ETIMSK=0x00;
                 ;    1359 }
                 ;    1360 
                 ;    1361 /**************************************************************************************/
                 ;    1362 //                              Enable External Memory
                 ;    1363 /**************************************************************************************/
                 ;    1364 void Enable_XMEM()
                 ;    1365 {
                 _Enable_XMEM:
                 ;    1366  // External SRAM page configuration:
                 ;    1367  // 1100h - 7FFFh / 8000h - FFFFh
                 ;    1368  // Lower page wait state(s): 2r/w +1 addr
                 ;    1369  // Upper page wait state(s): 2r/w + 1 addr
                 ;    1370     MCUCR=0xC0;
000d9a ece0      	LDI  R30,LOW(192)
000d9b bfe5      	OUT  0x35,R30
                 ;    1371     //MCUCR = 0x80;
                 ;    1372 
                 ;    1373     XMCRA=0x4E;
000d9c e4ee      	LDI  R30,LOW(78)
000d9d 93e0 006d 	STS  109,R30
                 ;    1374     //XMCRA=0x0A;
                 ;    1375  // PC7:0 can not be released
                 ;    1376     XMCRB=0x80;
000d9f e8e0      	LDI  R30,LOW(128)
000da0 93e0 006c 	STS  108,R30
                 ;    1377     // XMCRB = 0x07;
                 ;    1378 }
000da2 9508      	RET
                 ;    1379 
                 ;    1380 /**************************************************************************************/
                 ;    1381 //                              Initialize External Interrupt
                 ;    1382 /**************************************************************************************/
                 ;    1383 void Init_Ex_Interrupt()
                 ;    1384 {
                 ;    1385  // External Interrupt(s) initialization
                 ;    1386  // INT0: Off
                 ;    1387  // INT1: Off
                 ;    1388  // INT2: Off
                 ;    1389  // INT3: Off
                 ;    1390  // INT4: On
                 ;    1391  // INT4 Mode: Rising Edge
                 ;    1392  // INT5: On
                 ;    1393  // INT5 Mode: Rising Edge
                 ;    1394  // INT6: On
                 ;    1395  // INT6 Mode: Rising Edge
                 ;    1396  // INT7: On
                 ;    1397  // INT7 Mode: Rising Edge
                 ;    1398     EICRA=0x00;
                 ;    1399     EICRB=0xFF;
                 ;    1400     EIMSK=0xF0;
                 ;    1401     EIFR=0xF0;
                 ;    1402 }
                 ;    1403 
                 ;    1404 /**************************************************************************************/
                 ;    1405 //                              Analog Comparator initialization
                 ;    1406 /**************************************************************************************/
                 ;    1407 void Init_ADC()
                 ;    1408 {
                 ;    1409  // Analog Comparator initialization
                 ;    1410  // Analog Comparator: Off
                 ;    1411  // Analog Comparator Input Capture by Timer/Counter 1: Off
                 ;    1412     ACSR=0x80;
                 ;    1413     SFIOR=0x00;
                 ;    1414 }
                 ;    1415 #include "global.h"
                 ;    1416 #include "wendu.h"
                 ;    1417 #include "utili.h"
                 ;    1418 #include "math.h"
                 ;    1419 #define logl log
                 ;    1420 #define powl pow
                 ;    1421 double PT100RToTValue(double r,double r0)
                 ;    1422 {
                 _PT100RToTValue:
                 ;    1423         double ac,bc,cc,tlow,tup,rnew,tnew;
                 ;    1424         int count;
                 ;    1425         ac = 3.908e-3;
000da3 976c      	SBIW R28,28
000da4 931a      	ST   -Y,R17
000da5 930a      	ST   -Y,R16
                 ;	r -> Y+34
                 ;	r0 -> Y+30
                 ;	ac -> Y+26
                 ;	bc -> Y+22
                 ;	cc -> Y+18
                 ;	tlow -> Y+14
                 ;	tup -> Y+10
                 ;	rnew -> Y+6
                 ;	tnew -> Y+2
                 ;	count -> R16,R17
000da6 eaee
000da7 e0fe
000da8 e860
000da9 e37b      	__GETD1N 0x3B800EAE
000daa 8fea
000dab 8ffb
000dac 8f6c
000dad 8f7d      	__PUTD1S 26
                 ;    1426         bc = -5.775E-7;
000dae e7ef
000daf e0f5
000db0 e16b
000db1 eb75      	__GETD1N 0xB51B057F
000db2 8bee
000db3 8bff
000db4 8f68
000db5 8f79      	__PUTD1S 22
                 ;    1427         cc = -4.183E-12;
000db6 e1ed
000db7 e2fd
000db8 e963
000db9 ea7c      	__GETD1N 0xAC932D1D
000dba 8bea
000dbb 8bfb
000dbc 8b6c
000dbd 8b7d      	__PUTD1S 18
                 ;    1428         tlow = -200;
000dbe e0e0
000dbf e0f0
000dc0 e468
000dc1 ec73      	__GETD1N 0xC3480000
000dc2 940e 2870 	CALL SUBOPT_0x46
                 ;    1429         tup = 850;
000dc4 e0e0
000dc5 e8f0
000dc6 e564
000dc7 e474      	__GETD1N 0x44548000
000dc8 940e 2875 	CALL SUBOPT_0x47
                 ;    1430 	count = 0;
000dca e000
000dcb e010      	__GETWRN 16,17,0
                 ;    1431 
                 ;    1432 	while((tup - tlow > 0.00005) && (count++ < 100))
                 _0x121:
000dcc 940e 287a 	CALL SUBOPT_0x48
000dce 940e 287f 	CALL SUBOPT_0x49
000dd0 940e 2884 	CALL SUBOPT_0x4A
000dd2 f009      	BREQ PC+2
000dd3 f410      	BRCC PC+3
000dd4 940c 0dd9 	JMP  _0x124
000dd6 940e 288f 	CALL SUBOPT_0x4B
000dd8 f00c      	BRLT _0x125
                 _0x124:
000dd9 c05c      	RJMP _0x123
                 _0x125:
                 ;    1433 	{
                 ;    1434 		tnew = (tlow+tup)/2.0;
000dda 940e 2896 	CALL SUBOPT_0x4C
                 ;    1435 		rnew = r0 + r0*ac*tnew + r0*bc*tnew*tnew;
000ddc 8dea
000ddd 8dfb
000dde 8d6c
000ddf 8d7d      	__GETD1S 26
000de0 940e 28a4 	CALL SUBOPT_0x4D
000de2 940e 28a9 	CALL SUBOPT_0x4E
000de4 940e 28a4 	CALL SUBOPT_0x4D
000de6 940e 3159 	CALL __ADDF12
000de8 937f      	PUSH R23
000de9 936f      	PUSH R22
000dea 93ff      	PUSH R31
000deb 93ef      	PUSH R30
000dec 89ee
000ded 89ff
000dee 8d68
000def 8d79      	__GETD1S 22
000df0 940e 28a4 	CALL SUBOPT_0x4D
000df2 940e 28a9 	CALL SUBOPT_0x4E
000df4 940e 28b2 	CALL SUBOPT_0x4F
000df6 940e 31a7 	CALL __MULF12
000df8 91af      	POP  R26
000df9 91bf      	POP  R27
000dfa 918f      	POP  R24
000dfb 919f      	POP  R25
000dfc 940e 28b7 	CALL SUBOPT_0x50
                 ;    1436 		if(tnew < 0)
000dfe 940e 28b2 	CALL SUBOPT_0x4F
000e00 940e 3262 	CALL __CPD20
000e02 f514      	BRGE _0x126
                 ;    1437 		         rnew = rnew + r0*cc*(tnew-100)*tnew*tnew*tnew;
000e03 89ea
000e04 89fb
000e05 896c
000e06 897d      	__GETD1S 18
000e07 940e 28a4 	CALL SUBOPT_0x4D
000e09 940e 31a7 	CALL __MULF12
000e0b 937f      	PUSH R23
000e0c 936f      	PUSH R22
000e0d 93ff      	PUSH R31
000e0e 93ef      	PUSH R30
000e0f 940e 28b2 	CALL SUBOPT_0x4F
000e11 e0e0
000e12 e0f0
000e13 ec68
000e14 e472      	__GETD1N 0x42C80000
000e15 940e 277b 	CALL SUBOPT_0x2B
000e17 91af      	POP  R26
000e18 91bf      	POP  R27
000e19 918f      	POP  R24
000e1a 919f      	POP  R25
000e1b 940e 28a9 	CALL SUBOPT_0x4E
000e1d 940e 28b2 	CALL SUBOPT_0x4F
000e1f 940e 28a9 	CALL SUBOPT_0x4E
000e21 940e 28be 	CALL SUBOPT_0x51
000e23 940e 28b7 	CALL SUBOPT_0x50
                 ;    1438 
                 ;    1439 		if(r < rnew)
                 _0x126:
000e25 940e 28c3 	CALL SUBOPT_0x52
000e27 a1aa
000e28 a1bb
000e29 a18c
000e2a a19d      	__GETD2S 34
000e2b 940e 323a 	CALL __CMPF12
000e2d f428      	BRSH _0x127
                 ;    1440 			tup = tnew;
000e2e 940e 28c8 	CALL SUBOPT_0x53
000e30 940e 2875 	CALL SUBOPT_0x47
                 ;    1441 		else
000e32 c002      	RJMP _0x128
                 _0x127:
                 ;    1442 			tlow = tnew;
000e33 940e 28cd 	CALL SUBOPT_0x54
                 ;    1443 	}
                 _0x128:
000e35 cf96      	RJMP _0x121
                 _0x123:
                 ;    1444 	return floor((tlow*10000.0+tup*10000)/2.0+0.5)/10000.0;
000e36 940e 28cf 	CALL SUBOPT_0x55
000e38 937f      	PUSH R23
000e39 936f      	PUSH R22
000e3a 93ff      	PUSH R31
000e3b 93ef      	PUSH R30
000e3c 940e 28d7 	CALL SUBOPT_0x56
000e3e 91af      	POP  R26
000e3f 91bf      	POP  R27
000e40 918f      	POP  R24
000e41 919f      	POP  R25
000e42 940e 28e2 	CALL SUBOPT_0x57
000e44 8119      	LDD  R17,Y+1
000e45 8108      	LDD  R16,Y+0
000e46 96a6      	ADIW R28,38
000e47 9508      	RET
                 ;    1445 
                 ;    1446 }
                 ;    1447 double RValueToTValue(double r, u8 prbid)
                 ;    1448 {
                 _RValueToTValue:
                 ;    1449 	double ac,bc,cc,tlow,tup,rnew,tnew;
                 ;    1450 	int count;
                 ;    1451 
                 ;    1452 	ac = rprbdata.param1[prbid];
000e48 976c      	SBIW R28,28
000e49 931a      	ST   -Y,R17
000e4a 930a      	ST   -Y,R16
                 ;	r -> Y+31
                 ;	prbid -> Y+30
                 ;	ac -> Y+26
                 ;	bc -> Y+22
                 ;	cc -> Y+18
                 ;	tlow -> Y+14
                 ;	tup -> Y+10
                 ;	rnew -> Y+6
                 ;	tnew -> Y+2
                 ;	count -> R16,R17
000e4b 8dee      	LDD  R30,Y+30
000e4c e3a8      	LDI  R26,LOW(_rprbdata)
000e4d e0b2      	LDI  R27,HIGH(_rprbdata)
000e4e 940e 28fc 	CALL SUBOPT_0x58
000e50 8fea
000e51 8ffb
000e52 8f6c
000e53 8f7d      	__PUTD1S 26
                 ;    1453 	bc = rprbdata.param2[prbid];
000e54 e9a8
000e55 e0b2      	__POINTW2MN _rprbdata,96
000e56 8dee      	LDD  R30,Y+30
000e57 940e 28fc 	CALL SUBOPT_0x58
000e59 8bee
000e5a 8bff
000e5b 8f68
000e5c 8f79      	__PUTD1S 22
                 ;    1454 	cc = rprbdata.param3[prbid];
000e5d efa8
000e5e e0b2      	__POINTW2MN _rprbdata,192
000e5f 8dee      	LDD  R30,Y+30
000e60 940e 28fc 	CALL SUBOPT_0x58
000e62 8bea
000e63 8bfb
000e64 8b6c
000e65 8b7d      	__PUTD1S 18
                 ;    1455 
                 ;    1456 	if(rprbdata.type[prbid] == PRBTYPE_PT100)
000e66 940e 2904 	CALL SUBOPT_0x59
000e68 3fe1      	CPI  R30,LOW(0xF1)
000e69 f459      	BRNE _0x129
                 ;    1457 		return PT100RToTValue(r, cc);
000e6a 940e 290d 	CALL SUBOPT_0x5A
000e6c 89ee
000e6d 89ff
000e6e 8d68
000e6f 8d79      	__GETD1S 22
000e70 940e 3049 	CALL __PUTPARD1
000e72 940e 0da3 	CALL _PT100RToTValue
000e74 c0db      	RJMP _0x494
                 ;    1458 	else if(rprbdata.type[prbid] == PRBTYPE_PT25)
                 _0x129:
000e75 940e 2904 	CALL SUBOPT_0x59
000e77 3fe2      	CPI  R30,LOW(0xF2)
000e78 f479      	BRNE _0x12B
                 ;    1459 		r = r/25.0;
000e79 8daf
000e7a a1b8
000e7b a189
000e7c a19a      	__GETD2S 31
000e7d e0e0
000e7e e0f0
000e7f ec68
000e80 e471      	__GETD1N 0x41C80000
000e81 940e 31f5 	CALL __DIVF21
000e83 8fef
000e84 a3f8
000e85 a369
000e86 a37a      	__PUTD1S 31
                 ;    1460 	else
000e87 c005      	RJMP _0x12C
                 _0x12B:
                 ;    1461 		return -9999.999;
000e88 efef
000e89 e3ff
000e8a e16c
000e8b ec76      	__GETD1N 0xC61C3FFF
000e8c c0c3      	RJMP _0x494
                 ;    1462 
                 ;    1463 
                 ;    1464 
                 ;    1465 	//set the search range of T between GetT(r) +/- 1 degree
                 ;    1466 	tlow = GetT(r) - 1;
                 _0x12C:
000e8d 940e 290d 	CALL SUBOPT_0x5A
000e8f d12b      	RCALL _GetT
000e90 940e 2914 	CALL SUBOPT_0x5B
000e92 940e 2870 	CALL SUBOPT_0x46
                 ;    1467 	tup = tlow + 2;
000e94 85ee
000e95 85ff
000e96 8968
000e97 8979      	__GETD1S 14
000e98 e0a0
000e99 e0b0
000e9a e080
000e9b e490      	__GETD2N 0x40000000
000e9c 940e 3159 	CALL __ADDF12
000e9e 940e 2875 	CALL SUBOPT_0x47
                 ;    1468 
                 ;    1469 	count = 0;
000ea0 e000
000ea1 e010      	__GETWRN 16,17,0
                 ;    1470 
                 ;    1471 	while((tup - tlow > 0.00005) && (count++ < 100))
                 _0x12D:
000ea2 940e 2918 	CALL SUBOPT_0x5C
000ea4 f009      	BREQ PC+2
000ea5 f410      	BRCC PC+3
000ea6 940c 0eab 	JMP  _0x130
000ea8 940e 288f 	CALL SUBOPT_0x4B
000eaa f00c      	BRLT _0x131
                 _0x130:
000eab c096      	RJMP _0x12F
                 _0x131:
                 ;    1472 	{
                 ;    1473 		tnew = (tlow+tup)/2.0;
000eac 940e 2896 	CALL SUBOPT_0x4C
                 ;    1474 		rnew = GetWr(tnew);
000eae 940e 291b 	CALL SUBOPT_0x5D
000eb0 d0a3      	RCALL _GetWr
000eb1 940e 291f 	CALL SUBOPT_0x5E
                 ;    1475 		if((tnew >= (83.8058-273.15)) && (tnew <= (273.16-273.15)))
000eb3 940e 28b2 	CALL SUBOPT_0x4F
000eb5 e1ed
000eb6 e5f8
000eb7 e36d
000eb8 ec73      	__GETD1N 0xC33D581D
000eb9 940e 323a 	CALL __CMPF12
000ebb f068      	BRLO _0x133
000ebc 940e 28b2 	CALL SUBOPT_0x4F
000ebe e0ea
000ebf edf7
000ec0 e263
000ec1 e37c      	__GETD1N 0x3C23D70A
000ec2 940e 323a 	CALL __CMPF12
000ec4 f019      	BREQ PC+4
000ec5 f010      	BRCS PC+3
000ec6 940c 0ec9 	JMP  _0x133
000ec8 c001      	RJMP _0x134
                 _0x133:
000ec9 c01f      	RJMP _0x132
                 _0x134:
                 ;    1476         		rnew = rnew + ac*(rnew-1) + bc*(rnew-1)*logl(rnew);
000eca 940e 2924 	CALL SUBOPT_0x5F
000ecc 940e 2927 	CALL SUBOPT_0x60
000ece 937f      	PUSH R23
000ecf 936f      	PUSH R22
000ed0 93ff      	PUSH R31
000ed1 93ef      	PUSH R30
000ed2 940e 2924 	CALL SUBOPT_0x5F
000ed4 940e 2931 	CALL SUBOPT_0x61
000ed6 937f      	PUSH R23
000ed7 936f      	PUSH R22
000ed8 93ff      	PUSH R31
000ed9 93ef      	PUSH R30
000eda 940e 2938 	CALL SUBOPT_0x62
000edc 940e 2513 	CALL _log
000ede 91af      	POP  R26
000edf 91bf      	POP  R27
000ee0 918f      	POP  R24
000ee1 919f      	POP  R25
000ee2 940e 31a7 	CALL __MULF12
000ee4 91af      	POP  R26
000ee5 91bf      	POP  R27
000ee6 918f      	POP  R24
000ee7 919f      	POP  R25
000ee8 c046      	RJMP _0x49F
                 ;    1477                 else
                 _0x132:
                 ;    1478         		rnew = rnew + ac*(rnew-1) + bc*(rnew-1)*(rnew-1) + cc*(rnew-1)*(rnew-1)*(rnew-1);
000ee9 940e 2924 	CALL SUBOPT_0x5F
000eeb 940e 2927 	CALL SUBOPT_0x60
000eed 937f      	PUSH R23
000eee 936f      	PUSH R22
000eef 93ff      	PUSH R31
000ef0 93ef      	PUSH R30
000ef1 940e 2924 	CALL SUBOPT_0x5F
000ef3 940e 2931 	CALL SUBOPT_0x61
000ef5 937f      	PUSH R23
000ef6 936f      	PUSH R22
000ef7 93ff      	PUSH R31
000ef8 93ef      	PUSH R30
000ef9 940e 2924 	CALL SUBOPT_0x5F
000efb 91af      	POP  R26
000efc 91bf      	POP  R27
000efd 918f      	POP  R24
000efe 919f      	POP  R25
000eff 940e 31a7 	CALL __MULF12
000f01 91af      	POP  R26
000f02 91bf      	POP  R27
000f03 918f      	POP  R24
000f04 919f      	POP  R25
000f05 940e 3159 	CALL __ADDF12
000f07 937f      	PUSH R23
000f08 936f      	PUSH R22
000f09 93ff      	PUSH R31
000f0a 93ef      	PUSH R30
000f0b 940e 2924 	CALL SUBOPT_0x5F
000f0d 89aa
000f0e 89bb
000f0f 898c
000f10 899d      	__GETD2S 18
000f11 940e 31a7 	CALL __MULF12
000f13 937f      	PUSH R23
000f14 936f      	PUSH R22
000f15 93ff      	PUSH R31
000f16 93ef      	PUSH R30
000f17 940e 2924 	CALL SUBOPT_0x5F
000f19 91af      	POP  R26
000f1a 91bf      	POP  R27
000f1b 918f      	POP  R24
000f1c 919f      	POP  R25
000f1d 940e 31a7 	CALL __MULF12
000f1f 937f      	PUSH R23
000f20 936f      	PUSH R22
000f21 93ff      	PUSH R31
000f22 93ef      	PUSH R30
000f23 940e 2924 	CALL SUBOPT_0x5F
000f25 91af      	POP  R26
000f26 91bf      	POP  R27
000f27 918f      	POP  R24
000f28 919f      	POP  R25
000f29 940e 31a7 	CALL __MULF12
000f2b 91af      	POP  R26
000f2c 91bf      	POP  R27
000f2d 918f      	POP  R24
000f2e 919f      	POP  R25
                 _0x49F:
000f2f 940e 3159 	CALL __ADDF12
000f31 940e 291f 	CALL SUBOPT_0x5E
                 ;    1479 		if(r < rnew)
000f33 940e 28c3 	CALL SUBOPT_0x52
000f35 8daf
000f36 a1b8
000f37 a189
000f38 a19a      	__GETD2S 31
000f39 940e 323a 	CALL __CMPF12
000f3b f418      	BRSH _0x136
                 ;    1480 			tup = tnew;
000f3c 940e 293c 	CALL SUBOPT_0x63
                 ;    1481 		else
000f3e c002      	RJMP _0x137
                 _0x136:
                 ;    1482 			tlow = tnew;
000f3f 940e 28cd 	CALL SUBOPT_0x54
                 ;    1483 	}
                 _0x137:
000f41 cf60      	RJMP _0x12D
                 _0x12F:
                 ;    1484 	return floor((tlow*10000.0+tup*10000)/2.0+0.5)/10000.0;
000f42 940e 28cf 	CALL SUBOPT_0x55
000f44 937f      	PUSH R23
000f45 936f      	PUSH R22
000f46 93ff      	PUSH R31
000f47 93ef      	PUSH R30
000f48 940e 28d7 	CALL SUBOPT_0x56
000f4a 91af      	POP  R26
000f4b 91bf      	POP  R27
000f4c 918f      	POP  R24
000f4d 919f      	POP  R25
000f4e 940e 28e2 	CALL SUBOPT_0x57
                 _0x494:
000f50 8119      	LDD  R17,Y+1
000f51 8108      	LDD  R16,Y+0
000f52 96a3      	ADIW R28,35
000f53 9508      	RET
                 ;    1485 
                 ;    1486 
                 ;    1487 //	return r+1;
                 ;    1488 }
                 ;    1489 
                 ;    1490 flash double Ci[] = {2.78157254, 1.64650916 ,-0.13714390, -0.00649767 ,-0.00234444, 0.00511868 ,0.00187982, -0.00204472, -0.00046122 ,0.00045724};
                 ;    1491 flash double Ai[] = {-2.13534729 ,3.18324720 ,-1.80143597, 0.71727204 ,0.50344027, -0.61899395, -0.05332322, 0.28021362, 0.10715224, -0.29302865, 0.04459872 ,0.11868632 ,-0.05248134};
                 ;    1492 flash u8 sizeAi = sizeof(Ai)/sizeof(double);
                 ;    1493 flash u8 sizeCi = sizeof(Ci)/sizeof(double);
                 ;    1494 
                 ;    1495 double GetWr(double t)
                 ;    1496 {
                 _GetWr:
                 ;    1497 	double result;
                 ;    1498 	double pert;
                 ;    1499 	int i;
                 ;    1500 	if(t < 0)
000f54 940e 293e 	CALL SUBOPT_0x64
                 ;	t -> Y+10
                 ;	result -> Y+6
                 ;	pert -> Y+2
                 ;	i -> R16,R17
000f56 f5ec      	BRGE _0x138
                 ;    1501 	{       //equals to Wr189(t) in mfile
                 ;    1502 		result = Ai[0];
000f57 e0e4      	LDI  R30,LOW(_Ai*2)
000f58 e0f1      	LDI  R31,HIGH(_Ai*2)
000f59 940e 3043 	CALL __GETD1PF
000f5b 940e 291f 	CALL SUBOPT_0x5E
                 ;    1503 		pert = (logl((t+273.15)/273.16)+1.5)/1.5;
000f5d 940e 287f 	CALL SUBOPT_0x49
000f5f e3a3
000f60 e9b3
000f61 e888
000f62 e493      	__GETD2N 0x43889333
000f63 940e 2948 	CALL SUBOPT_0x65
000f65 e7eb
000f66 e9f4
000f67 e868
000f68 e473      	__GETD1N 0x4388947B
000f69 940e 31f5 	CALL __DIVF21
000f6b 940e 294d 	CALL SUBOPT_0x66
000f6d e0a0
000f6e e0b0
000f6f ec80
000f70 e39f      	__GETD2N 0x3FC00000
000f71 940e 2948 	CALL SUBOPT_0x65
000f73 e0e0
000f74 e0f0
000f75 ec60
000f76 e37f      	__GETD1N 0x3FC00000
000f77 940e 31f5 	CALL __DIVF21
000f79 940e 2950 	CALL SUBOPT_0x67
                 ;    1504 		t = pert;
                 ;    1505 		for(i=1;i<sizeAi;i++)
000f7b e001
000f7c e010      	__GETWRN 16,17,1
                 _0x13A:
000f7d e3e8      	LDI  R30,LOW(_sizeAi*2)
000f7e e0f1      	LDI  R31,HIGH(_sizeAi*2)
000f7f 91e4      	LPM  R30,Z
000f80 940e 2955 	CALL SUBOPT_0x68
000f82 f454      	BRGE _0x13B
                 ;    1506 		{
                 ;    1507 			result = result + Ai[i] * t;
000f83 01f8      	MOVW R30,R16
000f84 e0a4      	LDI  R26,LOW(_Ai*2)
000f85 e0b1      	LDI  R27,HIGH(_Ai*2)
000f86 940e 295a 	CALL SUBOPT_0x69
                 ;    1508 			t = t*pert;
000f88 940e 2968 	CALL SUBOPT_0x6A
                 ;    1509 		}
000f8a 5f0f
000f8b 4f1f      	__ADDWRN 16,17,1
000f8c cff0      	RJMP _0x13A
                 _0x13B:
                 ;    1510 		result = exp(result);
000f8d 940e 2938 	CALL SUBOPT_0x62
000f8f 940e 2584 	CALL _exp
000f91 940e 291f 	CALL SUBOPT_0x5E
                 ;    1511 	}else{
000f93 c024      	RJMP _0x13C
                 _0x138:
                 ;    1512 			 result = Ci[0];
000f94 edec      	LDI  R30,LOW(_Ci*2)
000f95 e0f0      	LDI  R31,HIGH(_Ci*2)
000f96 940e 3043 	CALL __GETD1PF
000f98 940e 291f 	CALL SUBOPT_0x5E
                 ;    1513 			 pert = t/481.0 - 1;
000f9a 940e 2970 	CALL SUBOPT_0x6B
000f9c e0e0
000f9d e8f0
000f9e ef60
000f9f e473      	__GETD1N 0x43F08000
000fa0 940e 31f5 	CALL __DIVF21
000fa2 940e 2914 	CALL SUBOPT_0x5B
000fa4 940e 2950 	CALL SUBOPT_0x67
                 ;    1514 			 t = pert;
                 ;    1515 			 for(i=1;i<sizeCi;i++)
000fa6 e001
000fa7 e010      	__GETWRN 16,17,1
                 _0x13E:
000fa8 e3ea      	LDI  R30,LOW(_sizeCi*2)
000fa9 e0f1      	LDI  R31,HIGH(_sizeCi*2)
000faa 91e4      	LPM  R30,Z
000fab 940e 2955 	CALL SUBOPT_0x68
000fad f454      	BRGE _0x13F
                 ;    1516 			 {
                 ;    1517 				 result = result + Ci[i] * t;
000fae 01f8      	MOVW R30,R16
000faf edac      	LDI  R26,LOW(_Ci*2)
000fb0 e0b0      	LDI  R27,HIGH(_Ci*2)
000fb1 940e 295a 	CALL SUBOPT_0x69
                 ;    1518 				 t = t*pert;
000fb3 940e 2968 	CALL SUBOPT_0x6A
                 ;    1519 			 }
000fb5 5f0f
000fb6 4f1f      	__ADDWRN 16,17,1
000fb7 cff0      	RJMP _0x13E
                 _0x13F:
                 ;    1520 	}
                 _0x13C:
                 ;    1521 	return result;
000fb8 940e 28c3 	CALL SUBOPT_0x52
000fba c066      	RJMP _0x493
                 ;    1522 }
                 ;    1523 flash double Di[] = {439.932854 ,472.418020, 37.684494 ,7.472018 ,2.920828 ,0.005184, -0.963864, -0.188732, 0.191203, 0.049025};
                 ;    1524 flash double Bi[] = {0.183324722, 0.240975303, 0.209108771, 0.190439972, 0.142648498, 0.077993465, 0.012475611, -0.032267127, -0.075291522, -0.056470670, 0.076201285, 0.123893204, -0.029201193, -0.091173542, 0.001317696, 0.026025526};
                 ;    1525 flash u8 sizeDi = sizeof(Di)/sizeof(double);
                 ;    1526 flash u8 sizeBi = sizeof(Bi)/sizeof(double);
                 ;    1527 
                 ;    1528 double GetT(double w)
                 ;    1529 {
                 _GetT:
                 ;    1530 	double perw;
                 ;    1531 	double result;
                 ;    1532 	int i;
                 ;    1533 
                 ;    1534 	if(w >= 0)
000fbb 940e 293e 	CALL SUBOPT_0x64
                 ;	w -> Y+10
                 ;	perw -> Y+6
                 ;	result -> Y+2
                 ;	i -> R16,R17
000fbd f11c      	BRLT _0x140
                 ;    1535 	{       //t660r
                 ;    1536 		perw = (w-2.64)/1.64;
000fbe 940e 2970 	CALL SUBOPT_0x6B
000fc0 ece3
000fc1 eff5
000fc2 e268
000fc3 e470      	__GETD1N 0x4028F5C3
000fc4 940e 277b 	CALL SUBOPT_0x2B
000fc6 01df      	MOVW R26,R30
000fc7 01cb      	MOVW R24,R22
000fc8 e8e5
000fc9 eefb
000fca ed61
000fcb e37f      	__GETD1N 0x3FD1EB85
000fcc 940e 2975 	CALL SUBOPT_0x6C
                 ;    1537 		w = perw;
                 ;    1538 		result = Di[0];
000fce e3ec      	LDI  R30,LOW(_Di*2)
000fcf e0f1      	LDI  R31,HIGH(_Di*2)
000fd0 940e 297a 	CALL SUBOPT_0x6D
                 ;    1539 		for(i=1;i<sizeDi;i++)
                 _0x142:
000fd2 eae4      	LDI  R30,LOW(_sizeDi*2)
000fd3 e0f1      	LDI  R31,HIGH(_sizeDi*2)
000fd4 91e4      	LPM  R30,Z
000fd5 940e 2955 	CALL SUBOPT_0x68
000fd7 f444      	BRGE _0x143
                 ;    1540 		{
                 ;    1541 			result = result + Di[i] * w;
000fd8 01f8      	MOVW R30,R16
000fd9 e3ac      	LDI  R26,LOW(_Di*2)
000fda e0b1      	LDI  R27,HIGH(_Di*2)
000fdb 940e 2983 	CALL SUBOPT_0x6E
                 ;    1542 			w = w*perw;
                 ;    1543 		}
000fdd 5f0f
000fde 4f1f      	__ADDWRN 16,17,1
000fdf cff2      	RJMP _0x142
                 _0x143:
                 ;    1544 	}else{   //t189(r)
000fe0 c03e      	RJMP _0x144
                 _0x140:
                 ;    1545 		perw = (powl(w,1.0/6.0) - 0.65)/0.35;
000fe1 940e 287f 	CALL SUBOPT_0x49
000fe3 940e 3049 	CALL __PUTPARD1
000fe5 eaeb
000fe6 eafa
000fe7 e26a
000fe8 e37e      	__GETD1N 0x3E2AAAAB
000fe9 940e 3049 	CALL __PUTPARD1
000feb 940e 2602 	CALL _pow
000fed 01df      	MOVW R26,R30
000fee 01cb      	MOVW R24,R22
000fef e6e6
000ff0 e6f6
000ff1 e266
000ff2 e37f      	__GETD1N 0x3F266666
000ff3 940e 277b 	CALL SUBOPT_0x2B
000ff5 01df      	MOVW R26,R30
000ff6 01cb      	MOVW R24,R22
000ff7 e3e3
000ff8 e3f3
000ff9 eb63
000ffa e37e      	__GETD1N 0x3EB33333
000ffb 940e 2975 	CALL SUBOPT_0x6C
                 ;    1546 		w = perw;
                 ;    1547 		result = Bi[0];
000ffd e6e4      	LDI  R30,LOW(_Bi*2)
000ffe e0f1      	LDI  R31,HIGH(_Bi*2)
000fff 940e 297a 	CALL SUBOPT_0x6D
                 ;    1548 		for(i=1;i<sizeBi;i++)
                 _0x146:
001001 eae6      	LDI  R30,LOW(_sizeBi*2)
001002 e0f1      	LDI  R31,HIGH(_sizeBi*2)
001003 91e4      	LPM  R30,Z
001004 940e 2955 	CALL SUBOPT_0x68
001006 f444      	BRGE _0x147
                 ;    1549 		{
                 ;    1550 			result = result + Bi[i] * w;
001007 01f8      	MOVW R30,R16
001008 e6a4      	LDI  R26,LOW(_Bi*2)
001009 e0b1      	LDI  R27,HIGH(_Bi*2)
00100a 940e 2983 	CALL SUBOPT_0x6E
                 ;    1551 			w = w*perw;
                 ;    1552 		}
00100c 5f0f
00100d 4f1f      	__ADDWRN 16,17,1
00100e cff2      	RJMP _0x146
                 _0x147:
                 ;    1553 		result = 273.15*result - 273.15;
00100f 940e 28c8 	CALL SUBOPT_0x53
001011 e3a3
001012 e9b3
001013 e888
001014 e493      	__GETD2N 0x43889333
001015 940e 2771 	CALL SUBOPT_0x29
001017 e3e3
001018 e9f3
001019 e868
00101a e473      	__GETD1N 0x43889333
00101b 940e 277b 	CALL SUBOPT_0x2B
00101d 940e 2998 	CALL SUBOPT_0x6F
                 ;    1554 	}
                 _0x144:
                 ;    1555 	return result;
00101f 940e 28c8 	CALL SUBOPT_0x53
                 _0x493:
001021 8119      	LDD  R17,Y+1
001022 8108      	LDD  R16,Y+0
001023 962e      	ADIW R28,14
001024 9508      	RET
                 ;    1556 }
                 ;    1557 
                 ;    1558 flash double TLow[]={0.000000000000E+00,0.387481063640E-01,0.441944343470E-04,0.118443231050E-06,0.200329735540E-07,0.901380195590E-09,0.226511565930E-10,0.360711542050E-12,0.384939398830E-14,0.282135219250E-16,0.142515947790E-18,0.4876866228                 60E-21,0.107955392700E-23,0.139450270620E-26,0.797951539270E-30};
                 ;    1559 flash double THigh[]={0.000000000000E+00,0.387481063640E-01,0.332922278800E-04,0.206182434040E-06,-0.218822568460E-08,0.109968809280E-10,-0.308157587720E-13,0.454791352900E-16,-0.275129016730E-19};
                 ;    1560 
                 ;    1561 flash double SLow[]={0.000000000000E+00,0.540313308631E-02,0.125934289740E-04,-0.232477968689E-07,0.322028823036E-10,-0.331465196389E-13,0.255744251786E-16,-0.125068871393E-19,0.271443176145E-23};
                 ;    1562 flash double SMed[]={0.132900444085E+01,0.334509311344E-02,0.654805192818E-05,-0.164856259209E-08,0.129989605174E-13};
                 ;    1563 flash double SHigh[]={0.146628232636E+03,-0.258430516752E+00,0.163693574641E-03,-0.330439046987E-07,-0.943223690612E-14};
                 ;    1564 
                 ;    1565 flash double RLow[]={0.000000000000E+00,0.528961729765E-02,0.139166589782E-04,-0.238855693017E-07,0.356916001063E-10,-0.462347666298E-13,0.500777441034E-16,-0.373105886191E-19,0.157716482367E-22,-0.281038625251E-26};
                 ;    1566 
                 ;    1567 flash double RMed[]={0.295157925316E+01,-0.252061251332E-02,0.159564501865E-04,-0.764085947576E-08,0.205305291024E-11,-0.293359668173E-15};
                 ;    1568 flash double RHigh[]={0.152232118209E+03,-0.268819888545E+00,0.171280280471E-03,-0.345895706453E-07,-0.934633971046E-14};
                 ;    1569 
                 ;    1570 flash double NLow[]={0.000000000000E+00,0.261591059620E-01,0.109574842280E-04,-0.938411115540E-07,-0.464120397590E-10,-0.263033577160E-11,-0.226534380030E-13,-0.760893007910E-16,-0.934196678350E-19};
                 ;    1571 flash double NHigh[]={0.000000000000E+00,0.259293946010E-01,0.157101418800E-04,0.438256272370E-07,-0.252611697940E-09,0.643118193390E-12,-0.100634715190E-14,0.997453389920E-18,-0.608632456070E-21,0.208492293390E-24,-0.306821961510E-28};
                 ;    1572 
                 ;    1573 flash double JLow[]={0.000000000000E+00,0.503811878150E-01,0.304758369300E-04,-0.856810657200E-07,0.132281952950E-09,-0.170529583370E-12,0.209480906970E-15,-0.125383953360E-18,0.156317256970E-22};
                 ;    1574 flash double JHigh[]={0.296456256810E+03,-0.149761277860E+01,0.317871039240E-02,-0.318476867010E-05,0.157208190040E-08,-0.306913690560E-12};
                 ;    1575 
                 ;    1576 flash double BLow[]={0.000000000000E+00,0.586655087100E-01,0.450322755820E-04,0.289084072120E-07,-0.330568966520E-09,0.650244032700E-12,-0.191974955040E-15,-0.125366004970E-17,0.214892175690E-20,-0.143880417820E-23,0.359608994810E-27};
                 ;    1577 flash double BHigh[]={-0.389381686210E+01,0.285717474700E-01,-0.848851047850E-04,0.157852801640E-06,-0.168353448640E-09,0.111097940130E-12,-0.445154310330E-16,0.989756408210E-20,-0.937913302890E-24};
                 ;    1578 
                 ;    1579 flash double EHigh[]={0.000000000000E+00,0.586655087100E-01,0.450322755820E-04,0.289084072120E-07,-0.330568966520E-09,0.650244032700E-12,-0.191974955040E-15,-0.125366004970E-17,0.214892175690E-20,-0.143880417820E-23,0.359608994810E-27};
                 ;    1580 flash double ELow[]={0.000000000000E+00,0.586655087080E-01,0.454109771240E-04,-0.779980486860E-06,-0.258001608430E-07,-0.594525830570E-09,-0.932140586670E-11,-0.102876055340E-12,-0.803701236210E-15,-0.439794973910E-17,-0.164147763550E-19,-0.3                 96736195160E-22,-0.558273287210E-25,-0.346578420130E-28};
                 ;    1581 
                 ;    1582 flash double KLow[]={0.000000000000E+00,0.394501280250E-01,0.236223735980E-04,-0.328589067840E-06,-0.499048287770E-08,-0.675090591730E-10,-0.574103274280E-12,-0.310888728940E-14,-0.104516093650E-16,-0.198892668780E-19,-0.163226974860E-22};
                 ;    1583 flash double KHigh[]={-0.176004136860E-01,0.389212049750E-01,0.185587700320E-04,-0.994575928740E-07,0.318409457190E-09,-0.560728448890E-12,0.560750590590E-15,-0.320207200030E-18,0.971511471520E-22,-0.121047212750E-25};
                 ;    1584 
                 ;    1585 flash int TLowLen = sizeof(TLow)/sizeof(double);
                 ;    1586 flash int THighLen = sizeof(THigh)/sizeof(double);
                 ;    1587 
                 ;    1588 flash int SLowLen = sizeof(SLow)/sizeof(double);
                 ;    1589 flash int SMedLen = sizeof(SMed)/sizeof(double);
                 ;    1590 flash int SHighLen = sizeof(SHigh)/sizeof(double);
                 ;    1591 
                 ;    1592 flash int RLowLen = sizeof(RLow)/sizeof(double);
                 ;    1593 flash int RMedLen = sizeof(RMed)/sizeof(double);
                 ;    1594 flash int RHighLen = sizeof(RHigh)/sizeof(double);
                 ;    1595 
                 ;    1596 flash int NLowLen = sizeof(NLow)/sizeof(double);
                 ;    1597 flash int NHighLen = sizeof(NHigh)/sizeof(double);
                 ;    1598 
                 ;    1599 flash int JLowLen = sizeof(JLow)/sizeof(double);
                 ;    1600 flash int JHighLen = sizeof(JHigh)/sizeof(double);
                 ;    1601 
                 ;    1602 flash int BLowLen = sizeof(BLow)/sizeof(double);
                 ;    1603 flash int BHighLen = sizeof(BHigh)/sizeof(double);
                 ;    1604 
                 ;    1605 flash int ELowLen = sizeof(ELow)/sizeof(double);
                 ;    1606 flash int EHighLen = sizeof(EHigh)/sizeof(double);
                 ;    1607 
                 ;    1608 flash int KLowLen = sizeof(KLow)/sizeof(double);
                 ;    1609 flash int KHighLen = sizeof(KHigh)/sizeof(double);
                 ;    1610 
                 ;    1611 flash double *coef;
                 
000718           	.DSEG
                 _coef:
                 	.BYTE 0x2
                 ;    1612 
                 ;    1613 double GetThmoVolt(double t,char type)
                 ;    1614 {
                 
                 	.CSEG
                 _GetThmoVolt:
                 ;    1615 	double result,pert;
                 ;    1616 	int i;
001025 9728      ;    1617 	int len = 0;
001026 940e 3273 ;    1618 	switch(type)
                 	SBIW R28,8
                 	CALL __SAVELOCR4
                 ;	t -> Y+13
                 ;	type -> Y+12
                 ;	result -> Y+8
                 ;	pert -> Y+4
001028 e020      ;	i -> R16,R17
001029 e030      ;	len -> R18,R19
00102a 85ec      	LDI  R18,0
                 	LDI  R19,0
                 	LDD  R30,Y+12
00102b 35e4      ;    1619 	{
00102c f4b1      ;    1620 		case 'T':
                 	CPI  R30,LOW(0x54)
00102d 940e 299d 	BRNE _0x14B
00102f f41c      ;    1621 			coef = (t < 0) ? TLow : THigh;
001030 eae8      	CALL SUBOPT_0x70
001031 e0f1      	BRGE _0x14C
001032 c002      	LDI  R30,LOW(_TLow*2)
                 	LDI  R31,HIGH(_TLow*2)
001033 eee4      	RJMP _0x14D
001034 e0f1      _0x14C:
                 	LDI  R30,LOW(_THigh*2)
001035 940e 29a4 	LDI  R31,HIGH(_THigh*2)
                 _0x14D:
001037 f42c      	CALL SUBOPT_0x71
001038 e3ec      ;    1622 			len = (t < 0) ? TLowLen : THighLen;
001039 e0f4      	BRGE _0x14F
00103a 940e 303f 	LDI  R30,LOW(_TLowLen*2)
00103c c004      	LDI  R31,HIGH(_TLowLen*2)
                 	CALL __GETW1PF
00103d e3ee      	RJMP _0x150
00103e e0f4      _0x14F:
00103f 940e 303f 	LDI  R30,LOW(_THighLen*2)
                 	LDI  R31,HIGH(_THighLen*2)
001041 019f      	CALL __GETW1PF
                 _0x150:
001042 c0cf      	MOVW R18,R30
                 ;    1623 			break;
                 	RJMP _0x14A
001043 34eb      ;    1624 		case 'K':
001044 f4b1      _0x14B:
                 	CPI  R30,LOW(0x4B)
001045 940e 299d 	BRNE _0x152
001047 f41c      ;    1625 			coef = (t < 0) ? KLow : KHigh;
001048 eee8      	CALL SUBOPT_0x70
001049 e0f3      	BRGE _0x153
00104a c002      	LDI  R30,LOW(_KLow*2)
                 	LDI  R31,HIGH(_KLow*2)
00104b e1e4      	RJMP _0x154
00104c e0f4      _0x153:
                 	LDI  R30,LOW(_KHigh*2)
00104d 940e 29a4 	LDI  R31,HIGH(_KHigh*2)
                 _0x154:
00104f f42c      	CALL SUBOPT_0x71
001050 e5ec      ;    1626 			len = (t < 0) ? KLowLen : KHighLen;
001051 e0f4      	BRGE _0x156
001052 940e 303f 	LDI  R30,LOW(_KLowLen*2)
001054 c004      	LDI  R31,HIGH(_KLowLen*2)
                 	CALL __GETW1PF
001055 e5ee      	RJMP _0x157
001056 e0f4      _0x156:
001057 940e 303f 	LDI  R30,LOW(_KHighLen*2)
                 	LDI  R31,HIGH(_KHighLen*2)
001059 019f      	CALL __GETW1PF
                 _0x157:
00105a c0b7      	MOVW R18,R30
                 ;    1627 			break;
                 	RJMP _0x14A
00105b 34ee      ;    1628 		case 'N':
00105c f4b1      _0x152:
                 	CPI  R30,LOW(0x4E)
00105d 940e 299d 	BRNE _0x159
00105f f41c      ;    1629 			coef = (t < 0) ? NLow : NHigh;
001060 eae8      	CALL SUBOPT_0x70
001061 e0f2      	BRGE _0x15A
001062 c002      	LDI  R30,LOW(_NLow*2)
                 	LDI  R31,HIGH(_NLow*2)
001063 ecec      	RJMP _0x15B
001064 e0f2      _0x15A:
                 	LDI  R30,LOW(_NHigh*2)
001065 940e 29a4 	LDI  R31,HIGH(_NHigh*2)
                 _0x15B:
001067 f42c      	CALL SUBOPT_0x71
001068 e4ec      ;    1630 			len = (t < 0) ? NLowLen : NHighLen;
001069 e0f4      	BRGE _0x15D
00106a 940e 303f 	LDI  R30,LOW(_NLowLen*2)
00106c c004      	LDI  R31,HIGH(_NLowLen*2)
                 	CALL __GETW1PF
00106d e4ee      	RJMP _0x15E
00106e e0f4      _0x15D:
00106f 940e 303f 	LDI  R30,LOW(_NHighLen*2)
                 	LDI  R31,HIGH(_NHighLen*2)
001071 019f      	CALL __GETW1PF
                 _0x15E:
001072 c09f      	MOVW R18,R30
                 ;    1631 			break;
                 	RJMP _0x14A
001073 34e5      ;    1632 		case 'E':
001074 f4b1      _0x159:
                 	CPI  R30,LOW(0x45)
001075 940e 299d 	BRNE _0x160
001077 f41c      ;    1633 			coef = (t < 0) ? ELow : EHigh;
001078 ebe0      	CALL SUBOPT_0x70
001079 e0f3      	BRGE _0x161
00107a c002      	LDI  R30,LOW(_ELow*2)
                 	LDI  R31,HIGH(_ELow*2)
00107b e8e4      	RJMP _0x162
00107c e0f3      _0x161:
                 	LDI  R30,LOW(_EHigh*2)
00107d 940e 29a4 	LDI  R31,HIGH(_EHigh*2)
                 _0x162:
00107f f42c      	CALL SUBOPT_0x71
001080 e5e8      ;    1634 			len = (t < 0) ? ELowLen : EHighLen;
001081 e0f4      	BRGE _0x164
001082 940e 303f 	LDI  R30,LOW(_ELowLen*2)
001084 c004      	LDI  R31,HIGH(_ELowLen*2)
                 	CALL __GETW1PF
001085 e5ea      	RJMP _0x165
001086 e0f4      _0x164:
001087 940e 303f 	LDI  R30,LOW(_EHighLen*2)
                 	LDI  R31,HIGH(_EHighLen*2)
001089 019f      	CALL __GETW1PF
                 _0x165:
00108a c087      	MOVW R18,R30
                 ;    1635 			break;
                 	RJMP _0x14A
00108b 34e2      ;    1636 		case 'B':
00108c f4c1      _0x160:
                 	CPI  R30,LOW(0x42)
00108d 940e 29a9 	BRNE _0x167
00108f f418      ;    1637 			coef = (t < 630.615) ? BLow : BHigh;
001090 e3e4      	CALL SUBOPT_0x72
001091 e0f3      	BRSH _0x168
001092 c002      	LDI  R30,LOW(_BLow*2)
                 	LDI  R31,HIGH(_BLow*2)
001093 e6e0      	RJMP _0x169
001094 e0f3      _0x168:
                 	LDI  R30,LOW(_BHigh*2)
001095 940e 29b4 	LDI  R31,HIGH(_BHigh*2)
                 _0x169:
001097 940e 29a9 	CALL SUBOPT_0x73
001099 f428      ;    1638 			len = (t < 630.615) ? BLowLen : BHighLen;
00109a e5e4      	CALL SUBOPT_0x72
00109b e0f4      	BRSH _0x16B
00109c 940e 303f 	LDI  R30,LOW(_BLowLen*2)
00109e c004      	LDI  R31,HIGH(_BLowLen*2)
                 	CALL __GETW1PF
00109f e5e6      	RJMP _0x16C
0010a0 e0f4      _0x16B:
0010a1 940e 303f 	LDI  R30,LOW(_BHighLen*2)
                 	LDI  R31,HIGH(_BHighLen*2)
0010a3 019f      	CALL __GETW1PF
                 _0x16C:
0010a4 c06d      	MOVW R18,R30
                 ;    1639 			break;
                 	RJMP _0x14A
0010a5 34ea      ;    1640 		case 'J':
0010a6 f4c1      _0x167:
                 	CPI  R30,LOW(0x4A)
0010a7 940e 29b9 	BRNE _0x16E
0010a9 f418      ;    1641 			coef = (t < 760) ? JLow : JHigh;
0010aa efe8      	CALL SUBOPT_0x74
0010ab e0f2      	BRSH _0x16F
0010ac c002      	LDI  R30,LOW(_JLow*2)
                 	LDI  R31,HIGH(_JLow*2)
0010ad e1ec      	RJMP _0x170
0010ae e0f3      _0x16F:
                 	LDI  R30,LOW(_JHigh*2)
0010af 940e 29b4 	LDI  R31,HIGH(_JHigh*2)
                 _0x170:
0010b1 940e 29b9 	CALL SUBOPT_0x73
0010b3 f428      ;    1642 			len = (t < 760) ? JLowLen : JHighLen;
0010b4 e5e0      	CALL SUBOPT_0x74
0010b5 e0f4      	BRSH _0x172
0010b6 940e 303f 	LDI  R30,LOW(_JLowLen*2)
0010b8 c004      	LDI  R31,HIGH(_JLowLen*2)
                 	CALL __GETW1PF
0010b9 e5e2      	RJMP _0x173
0010ba e0f4      _0x172:
0010bb 940e 303f 	LDI  R30,LOW(_JHighLen*2)
                 	LDI  R31,HIGH(_JHighLen*2)
0010bd 019f      	CALL __GETW1PF
                 _0x173:
0010be c053      	MOVW R18,R30
                 ;    1643 			break;
                 	RJMP _0x14A
                 ;    1644 
0010bf 35e3      ;    1645 		case 'S':
0010c0 f531      _0x16E:
                 	CPI  R30,LOW(0x53)
0010c1 940e 29c4 	BRNE _0x175
0010c3 940e 29c9 ;    1646 			coef = (t < 1064.18) ? SLow : ((t < 1664.5) ? SMed : SHigh);
0010c5 f418      	CALL SUBOPT_0x75
0010c6 e0e8      	CALL SUBOPT_0x76
0010c7 e0f2      	BRSH _0x176
0010c8 c008      	LDI  R30,LOW(_SLow*2)
                 	LDI  R31,HIGH(_SLow*2)
0010c9 940e 29d0 	RJMP _0x177
0010cb f418      _0x176:
0010cc e2ec      	CALL SUBOPT_0x77
0010cd e0f2      	BRSH _0x179
0010ce c002      	LDI  R30,LOW(_SMed*2)
                 	LDI  R31,HIGH(_SMed*2)
0010cf e4e0      	RJMP _0x17A
0010d0 e0f2      _0x179:
                 	LDI  R30,LOW(_SHigh*2)
                 	LDI  R31,HIGH(_SHigh*2)
0010d1 940e 29d8 _0x17A:
                 _0x177:
0010d3 f428      	CALL SUBOPT_0x78
0010d4 e4e0      ;    1647 			len = (t < 1064.18) ? SLowLen : ((t < 1664.5) ? SMedLen : SHighLen);
0010d5 e0f4      	BRSH _0x17C
0010d6 940e 303f 	LDI  R30,LOW(_SLowLen*2)
0010d8 c00c      	LDI  R31,HIGH(_SLowLen*2)
                 	CALL __GETW1PF
0010d9 940e 29d0 	RJMP _0x17D
0010db f428      _0x17C:
0010dc e4e2      	CALL SUBOPT_0x77
0010dd e0f4      	BRSH _0x17F
0010de 940e 303f 	LDI  R30,LOW(_SMedLen*2)
0010e0 c004      	LDI  R31,HIGH(_SMedLen*2)
                 	CALL __GETW1PF
0010e1 e4e4      	RJMP _0x180
0010e2 e0f4      _0x17F:
0010e3 940e 303f 	LDI  R30,LOW(_SHighLen*2)
                 	LDI  R31,HIGH(_SHighLen*2)
                 	CALL __GETW1PF
0010e5 019f      _0x180:
                 _0x17D:
0010e6 c02b      	MOVW R18,R30
                 ;    1648 			break;
                 	RJMP _0x14A
0010e7 35e2      ;    1649 		case 'R':
0010e8 f531      _0x175:
                 	CPI  R30,LOW(0x52)
0010e9 940e 29c4 	BRNE _0x18F
0010eb 940e 29c9 ;    1650 			coef = (t < 1064.18) ? RLow : ((t < 1664.5) ? RMed : RHigh);
0010ed f418      	CALL SUBOPT_0x75
0010ee e5e4      	CALL SUBOPT_0x76
0010ef e0f2      	BRSH _0x183
0010f0 c008      	LDI  R30,LOW(_RLow*2)
                 	LDI  R31,HIGH(_RLow*2)
0010f1 940e 29d0 	RJMP _0x184
0010f3 f418      _0x183:
0010f4 e7ec      	CALL SUBOPT_0x77
0010f5 e0f2      	BRSH _0x186
0010f6 c002      	LDI  R30,LOW(_RMed*2)
                 	LDI  R31,HIGH(_RMed*2)
0010f7 e9e4      	RJMP _0x187
0010f8 e0f2      _0x186:
                 	LDI  R30,LOW(_RHigh*2)
                 	LDI  R31,HIGH(_RHigh*2)
0010f9 940e 29d8 _0x187:
                 _0x184:
0010fb f428      	CALL SUBOPT_0x78
0010fc e4e6      ;    1651 			len = (t < 1064.18) ? RLowLen : ((t < 1664.5) ? RMedLen : RHighLen);
0010fd e0f4      	BRSH _0x189
0010fe 940e 303f 	LDI  R30,LOW(_RLowLen*2)
001100 c00c      	LDI  R31,HIGH(_RLowLen*2)
                 	CALL __GETW1PF
001101 940e 29d0 	RJMP _0x18A
001103 f428      _0x189:
001104 e4e8      	CALL SUBOPT_0x77
001105 e0f4      	BRSH _0x18C
001106 940e 303f 	LDI  R30,LOW(_RMedLen*2)
001108 c004      	LDI  R31,HIGH(_RMedLen*2)
                 	CALL __GETW1PF
001109 e4ea      	RJMP _0x18D
00110a e0f4      _0x18C:
00110b 940e 303f 	LDI  R30,LOW(_RHighLen*2)
                 	LDI  R31,HIGH(_RHighLen*2)
                 	CALL __GETW1PF
00110d 019f      _0x18D:
                 _0x18A:
00110e c003      	MOVW R18,R30
                 ;    1652 			break;
                 	RJMP _0x14A
                 ;    1653 		default:
00110f 940e 29db _0x18F:
001111 c052      ;    1654 			return 0.0;
                 	CALL SUBOPT_0x79
                 	RJMP _0x492
                 ;    1655 	}
001112 2e02      _0x14A:
001113 2a03      ;    1656 	if (len == 0)
001114 f419      	MOV  R0,R18
                 	OR   R0,R19
001115 940e 29db 	BRNE _0x190
001117 c04c      ;    1657 		return 0.0;
                 	CALL SUBOPT_0x79
                 	RJMP _0x492
                 ;    1658 
001118 91e0 0718 ;    1659 	result = coef[0];
00111a 91f0 0719 _0x190:
00111c 940e 3043 	LDS  R30,_coef
00111e 940e 29e0 	LDS  R31,_coef+1
                 	CALL __GETD1PF
001120 85ac      	CALL SUBOPT_0x7A
001121 34ab      ;    1660 	if(type == 'K')
001122 f4d1      	LDD  R26,Y+12
                 	CPI  R26,LOW(0x4B)
                 	BRNE _0x191
001123 940e 29e5 ;    1661 	{
001125 e0a6
001126 e2bf
001127 ef88
001128 eb98      	__GETD2N 0xB8F82F06
001129 940e 31a7 	CALL __MULF12
00112b 937f      	PUSH R23
00112c 936f      	PUSH R22
00112d 93ff      	PUSH R31
00112e 93ef      	PUSH R30
00112f 940e 29e5 	CALL SUBOPT_0x7B
001131 91af      	POP  R26
001132 91bf      	POP  R27
001133 918f      	POP  R24
001134 919f      	POP  R25
001135 940e 29eb 	CALL SUBOPT_0x7C
001137 e4ac
001138 eeb3
001139 ef82
00113a e39d      	__GETD2N 0x3DF2E34C
00113b 940e 29f0 	CALL SUBOPT_0x7D
                 ;    1663 	}
                 ;    1664 
                 ;    1665 	pert = t;
                 _0x191:
00113d 85ed
00113e 85fe
00113f 856f
001140 8978      	__GETD1S 13
001141 940e 29f9 	CALL SUBOPT_0x7E
                 ;    1666 	for(i=1;i< len ;i++)
001143 e001
001144 e010      	__GETWRN 16,17,1
                 _0x193:
001145 1702
001146 0713      	__CPWRR 16,17,18,19
001147 f4d4      	BRGE _0x194
                 ;    1667 	{
                 ;    1668 		result = result + coef[i] * t;
001148 01f8      	MOVW R30,R16
001149 91a0 0718 	LDS  R26,_coef
00114b 91b0 0719 	LDS  R27,_coef+1
00114d 940e 29fe 	CALL SUBOPT_0x7F
00114f 940e 3043 	CALL __GETD1PF
001151 940e 29c4 	CALL SUBOPT_0x75
001153 940e 29f0 	CALL SUBOPT_0x7D
                 ;    1669 		t = t*pert;
001155 940e 2640 	CALL SUBOPT_0x1
001157 940e 29c4 	CALL SUBOPT_0x75
001159 940e 31a7 	CALL __MULF12
00115b 87ed
00115c 87fe
00115d 876f
00115e 8b78      	__PUTD1S 13
                 ;    1670 	}
00115f 5f0f
001160 4f1f      	__ADDWRN 16,17,1
001161 cfe3      	RJMP _0x193
                 _0x194:
                 ;    1671 	return result;
001162 940e 2a03 	CALL SUBOPT_0x80
                 _0x492:
001164 940e 327a 	CALL __LOADLOCR4
001166 9661      	ADIW R28,17
001167 9508      	RET
                 ;    1672 }
                 ;    1673 
                 ;    1674 double MValueToTValue(double r,char type)
                 ;    1675 {
                 _MValueToTValue:
                 ;    1676 	double tlow;
                 ;    1677 	double tup;
                 ;    1678 	double rnew;
                 ;    1679 	double tnew;
                 ;    1680 	int count = 0;
                 ;    1681 
                 ;    1682 	switch(type)
001168 9760      	SBIW R28,16
001169 931a      	ST   -Y,R17
00116a 930a      	ST   -Y,R16
                 ;	r -> Y+19
                 ;	type -> Y+18
                 ;	tlow -> Y+14
                 ;	tup -> Y+10
                 ;	rnew -> Y+6
                 ;	tnew -> Y+2
                 ;	count -> R16,R17
00116b e000      	LDI  R16,0
00116c e010      	LDI  R17,0
00116d 89ea      	LDD  R30,Y+18
                 ;    1683 	{
                 ;    1684 		case 'T':
00116e 35e4      	CPI  R30,LOW(0x54)
00116f f449      	BRNE _0x198
                 ;    1685 			tlow =  -270;	tup = 400;
001170 940e 2a08 	CALL SUBOPT_0x81
001172 e0e0
001173 e0f0
001174 ec68
001175 e473      	__GETD1N 0x43C80000
001176 940e 2875 	CALL SUBOPT_0x47
                 ;    1686 			break;
001178 c04d      	RJMP _0x197
                 ;    1687 		case 'K':
                 _0x198:
001179 34eb      	CPI  R30,LOW(0x4B)
00117a f449      	BRNE _0x199
                 ;    1688 			tlow =  -270;	tup = 1372;
00117b 940e 2a08 	CALL SUBOPT_0x81
00117d e0e0
00117e e8f0
00117f ea6b
001180 e474      	__GETD1N 0x44AB8000
001181 940e 2875 	CALL SUBOPT_0x47
                 ;    1689 			break;
001183 c042      	RJMP _0x197
                 ;    1690 		case 'N':
                 _0x199:
001184 34ee      	CPI  R30,LOW(0x4E)
001185 f449      	BRNE _0x19A
                 ;    1691 			tlow =  -270;	tup = 1300;
001186 940e 2a08 	CALL SUBOPT_0x81
001188 e0e0
001189 e8f0
00118a ea62
00118b e474      	__GETD1N 0x44A28000
00118c 940e 2875 	CALL SUBOPT_0x47
                 ;    1692 			break;
00118e c037      	RJMP _0x197
                 ;    1693 		case 'E':
                 _0x19A:
00118f 34e5      	CPI  R30,LOW(0x45)
001190 f449      	BRNE _0x19B
                 ;    1694 			tlow =  -270;	tup = 1000;
001191 940e 2a08 	CALL SUBOPT_0x81
001193 e0e0
001194 e0f0
001195 e76a
001196 e474      	__GETD1N 0x447A0000
001197 940e 2875 	CALL SUBOPT_0x47
                 ;    1695 			break;
001199 c02c      	RJMP _0x197
                 ;    1696 		case 'B':
                 _0x19B:
00119a 34e2      	CPI  R30,LOW(0x42)
00119b f461      	BRNE _0x19C
                 ;    1697 			tlow =  0;	tup = 1280;
00119c e0e0
00119d 87ee
00119e 87ef
00119f 8be8
0011a0 8be9      	__CLRD1S 14
0011a1 e0e0
0011a2 e0f0
0011a3 ea60
0011a4 e474      	__GETD1N 0x44A00000
0011a5 940e 2875 	CALL SUBOPT_0x47
                 ;    1698 			break;
0011a7 c01e      	RJMP _0x197
                 ;    1699 		case 'J':
                 _0x19C:
0011a8 34ea      	CPI  R30,LOW(0x4A)
0011a9 f469      	BRNE _0x19D
                 ;    1700 			tlow =  -210;	tup = 1200;
0011aa e0e0
0011ab e0f0
0011ac e562
0011ad ec73      	__GETD1N 0xC3520000
0011ae 940e 2870 	CALL SUBOPT_0x46
0011b0 e0e0
0011b1 e0f0
0011b2 e966
0011b3 e474      	__GETD1N 0x44960000
0011b4 940e 2875 	CALL SUBOPT_0x47
                 ;    1701 			break;
0011b6 c00f      	RJMP _0x197
                 ;    1702 		case 'S':
                 _0x19D:
0011b7 35e3      	CPI  R30,LOW(0x53)
0011b8 f419      	BRNE _0x19E
                 ;    1703 			tlow =  -50;	tup = 1768;
0011b9 940e 2a0d 	CALL SUBOPT_0x82
                 ;    1704 			break;
0011bb c00a      	RJMP _0x197
                 ;    1705 		case 'R':
                 _0x19E:
0011bc 35e2      	CPI  R30,LOW(0x52)
0011bd f419      	BRNE _0x1A0
                 ;    1706 			tlow =  -50;	tup = 1768;
0011be 940e 2a0d 	CALL SUBOPT_0x82
                 ;    1707 			break;
0011c0 c005      	RJMP _0x197
                 ;    1708 		default:
                 _0x1A0:
                 ;    1709 			return -9999.9999;
0011c1 e0e0
0011c2 e4f0
0011c3 e16c
0011c4 ec76      	__GETD1N 0xC61C4000
0011c5 c02e      	RJMP _0x491
                 ;    1710 	}
                 _0x197:
                 ;    1711 
                 ;    1712 	while((tup - tlow > 0.00005) || (count++ < 100))
                 _0x1A1:
0011c6 940e 2918 	CALL SUBOPT_0x5C
0011c8 f019      	BREQ PC+4
0011c9 f010      	BRCS PC+3
0011ca 940c 11cf 	JMP  _0x1A4
0011cc 940e 288f 	CALL SUBOPT_0x4B
0011ce f4bc      	BRGE _0x1A3
                 _0x1A4:
                 ;    1713 	{
                 ;    1714 		tnew = (tlow+tup)/2.0;
0011cf 940e 2896 	CALL SUBOPT_0x4C
                 ;    1715 		rnew = GetThmoVolt(tnew,type);
0011d1 940e 291b 	CALL SUBOPT_0x5D
0011d3 89ee      	LDD  R30,Y+22
0011d4 93ea      	ST   -Y,R30
0011d5 940e 1025 	CALL _GetThmoVolt
0011d7 940e 2a17 	CALL SUBOPT_0x83
                 ;    1716 
                 ;    1717 		if(r < rnew)
0011d9 89ab
0011da 89bc
0011db 898d
0011dc 899e      	__GETD2S 19
0011dd 940e 323a 	CALL __CMPF12
0011df f418      	BRSH _0x1A6
                 ;    1718 			tup = tnew;
0011e0 940e 293c 	CALL SUBOPT_0x63
                 ;    1719 		else
0011e2 c002      	RJMP _0x1A7
                 _0x1A6:
                 ;    1720 			tlow = tnew;
0011e3 940e 28cd 	CALL SUBOPT_0x54
                 ;    1721 	}
                 _0x1A7:
0011e5 cfe0      	RJMP _0x1A1
                 _0x1A3:
                 ;    1722 
                 ;    1723 	return floor((tlow*10000.0+tup*10000.0)/2.0+0.5)/10000.0;
0011e6 940e 28cf 	CALL SUBOPT_0x55
0011e8 937f      	PUSH R23
0011e9 936f      	PUSH R22
0011ea 93ff      	PUSH R31
0011eb 93ef      	PUSH R30
0011ec 940e 28d7 	CALL SUBOPT_0x56
0011ee 91af      	POP  R26
0011ef 91bf      	POP  R27
0011f0 918f      	POP  R24
0011f1 919f      	POP  R25
0011f2 940e 28e2 	CALL SUBOPT_0x57
                 _0x491:
0011f4 8119      	LDD  R17,Y+1
0011f5 8108      	LDD  R16,Y+0
0011f6 9667      	ADIW R28,23
0011f7 9508      	RET
                 ;    1724 }
                 ;    1725 
                 ;    1726 #include "font.h"
                 ;    1727 
                 ;    1728 #include <MATH.H>
                 ;    1729 #include "typedef.h"
                 ;    1730 #include "global.h"
                 ;    1731 #include "utili.h"
                 ;    1732 #include "key.h"
                 ;    1733 extern uchar key;
                 ;    1734 extern u8 lcd_buffer;
                 ;    1735 /*
                 ;    1736         Communication with LCD/KBD board,
                 ;    1737         Incoming command format:
                 ;    1738                 CMDI_CLEARBUF   reset the LCD buffer count. (like the ack of the command)
                 ;    1739                 key:            key pressed
                 ;    1740         Out command format:
                 ;    1741                 CMDO_DISPLAYBTN,LED_STATUS      update the led status
                 ;    1742 */
                 ;    1743 /**********************************************************/
                 ;    1744 void Key_Init()
                 ;    1745 {
                 _Key_Init:
                 ;    1746 	key = KEY_INVALID;
0011f8 e2ed      	LDI  R30,LOW(45)
0011f9 2e5e      	MOV  R5,R30
                 ;    1747 }
0011fa 9508      	RET
                 ;    1748 
                 ;    1749 #include <string.h>
                 ;    1750 #include "lcd.h"
                 ;    1751 #include "font.h"
                 ;    1752 #include "global.h"
                 ;    1753 #include "utili.h"
                 ;    1754 
                 ;    1755 
                 ;    1756 
                 ;    1757 extern uchar key;
                 ;    1758 static uchar kbd_state;
                 
                 	.DSEG
                 _kbd_state_G8:
00071a           	.BYTE 0x1
                 ;    1759 void kbd_uart_push(uchar data)
                 ;    1760 {
                 
                 	.CSEG
                 _kbd_uart_push:
                 ;    1761         if(data == STATUS_IDLE||
                 ;	data -> Y+0
                 ;    1762            data == STATUS_ERR||
                 ;    1763            data == STATUS_DRAW||
                 ;    1764            data == STATUS_DONE) //lcd acknowledge
0011fb 81a8      	LD   R26,Y
0011fc 3fa0      	CPI  R26,LOW(0xF0)
0011fd f031      	BREQ _0x1A9
0011fe 3fa1      	CPI  R26,LOW(0xF1)
0011ff f021      	BREQ _0x1A9
001200 3fa2      	CPI  R26,LOW(0xF2)
001201 f011      	BREQ _0x1A9
001202 3fa3      	CPI  R26,LOW(0xF3)
001203 f421      	BRNE _0x1A8
                 _0x1A9:
                 ;    1765         {
                 ;    1766                 kbd_state = data;
001204 81e8      	LD   R30,Y
001205 93e0 071a 	STS  _kbd_state_G8,R30
                 ;    1767                 return;
001207 c230      	RJMP _0x48D
                 ;    1768         }
                 ;    1769         if(key == KEY_INVALID)
                 _0x1A8:
001208 e2ed      	LDI  R30,LOW(45)
001209 15e5      	CP   R30,R5
00120a f409      	BRNE _0x1AB
                 ;    1770                 key = data;
00120b 8058      	LDD  R5,Y+0
                 ;    1771 }
                 _0x1AB:
00120c c22b      	RJMP _0x48D
                 ;    1772 static u8 lcdcmd[40];
                 
                 	.DSEG
                 _lcdcmd_G8:
00071b           	.BYTE 0x28
                 ;    1773 
                 ;    1774 static u8 head[3] = {MARK_HEAD,MARK_HEAD,MARK_HEAD};
                 _head_G8:
000743           	.BYTE 0x3
                 ;    1775 static u8 tail[3] = {MARK_TAIL,MARK_TAIL,MARK_TAIL};
                 _tail_G8:
000746           	.BYTE 0x3
                 ;    1776 
                 ;    1777 static u8 hex2ch[2];
                 _hex2ch_G8:
000749           	.BYTE 0x2
                 ;    1778 void hex2char(uchar a)
                 ;    1779 {
                 
                 	.CSEG
                 _hex2char:
                 ;    1780         uchar h,l;
                 ;    1781 	h = (a & 0xf0) >> 4;
00120d 931a      	ST   -Y,R17
00120e 930a      	ST   -Y,R16
                 ;	a -> Y+2
                 ;	h -> R17
                 ;	l -> R16
00120f 81ea      	LDD  R30,Y+2
001210 7fe0      	ANDI R30,LOW(0xF0)
001211 95e2      	SWAP R30
001212 70ef      	ANDI R30,0xF
001213 2f1e      	MOV  R17,R30
                 ;    1782 	l = (a & 0x0f);
001214 81ea      	LDD  R30,Y+2
001215 70ef      	ANDI R30,LOW(0xF)
001216 2f0e      	MOV  R16,R30
                 ;    1783 	if(h <= 9)
001217 301a      	CPI  R17,10
001218 f418      	BRSH _0x1AE
                 ;    1784 		hex2ch[0] = (h+'0');
001219 2fe1      	MOV  R30,R17
00121a 5de0      	SUBI R30,-LOW(48)
00121b c003      	RJMP _0x4A0
                 ;    1785 	else
                 _0x1AE:
                 ;    1786 		hex2ch[0] = (h+'A'-0x0a);
00121c 2fe1      	MOV  R30,R17
00121d 5bef      	SUBI R30,-LOW(65)
00121e 50ea      	SUBI R30,LOW(10)
                 _0x4A0:
00121f 93e0 0749 	STS  _hex2ch_G8,R30
                 ;    1787 	if(l <= 9)
001221 300a      	CPI  R16,10
001222 f418      	BRSH _0x1B0
                 ;    1788 		hex2ch[1] = (l+'0');
001223 2fe0      	MOV  R30,R16
001224 5de0      	SUBI R30,-LOW(48)
001225 c003      	RJMP _0x4A1
                 ;    1789 	else
                 _0x1B0:
                 ;    1790 		hex2ch[1] = (l+'A'-0x0a);
001226 2fe0      	MOV  R30,R16
001227 5bef      	SUBI R30,-LOW(65)
001228 50ea      	SUBI R30,LOW(10)
                 _0x4A1:
001229 93e0 074a 	__PUTB1MN _hex2ch_G8,1
                 ;    1791 }
00122b c024      	RJMP _0x490
                 ;    1792 void onecmd(uchar len)
                 ;    1793 {
                 _onecmd:
                 ;    1794      uchar i = 0;
                 ;    1795      uchar sum;
                 ;    1796      sum = 0;
00122c 931a      	ST   -Y,R17
00122d 930a      	ST   -Y,R16
                 ;	len -> Y+2
                 ;	i -> R17
                 ;	sum -> R16
00122e e010      	LDI  R17,0
00122f e000      	LDI  R16,LOW(0)
                 ;    1797      prints(head,3,PORT_KBD); //send head
001230 e4e3      	LDI  R30,LOW(_head_G8)
001231 e0f7      	LDI  R31,HIGH(_head_G8)
001232 940e 2a19 	CALL SUBOPT_0x84
                 ;    1798      for(i = 0;i<len;i++)     //caculate cksum
001234 e010      	LDI  R17,LOW(0)
                 _0x1B3:
001235 81ea      	LDD  R30,Y+2
001236 171e      	CP   R17,R30
001237 f448      	BRSH _0x1B4
                 ;    1799      {
                 ;    1800         hex2char(lcdcmd[i]);
001238 940e 2a21 	CALL SUBOPT_0x85
00123a 940e 2a27 	CALL SUBOPT_0x86
                 ;    1801 	prints(hex2ch,2,PORT_KBD);
                 ;    1802         sum = sum + lcdcmd[i];
00123c 940e 2a21 	CALL SUBOPT_0x85
00123e 0f0e      	ADD  R16,R30
                 ;    1803      }
00123f 5f1f      	SUBI R17,-1
001240 cff4      	RJMP _0x1B3
                 _0x1B4:
                 ;    1804      lcdcmd[i] = 0xff - sum;
001241 2fa1      	MOV  R26,R17
001242 e0b0      	LDI  R27,0
001243 5ea5      	SUBI R26,LOW(-_lcdcmd_G8)
001244 4fb8      	SBCI R27,HIGH(-_lcdcmd_G8)
001245 efef      	LDI  R30,LOW(255)
001246 1be0      	SUB  R30,R16
001247 93ec      	ST   X,R30
                 ;    1805      hex2char(lcdcmd[i]);
001248 940e 2a21 	CALL SUBOPT_0x85
00124a 940e 2a27 	CALL SUBOPT_0x86
                 ;    1806      prints(hex2ch,2,PORT_KBD);
                 ;    1807      prints(tail,3,PORT_KBD); //send tail
00124c e4e6      	LDI  R30,LOW(_tail_G8)
00124d e0f7      	LDI  R31,HIGH(_tail_G8)
00124e 940e 2a19 	CALL SUBOPT_0x84
                 ;    1808 }
                 _0x490:
001250 8119      	LDD  R17,Y+1
001251 8108      	LDD  R16,Y+0
001252 9623      	ADIW R28,3
001253 9508      	RET
                 ;    1809 static u8 idle[10] = {MARK_HEAD,MARK_HEAD,MARK_HEAD,'1','2','E','D',MARK_TAIL,MARK_TAIL,MARK_TAIL};
                 
                 	.DSEG
                 _idle_G8:
00074b           	.BYTE 0xA
                 ;    1810 void sendcmd(uchar len)
                 ;    1811 {
                 
                 	.CSEG
                 _sendcmd:
                 ;    1812      ulong timeout;
                 ;    1813      if(DEBUG == 1)
001254 9724      	SBIW R28,4
                 ;	len -> Y+4
                 ;	timeout -> Y+0
                 ;    1814         return;
                 ;    1815      while(kbd_state != STATUS_IDLE)
                 _0x1B7:
001255 91a0 071a 	LDS  R26,_kbd_state_G8
001257 3fa0      	CPI  R26,LOW(0xF0)
001258 f091      	BREQ _0x1B9
                 ;    1816      {
                 ;    1817         if(kbd_state == STATUS_DRAW)
001259 3fa2      	CPI  R26,LOW(0xF2)
00125a f3d1      	BREQ _0x1B7
                 ;    1818                 continue;
                 ;    1819         if(kbd_state == STATUS_ERR)
00125b 3fa1      	CPI  R26,LOW(0xF1)
00125c f469      	BRNE _0x1BB
                 ;    1820         {
                 ;    1821                 prints(idle,10,PORT_KBD);
00125d e4eb      	LDI  R30,LOW(_idle_G8)
00125e e0f7      	LDI  R31,HIGH(_idle_G8)
00125f 93fa      	ST   -Y,R31
001260 93ea      	ST   -Y,R30
001261 e0ea      	LDI  R30,LOW(10)
001262 93ea      	ST   -Y,R30
001263 e0e4      	LDI  R30,LOW(4)
001264 93ea      	ST   -Y,R30
001265 940e 0cdd 	CALL _prints
                 ;    1822                 kbd_state = STATUS_DRAW;
001267 efe2      	LDI  R30,LOW(242)
001268 93e0 071a 	STS  _kbd_state_G8,R30
                 ;    1823         }
                 ;    1824      }
                 _0x1BB:
00126a cfea      	RJMP _0x1B7
                 _0x1B9:
                 ;    1825      onecmd(len);
00126b 940e 2a34 	CALL SUBOPT_0x87
                 ;    1826      timeout = 0;
                 ;    1827      kbd_state = STATUS_DONE;
00126d efe3      	LDI  R30,LOW(243)
00126e 93e0 071a 	STS  _kbd_state_G8,R30
                 ;    1828      while(kbd_state != STATUS_IDLE)
                 _0x1BC:
001270 91a0 071a 	LDS  R26,_kbd_state_G8
001272 3fa0      	CPI  R26,LOW(0xF0)
001273 f101      	BREQ _0x1BE
                 ;    1829      {
                 ;    1830          if(kbd_state == STATUS_ERR)
001274 3fa1      	CPI  R26,LOW(0xF1)
001275 f411      	BRNE _0x1BF
                 ;    1831          {
                 ;    1832                 onecmd(len);
001276 940e 2a34 	CALL SUBOPT_0x87
                 ;    1833                 timeout = 0;
                 ;    1834          }
                 ;    1835          if(timeout < 655350)
                 _0x1BF:
001278 81a8
001279 81b9
00127a 818a
00127b 819b      	__GETD2S 0
00127c 3fa6
00127d efef
00127e 07be
00127f e0e9
001280 078e
001281 e0e0
001282 079e      	__CPD2N 0x9FFF6
001283 f468      	BRSH _0x1C0
                 ;    1836          {
                 ;    1837                 sleepms(1);
001284 e0e1      	LDI  R30,LOW(1)
001285 e0f0      	LDI  R31,HIGH(1)
001286 940e 27c0 	CALL SUBOPT_0x32
                 ;    1838                 timeout++;
001288 940e 2660 	CALL SUBOPT_0x6
00128a 940e 280c 	CALL SUBOPT_0x3C
00128c 83e8
00128d 83f9
00128e 836a
00128f 837b      	__PUTD1S 0
                 ;    1839          }else{
001290 c002      	RJMP _0x1C1
                 _0x1C0:
                 ;    1840                 onecmd(len);
001291 940e 2a34 	CALL SUBOPT_0x87
                 ;    1841                 timeout = 0;
                 ;    1842          }
                 _0x1C1:
                 ;    1843      }
001293 cfdc      	RJMP _0x1BC
                 _0x1BE:
                 ;    1844 }
                 _0x48F:
001294 9625      	ADIW R28,5
001295 9508      	RET
                 ;    1845 /*-----------------------------------*/
                 ;    1846 void LCD_Init (void)
                 ;    1847 {
                 _LCD_Init:
                 ;    1848         kbd_state = STATUS_IDLE;
001296 efe0      	LDI  R30,LOW(240)
001297 93e0 071a 	STS  _kbd_state_G8,R30
                 ;    1849         lcdcmd[0] = CMDO_LCD_INIT;
001299 940e 2a3e 	CALL SUBOPT_0x88
                 ;    1850         sendcmd(1);
                 ;    1851         //do it twice avoid the missing of first command on boot up
                 ;    1852         lcdcmd[0] = CMDO_LCD_INIT;
00129b 940e 2a3e 	CALL SUBOPT_0x88
                 ;    1853         sendcmd(1);
                 ;    1854 
                 ;    1855 }
00129d 9508      	RET
                 ;    1856 
                 ;    1857 /********************************************************/
                 ;    1858 /* 							*/
                 ;    1859 /********************************************************/
                 ;    1860 void LCD_Cls(void)
                 ;    1861 {
                 _LCD_Cls:
                 ;    1862         lcdcmd[0] = CMDO_LCD_CLS;
00129e e0e4      	LDI  R30,LOW(4)
00129f 93e0 071b 	STS  _lcdcmd_G8,R30
                 ;    1863         sendcmd(1);
0012a1 e0e1      	LDI  R30,LOW(1)
0012a2 93ea      	ST   -Y,R30
0012a3 940e 1254 	CALL _sendcmd
                 ;    1864 }
0012a5 9508      	RET
                 ;    1865 void LCD_ClsBlock(uchar x1,uchar y1,uchar x2,uchar y2)
                 ;    1866 {
                 _LCD_ClsBlock:
                 ;    1867         lcdcmd[0] = CMDO_LCD_CLSBLK;
                 ;	x1 -> Y+3
                 ;	y1 -> Y+2
                 ;	x2 -> Y+1
                 ;	y2 -> Y+0
0012a6 e0e6      	LDI  R30,LOW(6)
0012a7 940e 2a45 	CALL SUBOPT_0x89
                 ;    1868         lcdcmd[1] = x1;
                 ;    1869         lcdcmd[2] = y1;
                 ;    1870         lcdcmd[3] = x2;
                 ;    1871         lcdcmd[4] = y2;
                 ;    1872         sendcmd(5);
                 ;    1873 }
0012a9 c054      	RJMP _0x48E
                 ;    1874 void display_buttons(uchar btn_pos,uchar btn_val)   //send led status to sub board
                 ;    1875 {
                 _display_buttons:
                 ;    1876         lcdcmd[0] = CMDO_DISPLAYBTN;
                 ;	btn_pos -> Y+1
                 ;	btn_val -> Y+0
0012aa e0e2      	LDI  R30,LOW(2)
0012ab 93e0 071b 	STS  _lcdcmd_G8,R30
                 ;    1877         if(btn_val == 0)
0012ad 81e8      	LD   R30,Y
0012ae 30e0      	CPI  R30,0
0012af f419      	BRNE _0x1C2
                 ;    1878 	      btn_pos += 4; //change from 'a'-'d' to 'e'-'h'   //add 4
0012b0 81e9      	LDD  R30,Y+1
0012b1 5fec      	SUBI R30,-LOW(4)
0012b2 83e9      	STD  Y+1,R30
                 ;    1879         lcdcmd[1] = btn_pos;
                 _0x1C2:
0012b3 81e9      	LDD  R30,Y+1
0012b4 93e0 071c 	__PUTB1MN _lcdcmd_G8,1
                 ;    1880         sendcmd(2);
0012b6 e0e2      	LDI  R30,LOW(2)
0012b7 93ea      	ST   -Y,R30
0012b8 940e 1254 	CALL _sendcmd
                 ;    1881 }
0012ba 9622      	ADIW R28,2
0012bb 9508      	RET
                 ;    1882 
                 ;    1883 
                 ;    1884 /*	x,y*/
                 ;    1885 /*
                 ;    1886 void LCD_GraphSetAddr(uchar x,uchar y)
                 ;    1887 {
                 ;    1888 	uint xy;
                 ;    1889 	xy=y;
                 ;    1890 	xy=xy*16+x+256;
                 ;    1891   	//LCD_CE(0);
                 ;    1892 	LCD_Write2(xy&0xff,xy/256,0x24);
                 ;    1893 }
                 ;    1894 */
                 ;    1895 /*	x,y	*/
                 ;    1896 /*
                 ;    1897 void LCD_TextSetAddr(uchar x,uchar y)
                 ;    1898 {
                 ;    1899   	//LCD_CE(0);
                 ;    1900 	LCD_Write2(y*16+x,0,0x24);
                 ;    1901 }
                 ;    1902 */
                 ;    1903 /*	*/
                 ;    1904 /*
                 ;    1905 void LCD_ClrPixel(uchar x,uchar y)
                 ;    1906 {
                 ;    1907 	uchar b;
                 ;    1908 	uint addr = LCD_GRAPH_HOME_ADDR + y * LCD_WIDTH + x / 8;
                 ;    1909 
                 ;    1910 	b = 7 - (x % 8);
                 ;    1911 
                 ;    1912 	LCD_WriteInt(addr,0x24);
                 ;    1913 	LCD_Comm(0xf0|b);
                 ;    1914 }
                 ;    1915 */
                 ;    1916 /*		*/
                 ;    1917 /*
                 ;    1918 void LCD_Putpixel(uchar x,uchar y)
                 ;    1919 {
                 ;    1920 	uchar b;
                 ;    1921 	uint addr = LCD_GRAPH_HOME_ADDR + ((uint)y * LCD_WIDTH) + x>>3;
                 ;    1922 
                 ;    1923 	b = 7 - (x % 8);
                 ;    1924 
                 ;    1925 	LCD_WriteInt(addr,0x24);
                 ;    1926 	LCD_Comm(0xf8|b);
                 ;    1927 }
                 ;    1928 */
                 ;    1929 /*	x,y	*/
                 ;    1930 /*
                 ;    1931 void LCD_ShowCursor(uchar x,uchar y)
                 ;    1932 {
                 ;    1933 	return;
                 ;    1934   	//LCD_CE(0);
                 ;    1935 	LCD_Comm(0x97);	//
                 ;    1936 	LCD_Write2(x,y,0x21);
                 ;    1937 }
                 ;    1938 
                 ;    1939 //	
                 ;    1940 
                 ;    1941 void LCD_HideCursor(void)
                 ;    1942 {
                 ;    1943 	return;
                 ;    1944   	//LCD_CE(0);
                 ;    1945 	LCD_Comm(0x9c);
                 ;    1946 }
                 ;    1947 */
                 ;    1948 /*
                 ;    1949 void LCD_PrintNumStr(uchar x,uchar y,uchar *s)
                 ;    1950 {
                 ;    1951 	x =(x / 8) * 8;
                 ;    1952 
                 ;    1953 	while(*s)
                 ;    1954 	{
                 ;    1955 		LCD_PutImg(x,y,1,11,Num_Tab + (*s - '0') * 11);
                 ;    1956 
                 ;    1957 		x = x + 8;
                 ;    1958 
                 ;    1959 		s++;
                 ;    1960 	}
                 ;    1961 }
                 ;    1962 
                 ;    1963 
                 ;    1964 void LCD_PrintBlackBlock(uchar x,uchar y,bool not_empty)
                 ;    1965 {
                 ;    1966 	x =(x / 8) * 8;
                 ;    1967 	LCD_PutImg(x,y,1,11,BlockTab + (not_empty?0:1) * 11);
                 ;    1968 }
                 ;    1969 */
                 ;    1970 
                 ;    1971 void LCD_ReverseRect(uchar x,uchar y,uchar w,uchar h)
                 ;    1972 {
                 _LCD_ReverseRect:
                 ;    1973         lcdcmd[0] = CMDO_LCD_REVERSE;
                 ;	x -> Y+3
                 ;	y -> Y+2
                 ;	w -> Y+1
                 ;	h -> Y+0
0012bc e0e5      	LDI  R30,LOW(5)
0012bd 940e 2a45 	CALL SUBOPT_0x89
                 ;    1974         lcdcmd[1] = x;
                 ;    1975         lcdcmd[2] = y;
                 ;    1976         lcdcmd[3] = w;
                 ;    1977         lcdcmd[4] = h;
                 ;    1978         sendcmd(5);
                 ;    1979 }
0012bf c03e      	RJMP _0x48E
                 ;    1980 /*--------------------------------*/
                 ;    1981 /*
                 ;    1982 void LCD_TextPutchar(uchar x,uchar y,uchar c)
                 ;    1983 {
                 ;    1984   	//LCD_CE(0);
                 ;    1985   	LCD_WriteInt(LCD_TEXT_HOME_ADDR + LCD_WIDTH * y + x,0x24);
                 ;    1986   	LCD_Comm(0xb0);
                 ;    1987 	LCD_AutoWrite(c - 0x20);
                 ;    1988   	LCD_Comm(0xb2);
                 ;    1989 }
                 ;    1990 
                 ;    1991 void LCD_TextPrint(uchar x,uchar y,char *s)
                 ;    1992 {
                 ;    1993   	//LCD_CE(0);
                 ;    1994   	LCD_WriteInt(LCD_TEXT_HOME_ADDR + LCD_WIDTH * y + x,0x24);
                 ;    1995   	LCD_Comm(0xb0);
                 ;    1996   	while(*s)
                 ;    1997   	{
                 ;    1998 		LCD_AutoWrite(*s - 0x20);
                 ;    1999 		s++;
                 ;    2000 	}
                 ;    2001   	LCD_Comm(0xb2);
                 ;    2002 }
                 ;    2003 void LCD_TextPrintWord(uchar x,uchar y,uint16 n,uchar start)
                 ;    2004 {
                 ;    2005 	uchar buf[4];
                 ;    2006 	int i;
                 ;    2007 
                 ;    2008 	if(start > 3) start = 0;
                 ;    2009 
                 ;    2010 	for(i = 0; i < 4; i++)
                 ;    2011 	{
                 ;    2012 		buf[i] = n % 10;
                 ;    2013 		n /= 10;
                 ;    2014 	}
                 ;    2015 
                 ;    2016 	for(i = 3-start; i >= 0; i--)
                 ;    2017 	{
                 ;    2018 		LCD_TextPutchar(x,y,'0' + buf[i]);
                 ;    2019 		x ++;
                 ;    2020 	}
                 ;    2021 }
                 ;    2022 
                 ;    2023 void LCD_TextPrintHex(uchar x,uchar y,uchar hex)
                 ;    2024 {
                 ;    2025 	uchar c1,c2;
                 ;    2026 	//4
                 ;    2027 	c1 = hex & 0x0f;	//lo
                 ;    2028 	//4
                 ;    2029 	c2 = (hex >> 4) & 0x0f; //hi
                 ;    2030 
                 ;    2031 	LCD_TextPutchar(x,y,HexTable[c2]);
                 ;    2032 	LCD_TextPutchar(x+1,y,HexTable[c1]);
                 ;    2033 }
                 ;    2034 */
                 ;    2035 /************************************************/
                 ;    2036 /*, aX+bY=1	*/
                 ;    2037 /************************************************/
                 ;    2038 /*
                 ;    2039 void LCD_Linexy(uchar x0,uchar y0,uchar xt,uchar yt)
                 ;    2040 {
                 ;    2041 	register uchar t;
                 ;    2042 	int xerr=0,yerr=0,delta_x,delta_y,distance;
                 ;    2043 	int incx,incy,uRow,uCol;
                 ;    2044 
                 ;    2045 	delta_x = xt-x0;				//
                 ;    2046 	delta_y = yt-y0;
                 ;    2047 	uRow = x0;
                 ;    2048 	uCol = y0;
                 ;    2049 	if(delta_x>0) incx=1;				//
                 ;    2050 	else if( delta_x==0 ) incx=0;			//
                 ;    2051 	else {incx=-1;delta_x=-delta_x;}
                 ;    2052 
                 ;    2053 	if(delta_y>0) incy=1;
                 ;    2054 	else if( delta_y==0 ) incy=0;			//
                 ;    2055 	else {incy=-1;delta_y=-delta_y;}
                 ;    2056 
                 ;    2057 	if( delta_x > delta_y )	distance=delta_x;	//
                 ;    2058 	else distance=delta_y;
                 ;    2059 
                 ;    2060   	//LCD_CE(0);
                 ;    2061 	for( t=0;t <= distance+1; t++ )
                 ;    2062         {					//
                 ;    2063 		LCD_Putpixel(uRow,uCol);			//
                 ;    2064 		xerr +=	delta_x	;
                 ;    2065 		yerr +=	delta_y	;
                 ;    2066 
                 ;    2067 		if( xerr > distance )
                 ;    2068                	{
                 ;    2069 			xerr-=distance;
                 ;    2070 			uRow+=incx;
                 ;    2071 		}
                 ;    2072 		if( yerr > distance )
                 ;    2073                	{
                 ;    2074 			yerr-=distance;
                 ;    2075 			uCol+=incy;
                 ;    2076 		}
                 ;    2077 	}
                 ;    2078 }
                 ;    2079 */
                 ;    2080 /*
                 ;    2081 void LCD_LineH(uchar y)
                 ;    2082 {
                 ;    2083 	char i;
                 ;    2084 
                 ;    2085   	//LCD_CE(0);
                 ;    2086   	LCD_WriteInt(LCD_GRAPH_HOME_ADDR + LCD_WIDTH * y ,0x24);
                 ;    2087 	LCD_Comm(0xb0);
                 ;    2088 	for(i=0;i<LCD_WIDTH;i++)
                 ;    2089  		LCD_AutoWrite(0xff);
                 ;    2090 	LCD_Comm(0xb2);
                 ;    2091 }
                 ;    2092 */
                 ;    2093 /*
                 ;    2094 void LCD_LineV(uchar x,uchar y1,uchar y2)
                 ;    2095 {
                 ;    2096 	int i;
                 ;    2097   	//LCD_CE(0);
                 ;    2098 	for(i = y1; i < y2; i++)
                 ;    2099 	{
                 ;    2100 		LCD_Putpixel(x,i);
                 ;    2101 	}
                 ;    2102 }
                 ;    2103 */
                 ;    2104 
                 ;    2105 void LCD_Rectange(uchar x1,uchar y1,uchar x2,uchar y2)
                 ;    2106 {
                 _LCD_Rectange:
                 ;    2107         lcdcmd[0] = CMDO_LCD_RECT;
                 ;	x1 -> Y+3
                 ;	y1 -> Y+2
                 ;	x2 -> Y+1
                 ;	y2 -> Y+0
0012c0 e0e7      	LDI  R30,LOW(7)
0012c1 940e 2a45 	CALL SUBOPT_0x89
                 ;    2108         lcdcmd[1] = x1;
                 ;    2109         lcdcmd[2] = y1;
                 ;    2110         lcdcmd[3] = x2;
                 ;    2111         lcdcmd[4] = y2;
                 ;    2112         sendcmd(5);
                 ;    2113 }
0012c3 c03a      	RJMP _0x48E
                 ;    2114 void LCD_PrintChar(uchar cmd, uchar x,uchar y,uchar *s)
                 ;    2115 {
                 _LCD_PrintChar:
                 ;    2116         uchar pos = 0;
                 ;    2117         lcdcmd[0] = cmd;
0012c4 931a      	ST   -Y,R17
                 ;	cmd -> Y+5
                 ;	x -> Y+4
                 ;	y -> Y+3
                 ;	*s -> Y+1
                 ;	pos -> R17
0012c5 e010      	LDI  R17,0
0012c6 81ed      	LDD  R30,Y+5
0012c7 93e0 071b 	STS  _lcdcmd_G8,R30
                 ;    2118         lcdcmd[1] = x;
0012c9 81ec      	LDD  R30,Y+4
0012ca 93e0 071c 	__PUTB1MN _lcdcmd_G8,1
                 ;    2119         lcdcmd[2] = y;
0012cc 81eb      	LDD  R30,Y+3
0012cd 93e0 071d 	__PUTB1MN _lcdcmd_G8,2
                 ;    2120         pos = 1;
0012cf e011      	LDI  R17,LOW(1)
                 ;    2121         while(*s)
                 _0x1C3:
0012d0 81a9      	LDD  R26,Y+1
0012d1 81ba      	LDD  R27,Y+1+1
0012d2 91ec      	LD   R30,X
0012d3 30e0      	CPI  R30,0
0012d4 f061      	BREQ _0x1C5
                 ;    2122         {
                 ;    2123                 lcdcmd[pos + 3] = *s++;
0012d5 940e 2a57 	CALL SUBOPT_0x8A
0012d7 010f      	MOVW R0,R30
0012d8 81a9      	LDD  R26,Y+1
0012d9 81ba      	LDD  R27,Y+1+1
0012da 91ed      	LD   R30,X+
0012db 83a9      	STD  Y+1,R26
0012dc 83ba      	STD  Y+1+1,R27
0012dd 01d0      	MOVW R26,R0
0012de 93ec      	ST   X,R30
                 ;    2124                 pos = pos + 1;
0012df 5f1f      	SUBI R17,-LOW(1)
                 ;    2125         }
0012e0 cfef      	RJMP _0x1C3
                 _0x1C5:
                 ;    2126         lcdcmd[pos+3] = 0x00;
0012e1 940e 2a57 	CALL SUBOPT_0x8A
0012e3 e0a0      	LDI  R26,LOW(0)
0012e4 83a0      	STD  Z+0,R26
                 ;    2127         lcdcmd[3] = pos;
0012e5 e1ee
0012e6 e0f7      	__POINTW1MN _lcdcmd_G8,3
0012e7 8310      	ST   Z,R17
                 ;    2128         pos = pos + 4;
0012e8 5f1c      	SUBI R17,-LOW(4)
                 ;    2129         sendcmd(pos);
0012e9 931a      	ST   -Y,R17
0012ea 940e 1254 	CALL _sendcmd
                 ;    2130 }
0012ec 8118      	LDD  R17,Y+0
0012ed 9626      	ADIW R28,6
0012ee 9508      	RET
                 ;    2131 void LCD_PrintHz12(uchar x,uchar y,uchar *s)
                 ;    2132 {
                 _LCD_PrintHz12:
                 ;    2133         LCD_PrintChar(CMDO_LCD_HZ12,x,y,s);
                 ;	x -> Y+3
                 ;	y -> Y+2
                 ;	*s -> Y+0
0012ef e0e8      	LDI  R30,LOW(8)
0012f0 940e 2a5c 	CALL SUBOPT_0x8B
                 ;    2134 }
0012f2 c00b      	RJMP _0x48E
                 ;    2135 void LCD_PrintHz16(uchar x,uchar y,uchar *s)
                 ;    2136 {
                 _LCD_PrintHz16:
                 ;    2137         LCD_PrintChar(CMDO_LCD_HZ16,x,y,s);
                 ;	x -> Y+3
                 ;	y -> Y+2
                 ;	*s -> Y+0
0012f3 e0e9      	LDI  R30,LOW(9)
0012f4 940e 2a5c 	CALL SUBOPT_0x8B
                 ;    2138 }
0012f6 c007      	RJMP _0x48E
                 ;    2139 //6x8
                 ;    2140 void LCD_Print6X8(uchar x, uchar y,uchar *s)
                 ;    2141 {
                 _LCD_Print6X8:
                 ;    2142         LCD_PrintChar(CMDO_LCD_68,x,y,s);
                 ;	x -> Y+3
                 ;	y -> Y+2
                 ;	*s -> Y+0
0012f7 e1e0      	LDI  R30,LOW(16)
0012f8 940e 2a5c 	CALL SUBOPT_0x8B
                 ;    2143 }
0012fa c003      	RJMP _0x48E
                 ;    2144 
                 ;    2145 //6x8
                 ;    2146 void LCD_Print8X16(uchar x, uchar y,uchar *s)
                 ;    2147 {
                 _LCD_Print8X16:
                 ;    2148         LCD_PrintChar(CMDO_LCD_816,x,y,s);
                 ;	x -> Y+3
                 ;	y -> Y+2
                 ;	*s -> Y+0
0012fb e1e1      	LDI  R30,LOW(17)
0012fc 940e 2a5c 	CALL SUBOPT_0x8B
                 ;    2149 }
                 _0x48E:
0012fe 9624      	ADIW R28,4
0012ff 9508      	RET
                 ;    2150 
                 ;    2151 //24x32
                 ;    2152 /*
                 ;    2153 void LCD_Print24X32(uchar x, uchar y,uchar *s)
                 ;    2154 {
                 ;    2155 	//x8
                 ;    2156 	x =(x / 8) * 8;
                 ;    2157 	while(*s)
                 ;    2158 	{
                 ;    2159 		if( *s >= '0' && *s <= '9')	//
                 ;    2160 		{
                 ;    2161 			LCD_PutImg(x,y,3,32,Font24X32[*s-'0']);
                 ;    2162 			x += 24;
                 ;    2163 		}
                 ;    2164 		else if( *s == ' ')
                 ;    2165 		{
                 ;    2166 			x += 8;
                 ;    2167 		}
                 ;    2168 		else if( *s == '-')
                 ;    2169 		{
                 ;    2170 			LCD_PutImg(x,y,3,32,Font24X32[12]);
                 ;    2171 			x += 24;
                 ;    2172 		}
                 ;    2173 		else
                 ;    2174 		{
                 ;    2175 			LCD_PutImg(x,y+16,1,16,ASC8x16[*s]);	//
                 ;    2176 			x += 8;
                 ;    2177 		}
                 ;    2178 		s ++;
                 ;    2179 	}
                 ;    2180 }*/
                 ;    2181 #include "utili.h"
                 ;    2182 #include "scanner.h"
                 ;    2183 #include "stdlib.h"
                 ;    2184 
                 ;    2185 static uchar navlen = 0;
                 
                 	.DSEG
                 _navlen_G9:
000755           	.BYTE 0x1
                 ;    2186 static double reading = -1000;
                 _reading_G9:
000756           	.BYTE 0x4
                 ;    2187 static char navread[20];
                 _navread_G9:
00075a           	.BYTE 0x14
                 ;    2188 static char navread2[20];
                 _navread2_G9:
00076e           	.BYTE 0x14
                 ;    2189 u8 scancmd[5];
                 _scancmd:
000782           	.BYTE 0x5
                 ;    2190 void scanner_set_mode()
                 ;    2191 {
                 
                 	.CSEG
                 _scanner_set_mode:
                 ;    2192         if (IS_BORE_MODE)
001300 940e 2794 	CALL SUBOPT_0x2F
001302 f411      	BRNE _0x1C7
                 ;    2193         {
                 ;    2194             scancmd[0] = '#';
001303 e2e3      	LDI  R30,LOW(35)
001304 c001      	RJMP _0x4A2
                 ;    2195         }else{
                 _0x1C7:
                 ;    2196             scancmd[0]= '!';
001305 e2e1      	LDI  R30,LOW(33)
                 _0x4A2:
001306 93e0 0782 	STS  _scancmd,R30
                 ;    2197         }
                 ;    2198         scancmd[1] = 0x0D;
001308 e8e3
001309 e0f7      	__POINTW1MN _scancmd,1
00130a e0ad      	LDI  R26,LOW(13)
00130b 83a0      	STD  Z+0,R26
                 ;    2199         scancmd[2] = 0x0A;
00130c e8e4
00130d e0f7      	__POINTW1MN _scancmd,2
00130e 940e 2a67 	CALL SUBOPT_0x8C
                 ;    2200         prints(scancmd,3,PORT_SCANNER);
001310 e0e3      	LDI  R30,LOW(3)
001311 940e 2a6e 	CALL SUBOPT_0x8D
                 ;    2201 }
001313 9508      	RET
                 ;    2202 void scanner_set_channel(uchar ch)
                 ;    2203 {
                 _scanner_set_channel:
                 ;    2204         if(ch < 10)
                 ;	ch -> Y+0
001314 81a8      	LD   R26,Y
001315 30aa      	CPI  R26,LOW(0xA)
001316 f4a0      	BRSH _0x1C9
                 ;    2205         {
                 ;    2206                 scancmd[0] = (ch + '0');
001317 81e8      	LD   R30,Y
001318 5de0      	SUBI R30,-LOW(48)
001319 93e0 0782 	STS  _scancmd,R30
                 ;    2207                 scancmd[1] = 'A';
00131b e8e3
00131c e0f7      	__POINTW1MN _scancmd,1
00131d e4a1      	LDI  R26,LOW(65)
00131e 83a0      	STD  Z+0,R26
                 ;    2208                 scancmd[2] = 0x0D;
00131f e8e4
001320 e0f7      	__POINTW1MN _scancmd,2
001321 e0ad      	LDI  R26,LOW(13)
001322 83a0      	STD  Z+0,R26
                 ;    2209                 scancmd[3] = 0x0A;
001323 e8e5
001324 e0f7      	__POINTW1MN _scancmd,3
001325 940e 2a67 	CALL SUBOPT_0x8C
                 ;    2210                 prints(scancmd,4,PORT_SCANNER);
001327 e0e4      	LDI  R30,LOW(4)
001328 940e 2a6e 	CALL SUBOPT_0x8D
                 ;    2211                 return;
00132a c10d      	RJMP _0x48D
                 ;    2212         }
                 ;    2213 
                 ;    2214         scancmd[0] = (u8)(ch / 10) + '0';
                 _0x1C9:
00132b 81a8      	LD   R26,Y
00132c e0ea      	LDI  R30,LOW(10)
00132d 940e 2fa2 	CALL __DIVB21U
00132f 5de0      	SUBI R30,-LOW(48)
001330 93e0 0782 	STS  _scancmd,R30
                 ;    2215         ch = ch % 10;
001332 81a8      	LD   R26,Y
001333 e0ea      	LDI  R30,LOW(10)
001334 940e 2ff9 	CALL __MODB21U
001336 83e8      	ST   Y,R30
                 ;    2216         scancmd[1] = ch + '0';
001337 5de0      	SUBI R30,-LOW(48)
001338 93e0 0783 	__PUTB1MN _scancmd,1
                 ;    2217         scancmd[2] = 'A'; scancmd[3] = 0x0D; scancmd[4] = 0x0A;
00133a e8e4
00133b e0f7      	__POINTW1MN _scancmd,2
00133c e4a1      	LDI  R26,LOW(65)
00133d 83a0      	STD  Z+0,R26
00133e e8e5
00133f e0f7      	__POINTW1MN _scancmd,3
001340 e0ad      	LDI  R26,LOW(13)
001341 83a0      	STD  Z+0,R26
001342 e8e6
001343 e0f7      	__POINTW1MN _scancmd,4
001344 940e 2a67 	CALL SUBOPT_0x8C
                 ;    2218         prints(scancmd,5,PORT_SCANNER);
001346 e0e5      	LDI  R30,LOW(5)
001347 940e 2a6e 	CALL SUBOPT_0x8D
                 ;    2219 }
001349 c0ee      	RJMP _0x48D
                 ;    2220 
                 ;    2221 //incoming data handler of scanner
                 ;    2222 void scanner_uart_push(uchar data)
                 ;    2223 {
                 _scanner_uart_push:
                 ;    2224 }
00134a c0ed      	RJMP _0x48D
                 ;    2225 //incoming data hander of PC
                 ;    2226 void pc_uart_push(uchar data)
                 ;    2227 {
                 _pc_uart_push:
                 ;    2228 }
00134b c0ec      	RJMP _0x48D
                 ;    2229 static uchar navcmd[12];
                 
                 	.DSEG
                 _navcmd_G9:
000787           	.BYTE 0xC
                 ;    2230 #define NAV_INVALID     -1000
                 ;    2231 #define NAV_VALID       -2000
                 ;    2232 #define RESETNAV       navlen = 0;   reading = NAV_INVALID;
                 ;    2233 
                 ;    2234 void nav_command(uchar cmd)
                 ;    2235 {
                 
                 	.CSEG
                 _nav_command:
                 ;    2236         if(cmd == NAV_30V)
                 ;	cmd -> Y+0
00134c 81a8      	LD   R26,Y
00134d 30a2      	CPI  R26,LOW(0x2)
00134e f431      	BRNE _0x1CA
                 ;    2237                sprintf(navcmd,"%%01;12;02\r");
00134f 940e 2a73 	CALL SUBOPT_0x8E
001351 e2eb
001352 e0f8      	__POINTW1FN _0,103
001353 940e 278d 	CALL SUBOPT_0x2E
                 ;    2238         if(cmd == NAV_1V)
                 _0x1CA:
001355 81a8      	LD   R26,Y
001356 30a3      	CPI  R26,LOW(0x3)
001357 f431      	BRNE _0x1CB
                 ;    2239                sprintf(navcmd,"%%01;12;01\r");
001358 940e 2a73 	CALL SUBOPT_0x8E
00135a e3e7
00135b e0f8      	__POINTW1FN _0,115
00135c 940e 278d 	CALL SUBOPT_0x2E
                 ;    2240         if(cmd == NAV_120MV)
                 _0x1CB:
00135e 81a8      	LD   R26,Y
00135f 30a4      	CPI  R26,LOW(0x4)
001360 f431      	BRNE _0x1CC
                 ;    2241                sprintf(navcmd,"%%01;12;00\r");
001361 940e 2a73 	CALL SUBOPT_0x8E
001363 e4e3
001364 e0f8      	__POINTW1FN _0,127
001365 940e 278d 	CALL SUBOPT_0x2E
                 ;    2242         if(cmd == NAV_AFLTOFF)
                 _0x1CC:
001367 81a8      	LD   R26,Y
001368 30a5      	CPI  R26,LOW(0x5)
001369 f431      	BRNE _0x1CD
                 ;    2243                sprintf(navcmd,"%%01;26\r");
00136a 940e 2a73 	CALL SUBOPT_0x8E
00136c e4ef
00136d e0f8      	__POINTW1FN _0,139
00136e 940e 278d 	CALL SUBOPT_0x2E
                 ;    2244         if(cmd == NAV_AFLTON)
                 _0x1CD:
001370 81a8      	LD   R26,Y
001371 30a6      	CPI  R26,LOW(0x6)
001372 f431      	BRNE _0x1CE
                 ;    2245                sprintf(navcmd,"%%01;27\r");
001373 940e 2a73 	CALL SUBOPT_0x8E
001375 e5e8
001376 e0f8      	__POINTW1FN _0,148
001377 940e 278d 	CALL SUBOPT_0x2E
                 ;    2246         if(cmd == NAV_SLOWMODE)
                 _0x1CE:
001379 81a8      	LD   R26,Y
00137a 30a7      	CPI  R26,LOW(0x7)
00137b f431      	BRNE _0x1CF
                 ;    2247                sprintf(navcmd,"%%01;27\r");
00137c 940e 2a73 	CALL SUBOPT_0x8E
00137e e5e8
00137f e0f8      	__POINTW1FN _0,148
001380 940e 278d 	CALL SUBOPT_0x2E
                 ;    2248         if(cmd == NAV_ZEROON)
                 _0x1CF:
001382 81a8      	LD   R26,Y
001383 30a8      	CPI  R26,LOW(0x8)
001384 f431      	BRNE _0x1D0
                 ;    2249         {
                 ;    2250                sprintf(navcmd,"%%01;06\r");
001385 940e 2a73 	CALL SUBOPT_0x8E
001387 e6e1
001388 e0f8      	__POINTW1FN _0,157
001389 940e 278d 	CALL SUBOPT_0x2E
                 ;    2251         }
                 ;    2252         if(cmd == NAV_INIT)
                 _0x1D0:
00138b 81a8      	LD   R26,Y
00138c 30a1      	CPI  R26,LOW(0x1)
00138d f431      	BRNE _0x1D1
                 ;    2253         {
                 ;    2254                 RESETNAV;
00138e 940e 2a78 	CALL SUBOPT_0x8F
                 ;    2255                 sprintf(navcmd,"%%01;00\r");
001390 e6ea
001391 e0f8      	__POINTW1FN _0,166
001392 940e 278d 	CALL SUBOPT_0x2E
                 ;    2256         }
                 ;    2257         if(cmd == NAV_READ)
                 _0x1D1:
001394 81a8      	LD   R26,Y
001395 30a9      	CPI  R26,LOW(0x9)
001396 f431      	BRNE _0x1D2
                 ;    2258         {
                 ;    2259                 RESETNAV;
001397 940e 2a78 	CALL SUBOPT_0x8F
                 ;    2260                 sprintf(navcmd,"%%01;01\r");
001399 e7e3
00139a e0f8      	__POINTW1FN _0,175
00139b 940e 278d 	CALL SUBOPT_0x2E
                 ;    2261         }
                 ;    2262 //                com1_putc('?');
                 ;    2263         prints(navcmd,strlen(navcmd),PORT_NAV);
                 _0x1D2:
00139d 940e 2a73 	CALL SUBOPT_0x8E
00139f 940e 2a73 	CALL SUBOPT_0x8E
0013a1 940e 2efe 	CALL _strlen
0013a3 93ea      	ST   -Y,R30
0013a4 e0e5      	LDI  R30,LOW(5)
0013a5 93ea      	ST   -Y,R30
0013a6 940e 0cdd 	CALL _prints
                 ;    2264 }
0013a8 c08f      	RJMP _0x48D
                 ;    2265 
                 ;    2266 
                 ;    2267 unsigned long navtime;
                 
                 	.DSEG
                 _navtime:
000793           	.BYTE 0x4
                 ;    2268 double nav_read()
                 ;    2269 {
                 
                 	.CSEG
                 _nav_read:
                 ;    2270         if(DEBUG == 1)
                 ;    2271                 return 1.0;
                 ;    2272         nav_command(NAV_READ);
0013a9 940e 2a88 	CALL SUBOPT_0x90
                 ;    2273         navtime = 0;
                 ;    2274         while(1)
                 _0x1D4:
                 ;    2275         {
                 ;    2276                 if(reading < NAV_INVALID) //make sure it is a valid reading
0013ab 91a0 0756 	LDS  R26,_reading_G9
0013ad 91b0 0757 	LDS  R27,_reading_G9+1
0013af 9180 0758 	LDS  R24,_reading_G9+2
0013b1 9190 0759 	LDS  R25,_reading_G9+3
0013b3 940e 2a96 	CALL SUBOPT_0x91
0013b5 940e 323a 	CALL __CMPF12
0013b7 f488      	BRSH _0x1D7
                 ;    2277                 {
                 ;    2278                      reading = atof(navread2);
0013b8 e6ee      	LDI  R30,LOW(_navread2_G9)
0013b9 e0f7      	LDI  R31,HIGH(_navread2_G9)
0013ba 93fa      	ST   -Y,R31
0013bb 93ea      	ST   -Y,R30
0013bc 940e 2421 	CALL _atof
0013be 940e 2a9b 	CALL SUBOPT_0x92
                 ;    2279                      return reading;
0013c0 91e0 0756 	LDS  R30,_reading_G9
0013c2 91f0 0757 	LDS  R31,_reading_G9+1
0013c4 9160 0758 	LDS  R22,_reading_G9+2
0013c6 9170 0759 	LDS  R23,_reading_G9+3
0013c8 9508      	RET
                 ;    2280                 }
                 ;    2281                 if(navtime++ > 655350)
                 _0x1D7:
0013c9 91e0 0793 	LDS  R30,_navtime
0013cb 91f0 0794 	LDS  R31,_navtime+1
0013cd 9160 0795 	LDS  R22,_navtime+2
0013cf 9170 0796 	LDS  R23,_navtime+3
0013d1 940e 280c 	CALL SUBOPT_0x3C
0013d3 93e0 0793 	STS  _navtime,R30
0013d5 93f0 0794 	STS  _navtime+1,R31
0013d7 9360 0795 	STS  _navtime+2,R22
0013d9 9370 0796 	STS  _navtime+3,R23
0013db 9731      	SBIW R30,1
0013dc 4060      	SBCI R22,0
0013dd 4070      	SBCI R23,0
0013de 3fe7
0013df efaf
0013e0 07fa
0013e1 e0a9
0013e2 076a
0013e3 e0a0
0013e4 077a      	__CPD1N 0x9FFF7
0013e5 f010      	BRLO _0x1D8
                 ;    2282                 {
                 ;    2283                      nav_command(NAV_READ);
0013e6 940e 2a88 	CALL SUBOPT_0x90
                 ;    2284                      navtime = 0;
                 ;    2285                 }
                 ;    2286                 sleepms(1);
                 _0x1D8:
0013e8 e0e1      	LDI  R30,LOW(1)
0013e9 e0f0      	LDI  R31,HIGH(1)
0013ea 940e 27c0 	CALL SUBOPT_0x32
                 ;    2287         }
0013ec cfbe      	RJMP _0x1D4
                 ;    2288         return 1.0;
                 ;    2289 }
                 ;    2290 //incoming data hander of navameter
                 ;    2291 void nav_uart_push(uchar data)
                 ;    2292 {
                 _nav_uart_push:
                 ;    2293         if(navlen >= 19)
                 ;	data -> Y+0
0013ed 91a0 0755 	LDS  R26,_navlen_G9
0013ef 31a3      	CPI  R26,LOW(0x13)
0013f0 f010      	BRLO _0x1D9
                 ;    2294         {
                 ;    2295                 RESETNAV;
0013f1 940e 2aa4 	CALL SUBOPT_0x93
                 ;    2296         }
                 ;    2297         if(((data >= '0') && (data <= '9')) ||
                 _0x1D9:
                 ;    2298                 (data == '.') ||
                 ;    2299                 (data == '-') ||
                 ;    2300                 (data == '+') ||
                 ;    2301                 (data == 'e') ||
                 ;    2302                 (data == 'E') )
0013f3 81a8      	LD   R26,Y
0013f4 33a0      	CPI  R26,LOW(0x30)
0013f5 f010      	BRLO _0x1DB
0013f6 33aa      	CPI  R26,LOW(0x3A)
0013f7 f058      	BRLO _0x1DD
                 _0x1DB:
0013f8 81a8      	LD   R26,Y
0013f9 32ae      	CPI  R26,LOW(0x2E)
0013fa f041      	BREQ _0x1DD
0013fb 32ad      	CPI  R26,LOW(0x2D)
0013fc f031      	BREQ _0x1DD
0013fd 32ab      	CPI  R26,LOW(0x2B)
0013fe f021      	BREQ _0x1DD
0013ff 36a5      	CPI  R26,LOW(0x65)
001400 f011      	BREQ _0x1DD
001401 34a5      	CPI  R26,LOW(0x45)
001402 f481      	BRNE _0x1DA
                 _0x1DD:
                 ;    2303         {
                 ;    2304                 navread[navlen++] = data;
001403 91e0 0755 	LDS  R30,_navlen_G9
001405 5fef      	SUBI R30,-LOW(1)
001406 93e0 0755 	STS  _navlen_G9,R30
001408 940e 2849 	CALL SUBOPT_0x42
00140a 5ae6      	SUBI R30,LOW(-_navread_G9)
00140b 4ff8      	SBCI R31,HIGH(-_navread_G9)
00140c 81a8      	LD   R26,Y
00140d 83a0      	STD  Z+0,R26
                 ;    2305                 reading = NAV_INVALID;
00140e 940e 2a96 	CALL SUBOPT_0x91
001410 940e 2a9b 	CALL SUBOPT_0x92
                 ;    2306                 return;
001412 c025      	RJMP _0x48D
                 ;    2307         }
                 ;    2308 
                 ;    2309         if(navlen < 4) //not enough digits
                 _0x1DA:
001413 91a0 0755 	LDS  R26,_navlen_G9
001415 30a4      	CPI  R26,LOW(0x4)
001416 f418      	BRSH _0x1DF
                 ;    2310         {
                 ;    2311                 RESETNAV;
001417 940e 2aa4 	CALL SUBOPT_0x93
                 ;    2312                 return;
001419 c01e      	RJMP _0x48D
                 ;    2313         }
                 ;    2314         navread[navlen] = '\0';
                 _0x1DF:
00141a 940e 2aa9 	CALL SUBOPT_0x94
00141c e0a0      	LDI  R26,LOW(0)
00141d 83a0      	STD  Z+0,R26
                 ;    2315         do
                 _0x1E1:
                 ;    2316         {
                 ;    2317                 navread2[navlen] = navread[navlen];
00141e 91a0 0755 	LDS  R26,_navlen_G9
001420 e0b0      	LDI  R27,0
001421 59a2      	SUBI R26,LOW(-_navread2_G9)
001422 4fb8      	SBCI R27,HIGH(-_navread2_G9)
001423 940e 2aa9 	CALL SUBOPT_0x94
001425 81e0      	LD   R30,Z
001426 93ec      	ST   X,R30
                 ;    2318         }while(navlen-- > 0);
001427 91a0 0755 	LDS  R26,_navlen_G9
001429 50a1      	SUBI R26,LOW(1)
00142a 93a0 0755 	STS  _navlen_G9,R26
00142c 5faf      	SUBI R26,-LOW(1)
00142d 30a1      	CPI  R26,LOW(0x1)
00142e f778      	BRSH _0x1E1
                 ;    2319         navlen = 0;
00142f e0e0      	LDI  R30,LOW(0)
001430 93e0 0755 	STS  _navlen_G9,R30
                 ;    2320         reading =  NAV_VALID; //valid data
001432 e0e0
001433 e0f0
001434 ef6a
001435 ec74      	__GETD1N 0xC4FA0000
001436 940e 2a9b 	CALL SUBOPT_0x92
                 ;    2321 }
                 _0x48D:
001438 9621      	ADIW R28,1
001439 9508      	RET
                 ;    2322 #include <mega64.h>
                 ;    2323 #include "lcd.h"
                 ;    2324 #include "key.h"
                 ;    2325 #include "utili.h"
                 ;    2326 #include "eeprom.h"
                 ;    2327 #include "window.h"
                 ;    2328 #include "utili.h"
                 ;    2329 #include "scanner.h"
                 ;    2330 
                 ;    2331 extern uchar nextwin;                                         //draw_label(&PRE##chvalue,SW_NORMAL);
                 ;    2332 #define REFRESH_TABLES1(PRE)	sprintf(strbuf,"%i",curr_pos);\
                 ;    2333                 		if(new_page == 1){\
                 ;    2334 		                	for(i = min_option; i <= max_option; i++){\
                 ;    2335 				                j = ((curr_pos-1)/max_option)*max_option + i;
                 ;    2336 
                 ;    2337 #define REFRESH_TABLES2(PRE)	        draw_label(&(PRE##items[i-1]),SW_NORMAL);\
                 ;    2338 				        if((curr_pos-1) % max_option == (i-1))\
                 ;    2339 					        draw_label(&(PRE##items[i-1]),SW_REVERSE);\
                 ;    2340         			        }\
                 ;    2341                                 }else{\
                 ;    2342 	                		for(i = min_option; i <= max_option; i++) {\
                 ;    2343         		        		if((last_pos-1) % max_option == (i-1)) 	draw_label(&(PRE##items[i-1]),SW_REVERSE);\
                 ;    2344 				                if((curr_pos-1) % max_option == (i-1))	draw_label(&(PRE##items[i-1]),SW_REVERSE);\
                 ;    2345 			                }\
                 ;    2346 		                }
                 ;    2347 
                 ;    2348 #define INC_TABLE	last_pos = curr_pos;	curr_pos++;\
                 ;    2349 			if(curr_pos > max_index) curr_pos = min_index;\
                 ;    2350 			if(last_pos == curr_pos)	return;\
                 ;    2351 			if(curr_pos % max_option == 1)  {new_page = 1;}else{new_page = 0;}
                 ;    2352 
                 ;    2353 #define DEC_TABLE	last_pos = curr_pos;   curr_pos--;\
                 ;    2354 			if(curr_pos < min_index) curr_pos = max_index;\
                 ;    2355 			if(last_pos == curr_pos)  return;\
                 ;    2356 			if(curr_pos % max_option == 0)  {new_page = 1;}else{new_page = 0;}
                 ;    2357 
                 ;    2358 #define KEY_TABLE	if((msg > KEY_NUM0) && (uchar)((msg-KEY_NUM0)*max_option) <= max_index)\
                 ;    2359 					{new_page = 1; curr_pos = (uchar)((msg-KEY_NUM1)*max_option)+1;}
                 ;    2360 
                 ;    2361 #define INIT_OPTIONS(PRE)	for(i = min_option;i <= max_option; i++) {\
                 ;    2362                                         draw_label(&PRE##options[i-1], SW_NORMAL);\
                 ;    2363 			        }
                 ;    2364 #define REFRESH_OPTIONS(PRE)	if(last_sel == curr_sel)\
                 ;    2365                                         return;\
                 ;    2366         			for(i = min_option;i <= max_option; i++){\
                 ;    2367 	        			if(last_sel == i)       draw_label(&PRE##options[i-1], SW_REVERSE);\
                 ;    2368         				if(curr_sel == i)	draw_label(&PRE##options[i-1], SW_REVERSE);\
                 ;    2369         			}
                 ;    2370 
                 ;    2371 #define INC_OPTION	last_sel = curr_sel;\
                 ;    2372 			curr_sel++;\
                 ;    2373 			if(curr_sel > max_option)\
                 ;    2374 				curr_sel = min_option;
                 ;    2375 
                 ;    2376 #define DEC_OPTION	last_sel = curr_sel;\
                 ;    2377 			curr_sel--;\
                 ;    2378 			if(curr_sel < min_option)\
                 ;    2379 				curr_sel = max_option;
                 ;    2380 
                 ;    2381 extern int   curr_ch;	//index of current channel in configuation   menu
                 ;    2382 extern int   curr_prb;	//index of current probe selection
                 ;    2383 extern int   curr_dispch; //start of current channel for display in main menu
                 ;    2384 
                 ;    2385 void State_Init() {
                 _State_Init:
                 ;    2386 	display_buttons(KEY_BTN1,sysdata.prbmode);
00143a e6e1      	LDI  R30,LOW(97)
00143b 93ea      	ST   -Y,R30
00143c e3ae
00143d e0b0      	__POINTW2MN _sysdata,62
00143e 940e 3064 	CALL __EEPROMRDB
001440 93ea      	ST   -Y,R30
001441 940e 12aa 	CALL _display_buttons
                 ;    2387 	display_buttons(KEY_BTN2,sysdata.kttmode);
001443 e6e2      	LDI  R30,LOW(98)
001444 93ea      	ST   -Y,R30
001445 e3af
001446 e0b0      	__POINTW2MN _sysdata,63
001447 940e 3064 	CALL __EEPROMRDB
001449 93ea      	ST   -Y,R30
00144a 940e 12aa 	CALL _display_buttons
                 ;    2388 	display_buttons(KEY_BTN3,0); //probe type
00144c e6e3      	LDI  R30,LOW(99)
00144d 940e 272c 	CALL SUBOPT_0x1F
                 ;    2389 	display_buttons(KEY_BTN4,0); //zero
00144f e6e4      	LDI  R30,LOW(100)
001450 940e 272c 	CALL SUBOPT_0x1F
                 ;    2390 }
001452 9508      	RET
                 ;    2391 char* getprbtype(uchar);
                 ;    2392 LABEL flash pgmain_chs[] = {
                 ;    2393 		{LBL_HZ6X8,3, 3,5,strbuf},
                 ;    2394 		{LBL_HZ6X8,3,16,5,strbuf},
                 ;    2395 		{LBL_HZ6X8,3,29,5,strbuf},
                 ;    2396 		{LBL_HZ6X8,3,42,5,strbuf}
                 ;    2397 	};
                 ;    2398 LABEL flash pgmain_values[] = {
                 ;    2399 		{LBL_HZ6X8,40,3,10,strbuf},
                 ;    2400 		{LBL_HZ6X8,40,16,10,strbuf},
                 ;    2401 		{LBL_HZ6X8,40,29,10,strbuf},
                 ;    2402 		{LBL_HZ6X8,40,42,10,strbuf}
                 ;    2403 	};
                 ;    2404 LABEL flash pgmain_temps[] = {
                 ;    2405 		{LBL_HZ6X8,140,3, 10,strbuf},
                 ;    2406 		{LBL_HZ6X8,140,16,10,strbuf},
                 ;    2407 		{LBL_HZ6X8,140,29,10,strbuf},
                 ;    2408 		{LBL_HZ6X8,140,42,10,strbuf}
                 ;    2409 };
                 ;    2410 /*      Main display      */
                 ;    2411 
                 ;    2412 void pgmain_handler(uchar msg) {
                 _pgmain_handler:
                 ;    2413         int max_option = 4;
                 ;    2414         uchar i,old_ch,isinit;
                 ;    2415                 uchar *cptr;
                 ;    2416 	//LABEL flash usage = {LBL_HZ6X8,210,60,5,"usage"};
                 ;    2417 
                 ;    2418 	isinit = 0;
001453 9722      	SBIW R28,2
001454 940e 3271 	CALL __SAVELOCR6
                 ;	msg -> Y+8
                 ;	max_option -> R16,R17
                 ;	i -> R19
                 ;	old_ch -> R18
                 ;	isinit -> R21
                 ;	*cptr -> Y+6
001456 e004      	LDI  R16,4
001457 e010      	LDI  R17,0
001458 e050      	LDI  R21,LOW(0)
                 ;    2419         //Menu
                 ;    2420 	if(msg == KEY_TAB) {
001459 85a8      	LDD  R26,Y+8
00145a 35a4      	CPI  R26,LOW(0x54)
00145b f441      	BRNE _0x1E3
                 ;    2421 		if(IS_THERM_MODE)
00145c 940e 27f5 	CALL SUBOPT_0x39
00145e f411      	BRNE _0x1E4
                 ;    2422 			nextwin = PG_TCONFIG;
00145f e0e4      	LDI  R30,LOW(4)
001460 c001      	RJMP _0x4A3
                 ;    2423 		else
                 _0x1E4:
                 ;    2424 			nextwin = PG_RCONFIG;
001461 e0e3      	LDI  R30,LOW(3)
                 _0x4A3:
001462 2e4e      	MOV  R4,R30
                 ;    2425 		return;
001463 c1e6      	RJMP _0x48C
                 ;    2426 	}
                 ;    2427         if(key == KEY_NUM1) //R0
                 _0x1E3:
001464 e3e1      	LDI  R30,LOW(49)
001465 15e5      	CP   R30,R5
001466 f4c1      	BRNE _0x1E6
                 ;    2428         {
                 ;    2429                 window_setup(10);
001467 e0ea      	LDI  R30,LOW(10)
001468 93e0 07c3 	STS  _max_databuf,R30
                 ;    2430                 if(IS_BORE_MODE)
00146a 940e 2794 	CALL SUBOPT_0x2F
00146c f469      	BRNE _0x1E7
                 ;    2431                 {
                 ;    2432                         sprintf(strbuf,"R0");
00146d 940e 263b 	CALL SUBOPT_0x0
00146f e7ec
001470 e0f8      	__POINTW1FN _0,184
001471 940e 278d 	CALL SUBOPT_0x2E
                 ;    2433 	        	sysdata.R0 = wnd_floatinput(sysdata.R0);
001473 940e 2776 	CALL SUBOPT_0x2A
001475 940e 2aaf 	CALL SUBOPT_0x95
001477 e0a0      	LDI  R26,LOW(_sysdata)
001478 e0b0      	LDI  R27,HIGH(_sysdata)
001479 c001      	RJMP _0x4A4
                 ;    2434 		        msg = MSG_INIT;
                 ;    2435 		}else{
                 _0x1E7:
                 ;    2436 		        return;
00147a c1cf      	RJMP _0x48C
                 ;    2437                         sprintf(strbuf,"V0");
                 ;    2438 	        	sysdata.V0 = wnd_floatinput(sysdata.V0);
                 _0x4A4:
00147b 940e 3070 	CALL __EEPROMWRD
                 ;    2439                         msg = MSG_INIT;
00147d efef      	LDI  R30,LOW(255)
00147e 87e8      	STD  Y+8,R30
                 ;    2440 		}
                 ;    2441         }
                 ;    2442         if(key == KEY_NUM2) //Rs1
                 _0x1E6:
00147f e3e2      	LDI  R30,LOW(50)
001480 15e5      	CP   R30,R5
001481 f4b9      	BRNE _0x1E9
                 ;    2443         {
                 ;    2444                 if(IS_BORE_MODE)
001482 940e 2794 	CALL SUBOPT_0x2F
001484 f4a1      	BRNE _0x1EA
                 ;    2445                 {
                 ;    2446                         window_setup(10);
001485 940e 2ab3 	CALL SUBOPT_0x96
                 ;    2447                         sprintf(strbuf,"");
001487 e9ea
001488 e0f8      	__POINTW1FN _0,214
001489 940e 278d 	CALL SUBOPT_0x2E
                 ;    2448 		        sysdata.Rs1 = wnd_floatinput(sysdata.Rs1);
00148b e0e8
00148c e0f0      	__POINTW1MN _sysdata,8
00148d 93ff      	PUSH R31
00148e 93ef      	PUSH R30
00148f 940e 276c 	CALL SUBOPT_0x28
001491 940e 2aaf 	CALL SUBOPT_0x95
001493 91af      	POP  R26
001494 91bf      	POP  R27
001495 940e 3070 	CALL __EEPROMWRD
                 ;    2449         		msg = MSG_INIT;
001497 efef      	LDI  R30,LOW(255)
001498 87e8      	STD  Y+8,R30
                 ;    2450                 }
                 ;    2451         }
                 _0x1EA:
                 ;    2452 	if(msg == KEY_UP) {
                 _0x1E9:
001499 85a8      	LDD  R26,Y+8
00149a 35a5      	CPI  R26,LOW(0x55)
00149b f461      	BRNE _0x1EB
                 ;    2453 		DEC_DISPCH;
00149c e0e1      	LDI  R30,LOW(1)
00149d e0f0      	LDI  R31,HIGH(1)
00149e 1aae
00149f 0abf      	__SUBWRR 10,11,30,31
0014a0 2c0a      	MOV  R0,R10
0014a1 280b      	OR   R0,R11
0014a2 f419      	BRNE _0x1EC
0014a3 e1e8      	LDI  R30,LOW(24)
0014a4 e0f0      	LDI  R31,HIGH(24)
0014a5 015f      	MOVW R10,R30
                 _0x1EC:
                 ;    2454 		msg = MSG_INIT;
0014a6 efef      	LDI  R30,LOW(255)
0014a7 87e8      	STD  Y+8,R30
                 ;    2455 	}
                 ;    2456 	if(msg == KEY_DN) {
                 _0x1EB:
0014a8 85a8      	LDD  R26,Y+8
0014a9 34a4      	CPI  R26,LOW(0x44)
0014aa f439      	BRNE _0x1ED
                 ;    2457 		INC_DISPCH;
0014ab 940e 2ab7 	CALL SUBOPT_0x97
0014ad f414      	BRGE _0x1EE
0014ae 940e 27d1 	CALL SUBOPT_0x35
                 _0x1EE:
                 ;    2458 		msg = MSG_INIT;
0014b0 efef      	LDI  R30,LOW(255)
0014b1 87e8      	STD  Y+8,R30
                 ;    2459 	}
                 ;    2460 
                 ;    2461 	if(msg == MSG_INIT) {
                 _0x1ED:
0014b2 85a8      	LDD  R26,Y+8
0014b3 3faf      	CPI  R26,LOW(0xFF)
0014b4 f581      	BRNE _0x1EF
                 ;    2462 	        isinit = 1;
0014b5 e051      	LDI  R21,LOW(1)
                 ;    2463 		LCD_Cls();
0014b6 940e 129e 	CALL _LCD_Cls
                 ;    2464 		old_ch = curr_dispch;
0014b8 940e 2abf 	CALL SUBOPT_0x98
                 ;    2465 
                 ;    2466 	        curr_dispch = curr_dispch - ((curr_dispch-1) % max_option);
                 ;    2467 		for(i=0;i<sizeof(pgmain_chs)/sizeof(LABEL);i++)//
                 _0x1F1:
0014ba 3034      	CPI  R19,4
0014bb f528      	BRSH _0x1F2
                 ;    2468 		{
                 ;    2469 		        if(curr_dispch == old_ch)
0014bc 2fe2      	MOV  R30,R18
0014bd 01d5      	MOVW R26,R10
0014be 940e 2aca 	CALL SUBOPT_0x99
0014c0 f479      	BRNE _0x1F3
                 ;    2470 		        {
                 ;    2471         			sprintf(strbuf,"CH%02i:",curr_dispch);
0014c1 940e 263b 	CALL SUBOPT_0x0
0014c3 940e 2ace 	CALL SUBOPT_0x9A
                 ;    2472                                 draw_label(&pgmain_chs[i],SW_NORMAL);
0014c5 940e 27ba 	CALL SUBOPT_0x31
                 ;    2473                                 draw_label(&pgmain_chs[i],SW_REVERSE);
0014c7 e0ea      	LDI  R30,LOW(10)
0014c8 9fe3      	MUL  R30,R19
0014c9 01f0      	MOVW R30,R0
0014ca 58ea      	SUBI R30,LOW(-_pgmain_chs*2)
0014cb 4ffb      	SBCI R31,HIGH(-_pgmain_chs*2)
0014cc 93fa      	ST   -Y,R31
0014cd 93ea      	ST   -Y,R30
0014ce e0e2      	LDI  R30,LOW(2)
0014cf c007      	RJMP _0x4A5
                 ;    2474         		}
                 ;    2475         		else{
                 _0x1F3:
                 ;    2476         			sprintf(strbuf,"CH%02i:",curr_dispch);
0014d0 940e 263b 	CALL SUBOPT_0x0
0014d2 940e 2ace 	CALL SUBOPT_0x9A
                 ;    2477         			draw_label(&pgmain_chs[i],SW_NORMAL);
0014d4 93fa      	ST   -Y,R31
0014d5 93ea      	ST   -Y,R30
0014d6 e0e1      	LDI  R30,LOW(1)
                 _0x4A5:
0014d7 93ea      	ST   -Y,R30
0014d8 940e 1fb3 	CALL _draw_label
                 ;    2478         		}
                 ;    2479 			INC_DISPCH;
0014da 940e 2ab7 	CALL SUBOPT_0x97
0014dc f414      	BRGE _0x1F5
0014dd 940e 27d1 	CALL SUBOPT_0x35
                 _0x1F5:
                 ;    2480 		}
0014df 5f3f      	SUBI R19,-1
0014e0 cfd9      	RJMP _0x1F1
                 _0x1F2:
                 ;    2481 		curr_dispch = old_ch;
0014e1 2ea2      	MOV  R10,R18
0014e2 24bb      	CLR  R11
                 ;    2482 		msg = MSG_REFRESH;
0014e3 efee      	LDI  R30,LOW(254)
0014e4 87e8      	STD  Y+8,R30
                 ;    2483 	}
                 ;    2484 
                 ;    2485 	if(msg == MSG_REFRESH) {
                 _0x1EF:
0014e5 85a8      	LDD  R26,Y+8
0014e6 3fae      	CPI  R26,LOW(0xFE)
0014e7 f011      	BREQ PC+3
0014e8 940c 164a 	JMP _0x1F6
                 ;    2486 		old_ch = curr_dispch;
0014ea 940e 2abf 	CALL SUBOPT_0x98
                 ;    2487 		curr_dispch = curr_dispch - ((curr_dispch-1) % max_option);
                 ;    2488 		for(i=0;i<sizeof(pgmain_chs)/sizeof(LABEL);i++)//
                 _0x1F8:
0014ec 3034      	CPI  R19,4
0014ed f010      	BRLO PC+3
0014ee 940c 1648 	JMP _0x1F9
                 ;    2489 		{
                 ;    2490 		        if(IS_THERM_MODE)
0014f0 940e 27f5 	CALL SUBOPT_0x39
0014f2 f011      	BREQ PC+3
0014f3 940c 1595 	JMP _0x1FA
                 ;    2491 		        {
                 ;    2492 			        cptr = getprbtype(tprbdata.type[sysdata.tid[curr_dispch-1]]);
0014f5 940e 27fb 	CALL SUBOPT_0x3A
0014f7 e2a0
0014f8 e0b2      	__POINTW2MN _tprbdata,480
0014f9 940e 2ae1 	CALL SUBOPT_0x9B
                 ;    2493         			if((sysdata.tid[curr_dispch - 1] == INVALID_PROBE) ||\
                 ;    2494 	        			(cptr[0] == 'P')){
0014fb 940e 27fb 	CALL SUBOPT_0x3A
0014fd 3fef      	CPI  R30,LOW(0xFF)
0014fe f029      	BREQ _0x1FC
0014ff 81ae      	LDD  R26,Y+6
001500 81bf      	LDD  R27,Y+6+1
001501 91ac      	LD   R26,X
001502 35a0      	CPI  R26,LOW(0x50)
001503 f4e1      	BRNE _0x1FB
                 _0x1FC:
                 ;    2495                				sprintf(strbuf," -------  ");
001504 940e 263b 	CALL SUBOPT_0x0
001506 940e 2aec 	CALL SUBOPT_0x9C
                 ;    2496                                         if((curr_dispch-1 == ch_to_search) || (isinit == 1))
001508 940e 2aef 	CALL SUBOPT_0x9D
00150a f011      	BREQ _0x1FF
00150b 3051      	CPI  R21,1
00150c f441      	BRNE _0x1FE
                 _0x1FF:
                 ;    2497                                         {
                 ;    2498                         			draw_label(&pgmain_values[i],SW_NORMAL);
00150d 940e 2af4 	CALL SUBOPT_0x9E
00150f 940e 27ba 	CALL SUBOPT_0x31
                 ;    2499 		                		draw_label(&pgmain_temps[i],SW_NORMAL);
001511 940e 2afa 	CALL SUBOPT_0x9F
001513 e0e1      	LDI  R30,LOW(1)
001514 c007      	RJMP _0x4A6
                 ;    2500 		                        }else{
                 _0x1FE:
                 ;    2501                         			draw_label(&pgmain_values[i],SW_NORMAL|SW_OVERLAP);
001515 940e 2af4 	CALL SUBOPT_0x9E
001517 940e 2b02 	CALL SUBOPT_0xA0
                 ;    2502 		                		draw_label(&pgmain_temps[i],SW_NORMAL|SW_OVERLAP);
001519 940e 2afa 	CALL SUBOPT_0x9F
00151b e0e5      	LDI  R30,LOW(5)
                 _0x4A6:
00151c 93ea      	ST   -Y,R30
00151d 940e 1fb3 	CALL _draw_label
                 ;    2503 		                        }
                 ;    2504 			        }else{
00151f c074      	RJMP _0x202
                 _0x1FB:
                 ;    2505 					sprintf(strbuf,"%8f",rundata.reading[curr_dispch - 1]);
001520 940e 263b 	CALL SUBOPT_0x0
001522 940e 2b08 	CALL SUBOPT_0xA1
001524 940e 2b13 	CALL SUBOPT_0xA2
                 ;    2506 					if(curr_dispch-1 == ch_to_search)
001526 940e 2aef 	CALL SUBOPT_0x9D
001528 f429      	BRNE _0x203
                 ;    2507         					sprintf(strbuf+8,"*mV");
001529 940e 2b18 	CALL SUBOPT_0xA3
00152b ece2
00152c e0f8      	__POINTW1FN _0,254
00152d c004      	RJMP _0x4A7
                 ;    2508                                         else
                 _0x203:
                 ;    2509                                                 sprintf(strbuf+8," mV");
00152e 940e 2b18 	CALL SUBOPT_0xA3
001530 ece6
001531 e0f8      	__POINTW1FN _0,258
                 _0x4A7:
001532 93fa      	ST   -Y,R31
001533 93ea      	ST   -Y,R30
001534 940e 2b1d 	CALL SUBOPT_0xA4
                 ;    2510                                         if((curr_dispch-1 == ch_to_search) || (isinit == 1))
001536 940e 2aef 	CALL SUBOPT_0x9D
001538 f011      	BREQ _0x206
001539 3051      	CPI  R21,1
00153a f511      	BRNE _0x205
                 _0x206:
                 ;    2511                                         {
                 ;    2512         					draw_label(&pgmain_values[i],SW_NORMAL);
00153b 940e 2af4 	CALL SUBOPT_0x9E
00153d 940e 27ba 	CALL SUBOPT_0x31
                 ;    2513         					if(rundata.temperature[curr_dispch - 1] < -9000)
00153f 940e 2b22 	CALL SUBOPT_0xA5
001541 940e 26dd 	CALL SUBOPT_0x15
001543 940e 2b29 	CALL SUBOPT_0xA6
001545 f438      	BRSH _0x208
                 ;    2514         					        sprintf(strbuf," OVER    ");
001546 940e 263b 	CALL SUBOPT_0x0
001548 ecea
001549 e0f8      	__POINTW1FN _0,262
00154a 940e 278d 	CALL SUBOPT_0x2E
                 ;    2515         					else
00154c c008      	RJMP _0x209
                 _0x208:
                 ;    2516                 				        sprintf(strbuf," %8f",rundata.temperature[curr_dispch - 1]);
00154d 940e 263b 	CALL SUBOPT_0x0
00154f 940e 2b32 	CALL SUBOPT_0xA7
001551 940e 26c6 	CALL SUBOPT_0x11
001553 940e 2b13 	CALL SUBOPT_0xA2
                 ;    2517 
                 ;    2518                 				sprintf(strbuf+8," ! %c",cptr[0]);
                 _0x209:
001555 940e 2b18 	CALL SUBOPT_0xA3
001557 940e 2b37 	CALL SUBOPT_0xA8
                 ;    2519                 			        draw_label(&pgmain_temps[i],SW_NORMAL);
001559 940e 2afa 	CALL SUBOPT_0x9F
00155b e0e1      	LDI  R30,LOW(1)
00155c c021      	RJMP _0x4A8
                 ;    2520                                         }else{
                 _0x205:
                 ;    2521                                                 draw_label(&pgmain_values[i],SW_NORMAL|SW_OVERLAP);
00155d 940e 2af4 	CALL SUBOPT_0x9E
00155f 940e 2b02 	CALL SUBOPT_0xA0
                 ;    2522                 				if(rundata.temperature[curr_dispch - 1] < -9000)
001561 940e 2b22 	CALL SUBOPT_0xA5
001563 940e 26dd 	CALL SUBOPT_0x15
001565 940e 2b29 	CALL SUBOPT_0xA6
001567 f438      	BRSH _0x20B
                 ;    2523                 				{
                 ;    2524                 				        sprintf(strbuf," OVER    ");
001568 940e 263b 	CALL SUBOPT_0x0
00156a ecea
00156b e0f8      	__POINTW1FN _0,262
00156c 940e 278d 	CALL SUBOPT_0x2E
                 ;    2525                 				}else{
00156e c008      	RJMP _0x20C
                 _0x20B:
                 ;    2526                 				        sprintf(strbuf," %8f",rundata.temperature[curr_dispch - 1]);
00156f 940e 263b 	CALL SUBOPT_0x0
001571 940e 2b32 	CALL SUBOPT_0xA7
001573 940e 26c6 	CALL SUBOPT_0x11
001575 940e 2b13 	CALL SUBOPT_0xA2
                 ;    2527                 				}
                 _0x20C:
                 ;    2528         				        sprintf(strbuf+8," ! %c",cptr[0]);
001577 940e 2b18 	CALL SUBOPT_0xA3
001579 940e 2b37 	CALL SUBOPT_0xA8
                 ;    2529 	        			        draw_label(&pgmain_temps[i],SW_NORMAL|SW_OVERLAP);
00157b 940e 2afa 	CALL SUBOPT_0x9F
00157d e0e5      	LDI  R30,LOW(5)
                 _0x4A8:
00157e 93ea      	ST   -Y,R30
00157f 940e 1fb3 	CALL _draw_label
                 ;    2530                                         }
                 ;    2531 				        if(pgmain_temps[i].type == LBL_HZ6X8)
001581 940e 2b44 	CALL SUBOPT_0xA9
001583 f439      	BRNE _0x20D
                 ;    2532         				        LCD_Rectange(221,pgmain_temps[i].y-2,221 + 12, pgmain_temps[i].y -2 +10);
001584 940e 2b4d 	CALL SUBOPT_0xAA
001586 940e 2b56 	CALL SUBOPT_0xAB
001588 9732      	SBIW R30,2
001589 963a      	ADIW R30,10
00158a c006      	RJMP _0x4A9
                 ;    2533         				else                                     //Hz12
                 _0x20D:
                 ;    2534                 				LCD_Rectange(221,pgmain_temps[i].y-2,221 + 12,pgmain_temps[i].y -2 + 16);
00158b 940e 2b4d 	CALL SUBOPT_0xAA
00158d 940e 2b56 	CALL SUBOPT_0xAB
00158f 9732      	SBIW R30,2
001590 9670      	ADIW R30,16
                 _0x4A9:
001591 93ea      	ST   -Y,R30
001592 940e 12c0 	CALL _LCD_Rectange
                 ;    2535 	                        }
                 _0x202:
                 ;    2536 			}else{
001594 c0ac      	RJMP _0x20F
                 _0x1FA:
                 ;    2537        			        cptr = getprbtype(rprbdata.type[sysdata.rid[curr_dispch-1]]);
001595 940e 2b61 	CALL SUBOPT_0xAC
001597 e1a8
001598 e0b4      	__POINTW2MN _rprbdata,480
001599 940e 2ae1 	CALL SUBOPT_0x9B
                 ;    2538         			if((sysdata.rid[curr_dispch - 1] == INVALID_PROBE) ||\
                 ;    2539         				(rundata.temperature[curr_dispch - 1] < -9000) ||\
                 ;    2540 	        			(cptr[0] != 'P'))
00159b 940e 2b61 	CALL SUBOPT_0xAC
00159d 3fef      	CPI  R30,LOW(0xFF)
00159e f061      	BREQ _0x211
00159f 940e 2b22 	CALL SUBOPT_0xA5
0015a1 940e 26dd 	CALL SUBOPT_0x15
0015a3 940e 2b29 	CALL SUBOPT_0xA6
0015a5 f028      	BRLO _0x211
0015a6 81ae      	LDD  R26,Y+6
0015a7 81bf      	LDD  R27,Y+6+1
0015a8 91ac      	LD   R26,X
0015a9 35a0      	CPI  R26,LOW(0x50)
0015aa f1f1      	BREQ _0x210
                 _0x211:
                 ;    2541 	        		{
                 ;    2542 	        		        if(sysdata.rid[curr_dispch - 1] == INVALID_PROBE)
0015ab 940e 2b61 	CALL SUBOPT_0xAC
0015ad 3fef      	CPI  R30,LOW(0xFF)
0015ae f431      	BRNE _0x213
                 ;    2543                 				sprintf(strbuf," ------- ohm");
0015af 940e 263b 	CALL SUBOPT_0x0
0015b1 edef
0015b2 e0f8      	__POINTW1FN _0,283
0015b3 940e 278d 	CALL SUBOPT_0x2E
                 ;    2544                 			if(rundata.temperature[curr_dispch - 1] < -9000)
                 _0x213:
0015b5 940e 2b22 	CALL SUBOPT_0xA5
0015b7 940e 26dd 	CALL SUBOPT_0x15
0015b9 940e 2b29 	CALL SUBOPT_0xA6
0015bb f428      	BRSH _0x214
                 ;    2545                         			sprintf(strbuf," NO READ    ");
0015bc 940e 263b 	CALL SUBOPT_0x0
0015be eeec
0015bf e0f8      	__POINTW1FN _0,296
0015c0 c004      	RJMP _0x4AA
                 ;    2546                                         else
                 _0x214:
                 ;    2547                                         	sprintf(strbuf," -------    ");
0015c1 940e 263b 	CALL SUBOPT_0x0
0015c3 efe9
0015c4 e0f8      	__POINTW1FN _0,309
                 _0x4AA:
0015c5 93fa      	ST   -Y,R31
0015c6 93ea      	ST   -Y,R30
0015c7 940e 2b1d 	CALL SUBOPT_0xA4
                 ;    2548                                         if((curr_dispch-1 == ch_to_search) || (isinit == 1))
0015c9 940e 2aef 	CALL SUBOPT_0x9D
0015cb f011      	BREQ _0x217
0015cc 3051      	CPI  R21,1
0015cd f461      	BRNE _0x216
                 _0x217:
                 ;    2549                                         {
                 ;    2550         	        			draw_label(&pgmain_values[i],SW_NORMAL);
0015ce 940e 2af4 	CALL SUBOPT_0x9E
0015d0 940e 27ba 	CALL SUBOPT_0x31
                 ;    2551                 				sprintf(strbuf," -------  ");
0015d2 940e 263b 	CALL SUBOPT_0x0
0015d4 940e 2aec 	CALL SUBOPT_0x9C
                 ;    2552 		                		draw_label(&pgmain_temps[i],SW_NORMAL);
0015d6 940e 2afa 	CALL SUBOPT_0x9F
0015d8 e0e1      	LDI  R30,LOW(1)
0015d9 c00b      	RJMP _0x4AB
                 ;    2553 		                	}else{
                 _0x216:
                 ;    2554         	        			draw_label(&pgmain_values[i],SW_NORMAL|SW_OVERLAP);
0015da 940e 2af4 	CALL SUBOPT_0x9E
0015dc 940e 2b02 	CALL SUBOPT_0xA0
                 ;    2555                 				sprintf(strbuf," -------  ");
0015de 940e 263b 	CALL SUBOPT_0x0
0015e0 940e 2aec 	CALL SUBOPT_0x9C
                 ;    2556 		                		draw_label(&pgmain_temps[i],SW_NORMAL|SW_OVERLAP);
0015e2 940e 2afa 	CALL SUBOPT_0x9F
0015e4 e0e5      	LDI  R30,LOW(5)
                 _0x4AB:
0015e5 93ea      	ST   -Y,R30
0015e6 940e 1fb3 	CALL _draw_label
                 ;    2557 		                	}
                 ;    2558 			        }else{
0015e8 c058      	RJMP _0x21A
                 _0x210:
                 ;    2559 					sprintf(strbuf,"%8f",rundata.reading[curr_dispch - 1]);
0015e9 940e 263b 	CALL SUBOPT_0x0
0015eb 940e 2b08 	CALL SUBOPT_0xA1
0015ed 940e 2b13 	CALL SUBOPT_0xA2
                 ;    2560 					if(curr_dispch-1 == ch_to_search)
0015ef 940e 2aef 	CALL SUBOPT_0x9D
0015f1 f429      	BRNE _0x21B
                 ;    2561         					sprintf(strbuf+8,"*ohm");
0015f2 940e 2b18 	CALL SUBOPT_0xA3
0015f4 e0e6
0015f5 e0f9      	__POINTW1FN _0,322
0015f6 c004      	RJMP _0x4AC
                 ;    2562                                         else
                 _0x21B:
                 ;    2563         					sprintf(strbuf+8," ohm");
0015f7 940e 2b18 	CALL SUBOPT_0xA3
0015f9 eee7
0015fa e0f8      	__POINTW1FN _0,291
                 _0x4AC:
0015fb 93fa      	ST   -Y,R31
0015fc 93ea      	ST   -Y,R30
0015fd 940e 2b1d 	CALL SUBOPT_0xA4
                 ;    2564                                         if((curr_dispch-1 == ch_to_search) || (isinit == 1))
0015ff 940e 2aef 	CALL SUBOPT_0x9D
001601 f011      	BREQ _0x21E
001602 3051      	CPI  R21,1
001603 f4a1      	BRNE _0x21D
                 _0x21E:
                 ;    2565                                         {
                 ;    2566 	        			        draw_label(&pgmain_values[i],SW_NORMAL);
001604 940e 2af4 	CALL SUBOPT_0x9E
001606 940e 27ba 	CALL SUBOPT_0x31
                 ;    2567         		        		sprintf(strbuf," %8f",rundata.temperature[curr_dispch - 1]);
001608 940e 263b 	CALL SUBOPT_0x0
00160a 940e 2b32 	CALL SUBOPT_0xA7
00160c 940e 26c6 	CALL SUBOPT_0x11
00160e 940e 2b13 	CALL SUBOPT_0xA2
                 ;    2568 	        		        	sprintf(strbuf+8," ! %c",cptr[0]);
001610 940e 2b18 	CALL SUBOPT_0xA3
001612 940e 2b37 	CALL SUBOPT_0xA8
                 ;    2569 		        		        draw_label(&pgmain_temps[i],SW_NORMAL);
001614 940e 2afa 	CALL SUBOPT_0x9F
001616 e0e1      	LDI  R30,LOW(1)
001617 c013      	RJMP _0x4AD
                 ;    2570 		        		 }else{
                 _0x21D:
                 ;    2571 	        			        draw_label(&pgmain_values[i],SW_NORMAL|SW_OVERLAP);
001618 940e 2af4 	CALL SUBOPT_0x9E
00161a 940e 2b02 	CALL SUBOPT_0xA0
                 ;    2572         		        		sprintf(strbuf," %8f",rundata.temperature[curr_dispch - 1]);
00161c 940e 263b 	CALL SUBOPT_0x0
00161e 940e 2b32 	CALL SUBOPT_0xA7
001620 940e 26c6 	CALL SUBOPT_0x11
001622 940e 2b13 	CALL SUBOPT_0xA2
                 ;    2573 	        		        	sprintf(strbuf+8," ! %c",cptr[0]);
001624 940e 2b18 	CALL SUBOPT_0xA3
001626 940e 2b37 	CALL SUBOPT_0xA8
                 ;    2574 		        		        draw_label(&pgmain_temps[i],SW_NORMAL|SW_OVERLAP);
001628 940e 2afa 	CALL SUBOPT_0x9F
00162a e0e5      	LDI  R30,LOW(5)
                 _0x4AD:
00162b 93ea      	ST   -Y,R30
00162c 940e 1fb3 	CALL _draw_label
                 ;    2575 		        		 }
                 ;    2576 				        if(pgmain_temps[i].type == LBL_HZ6X8)
00162e 940e 2b44 	CALL SUBOPT_0xA9
001630 f439      	BRNE _0x221
                 ;    2577         				        LCD_Rectange(221,pgmain_temps[i].y-2,221+12,pgmain_temps[i].y -2 +10);
001631 940e 2b4d 	CALL SUBOPT_0xAA
001633 940e 2b56 	CALL SUBOPT_0xAB
001635 9732      	SBIW R30,2
001636 963a      	ADIW R30,10
001637 c006      	RJMP _0x4AE
                 ;    2578         				else                                     //Hz12
                 _0x221:
                 ;    2579                 				LCD_Rectange(221,pgmain_temps[i].y-2,221+12,pgmain_temps[i].y -2 + 16);
001638 940e 2b4d 	CALL SUBOPT_0xAA
00163a 940e 2b56 	CALL SUBOPT_0xAB
00163c 9732      	SBIW R30,2
00163d 9670      	ADIW R30,16
                 _0x4AE:
00163e 93ea      	ST   -Y,R30
00163f 940e 12c0 	CALL _LCD_Rectange
                 ;    2580         			}
                 _0x21A:
                 ;    2581 	                }
                 _0x20F:
                 ;    2582 			INC_DISPCH;
001641 940e 2ab7 	CALL SUBOPT_0x97
001643 f414      	BRGE _0x223
001644 940e 27d1 	CALL SUBOPT_0x35
                 _0x223:
                 ;    2583 		}
001646 5f3f      	SUBI R19,-1
001647 cea4      	RJMP _0x1F8
                 _0x1F9:
                 ;    2584 		curr_dispch = old_ch;
001648 2ea2      	MOV  R10,R18
001649 24bb      	CLR  R11
                 ;    2585 	}
                 ;    2586 }
                 _0x1F6:
                 _0x48C:
00164a 940e 3278 	CALL __LOADLOCR6
00164c 9629      	ADIW R28,9
00164d 9508      	RET
                 ;    2587 
                 ;    2588 //main configuration window of R
                 ;    2589 LABEL flash pgr_banner = {LBL_HZ16,3,3,7,""};
                 ;    2590 LABEL flash pgr_calibrate = {LBL_HZ16,30,30,8,"..."};
                 ;    2591 LABEL flash pgr_klbl = {LBL_HZ6X8, 88,28, 3,strbuf}; //ktime label
                 ;    2592 LABEL flash pgr_options[] = {
                 ;    2593 	{LBL_HZ16, 10,23,6,"1."},
                 ;    2594 	{LBL_HZ16,130,23,7,"2."},
                 ;    2595 	{LBL_HZ16, 10,45,8,"3."},
                 ;    2596 	{LBL_HZ16,130,45,7,"4."}
                 ;    2597 };
                 ;    2598 
                 ;    2599 //LABEL flash usage = {LBL_HZ6X8,100,55,5,"usage"};
                 ;    2600 #define SLEEPKTIME      cnt = sysdata.ktime * ONESEC; while(cnt > 0) cnt--;
                 ;    2601 void pgcalibrate()
                 ;    2602 {
                 _pgcalibrate:
                 ;    2603         double oldvalue = 0;
                 ;    2604         uint cnt;
                 ;    2605         window_setup(10);
00164e 9724      	SBIW R28,4
00164f e084      	LDI  R24,4
001650 e0a0      	LDI  R26,LOW(0)
001651 e0b0      	LDI  R27,HIGH(0)
001652 e3e4      	LDI  R30,LOW(_0x22A*2)
001653 e0f5      	LDI  R31,HIGH(_0x22A*2)
001654 940e 327f 	CALL __INITLOCB
001656 931a      	ST   -Y,R17
001657 930a      	ST   -Y,R16
                 ;	oldvalue -> Y+2
                 ;	cnt -> R16,R17
001658 940e 2ab3 	CALL SUBOPT_0x96
                 ;    2606 	sprintf(strbuf,"(CH1)");
00165a e6e0
00165b e0f9      	__POINTW1FN _0,412
00165c 940e 278d 	CALL SUBOPT_0x2E
                 ;    2607 	oldvalue = wnd_floatinput(oldvalue);
00165e 940e 291b 	CALL SUBOPT_0x5D
001660 940e 1ea1 	CALL _wnd_floatinput
001662 940e 2b6a 	CALL SUBOPT_0xAD
                 ;    2608 	if(oldvalue == 0)
001664 940e 325a 	CALL __CPD10
001666 f409      	BRNE _0x22B
                 ;    2609                 return;
001667 c03c      	RJMP _0x48B
                 ;    2610         wnd_msgbox(&pgr_calibrate);
                 _0x22B:
001668 efe8      	LDI  R30,LOW(_pgr_calibrate*2)
001669 e0f4      	LDI  R31,HIGH(_pgr_calibrate*2)
00166a 940e 27c4 	CALL SUBOPT_0x33
                 ;    2611         sysdata.Rs1 = (oldvalue + sysdata.R0)*sysdata.Rs1/(rundata.reading[curr_dispch-1]+sysdata.R0);
00166c e0e8
00166d e0f0      	__POINTW1MN _sysdata,8
00166e 93ff      	PUSH R31
00166f 93ef      	PUSH R30
001670 940e 2776 	CALL SUBOPT_0x2A
001672 940e 28b2 	CALL SUBOPT_0x4F
001674 940e 3159 	CALL __ADDF12
001676 937f      	PUSH R23
001677 936f      	PUSH R22
001678 93ff      	PUSH R31
001679 93ef      	PUSH R30
00167a 940e 276c 	CALL SUBOPT_0x28
00167c 91af      	POP  R26
00167d 91bf      	POP  R27
00167e 918f      	POP  R24
00167f 919f      	POP  R25
001680 940e 31a7 	CALL __MULF12
001682 937f      	PUSH R23
001683 936f      	PUSH R22
001684 93ff      	PUSH R31
001685 93ef      	PUSH R30
001686 01f5      	MOVW R30,R10
001687 9731      	SBIW R30,1
001688 e0a0      	LDI  R26,LOW(_rundata)
001689 e0b5      	LDI  R27,HIGH(_rundata)
00168a 940e 2f60 	CALL __LSLW2
00168c 940e 26dd 	CALL SUBOPT_0x15
00168e 937f      	PUSH R23
00168f 936f      	PUSH R22
001690 93ff      	PUSH R31
001691 93ef      	PUSH R30
001692 940e 2776 	CALL SUBOPT_0x2A
001694 91af      	POP  R26
001695 91bf      	POP  R27
001696 918f      	POP  R24
001697 919f      	POP  R25
001698 940e 3159 	CALL __ADDF12
00169a 91af      	POP  R26
00169b 91bf      	POP  R27
00169c 918f      	POP  R24
00169d 919f      	POP  R25
00169e 940e 31f5 	CALL __DIVF21
0016a0 91af      	POP  R26
0016a1 91bf      	POP  R27
0016a2 940e 3070 	CALL __EEPROMWRD
                 ;    2612 }
                 _0x48B:
0016a4 8119      	LDD  R17,Y+1
0016a5 8108      	LDD  R16,Y+0
0016a6 9626      	ADIW R28,6
0016a7 9508      	RET
                 ;    2613 //main menu of bore config
                 ;    2614 void pgrconfig_handler(uchar msg) {
                 _pgrconfig_handler:
                 ;    2615 	uchar i;
                 ;    2616 
                 ;    2617 	static uchar curr_sel = 1;
                 
                 	.DSEG
                 _curr_sel_S4B:
000797           	.BYTE 0x1
                 
                 	.CSEG
                 ;    2618 	static uchar last_sel = 1;
                 
                 	.DSEG
                 _last_sel_S4B:
000798           	.BYTE 0x1
                 
                 	.CSEG
                 ;    2619 	uchar min_option = 1;
                 ;    2620 	uchar max_option = sizeof(pgr_options)/sizeof(LABEL);
                 ;    2621 
                 ;    2622 	if(msg == KEY_TAB || msg == KEY_CE || msg == KEY_OK) {
0016a8 940e 3273 	CALL __SAVELOCR4
                 ;	msg -> Y+4
                 ;	i -> R17
                 ;	min_option -> R16
                 ;	max_option -> R19
0016aa e001      	LDI  R16,1
0016ab e034      	LDI  R19,4
0016ac 81ac      	LDD  R26,Y+4
0016ad 35a4      	CPI  R26,LOW(0x54)
0016ae f021      	BREQ _0x22F
0016af 34a3      	CPI  R26,LOW(0x43)
0016b0 f011      	BREQ _0x22F
0016b1 34af      	CPI  R26,LOW(0x4F)
0016b2 f429      	BRNE _0x22E
                 _0x22F:
                 ;    2623 	        SET_BORE_MODE;
0016b3 940e 27c8 	CALL SUBOPT_0x34
                 ;    2624 		nextwin = PG_MAIN;
0016b5 e0e2      	LDI  R30,LOW(2)
0016b6 2e4e      	MOV  R4,R30
                 ;    2625 		return;
0016b7 c0c1      	RJMP _0x48A
                 ;    2626 	}
                 ;    2627 	if(msg == MSG_INIT) {
                 _0x22E:
0016b8 81ac      	LDD  R26,Y+4
0016b9 3faf      	CPI  R26,LOW(0xFF)
0016ba f509      	BRNE _0x231
                 ;    2628 		LCD_Cls();
0016bb 940e 129e 	CALL _LCD_Cls
                 ;    2629 		draw_label(&pgr_banner, SW_NORMAL);
0016bd eeee      	LDI  R30,LOW(_pgr_banner*2)
0016be e0f4      	LDI  R31,HIGH(_pgr_banner*2)
0016bf 940e 27ba 	CALL SUBOPT_0x31
                 ;    2630 		INIT_OPTIONS(pgr_);
0016c1 2f10      	MOV  R17,R16
                 _0x233:
0016c2 1731      	CP   R19,R17
0016c3 f030      	BRLO _0x234
0016c4 940e 2b6c 	CALL SUBOPT_0xAE
0016c6 940e 27ba 	CALL SUBOPT_0x31
0016c8 5f1f      	SUBI R17,-1
0016c9 cff8      	RJMP _0x233
                 _0x234:
                 ;    2631 		sprintf(strbuf,"(%i)",sysdata.ktime);
0016ca 940e 263b 	CALL SUBOPT_0x0
0016cc e7e6
0016cd e0f9      	__POINTW1FN _0,434
0016ce 93fa      	ST   -Y,R31
0016cf 93ea      	ST   -Y,R30
0016d0 e0ac
0016d1 e0b0      	__POINTW2MN _sysdata,12
0016d2 940e 3060 	CALL __EEPROMRDW
0016d4 940e 2b74 	CALL SUBOPT_0xAF
                 ;    2632 		draw_label(&pgr_klbl, SW_NORMAL);
0016d6 e0e2      	LDI  R30,LOW(_pgr_klbl*2)
0016d7 e0f5      	LDI  R31,HIGH(_pgr_klbl*2)
0016d8 940e 27ba 	CALL SUBOPT_0x31
                 ;    2633 		msg = MSG_REFRESH;
0016da efee      	LDI  R30,LOW(254)
0016db 83ec      	STD  Y+4,R30
                 ;    2634 	}
                 ;    2635 	if(msg == KEY_NUM1) {
                 _0x231:
0016dc 81ac      	LDD  R26,Y+4
0016dd 33a1      	CPI  R26,LOW(0x31)
0016de f4b9      	BRNE _0x235
                 ;    2636 		window_setup(4); //4 char at max
0016df e0e4      	LDI  R30,LOW(4)
0016e0 93e0 07c3 	STS  _max_databuf,R30
                 ;    2637 		sprintf(strbuf,"");
0016e2 940e 263b 	CALL SUBOPT_0x0
0016e4 e7eb
0016e5 e0f9      	__POINTW1FN _0,439
0016e6 940e 278d 	CALL SUBOPT_0x2E
                 ;    2638 		sysdata.ktime = wnd_intinput(sysdata.ktime);
0016e8 e0ac
0016e9 e0b0      	__POINTW2MN _sysdata,12
0016ea 940e 3064 	CALL __EEPROMRDB
0016ec 93ea      	ST   -Y,R30
0016ed d776      	RCALL _wnd_intinput
0016ee e0ac
0016ef e0b0      	__POINTW2MN _sysdata,12
0016f0 e0f0      	LDI  R31,0
0016f1 940e 307b 	CALL __EEPROMWRW
                 ;    2639 		nextwin = PG_RCONFIG;
0016f3 e0e3      	LDI  R30,LOW(3)
0016f4 2e4e      	MOV  R4,R30
                 ;    2640 		return;
0016f5 c083      	RJMP _0x48A
                 ;    2641 	}
                 ;    2642 	if(msg == KEY_NUM2)
                 _0x235:
0016f6 81ac      	LDD  R26,Y+4
0016f7 33a2      	CPI  R26,LOW(0x32)
0016f8 f429      	BRNE _0x236
                 ;    2643 	{
                 ;    2644                 pgcalibrate();
0016f9 940e 164e 	CALL _pgcalibrate
                 ;    2645 		nextwin = PG_RCONFIG;
0016fb e0e3      	LDI  R30,LOW(3)
0016fc 2e4e      	MOV  R4,R30
                 ;    2646 		return;
0016fd c07b      	RJMP _0x48A
                 ;    2647 	}
                 ;    2648 	if(msg == KEY_NUM3) {
                 _0x236:
0016fe 81ac      	LDD  R26,Y+4
0016ff 33a3      	CPI  R26,LOW(0x33)
001700 f419      	BRNE _0x237
                 ;    2649 		nextwin = PG_CHSET;
001701 e0e7      	LDI  R30,LOW(7)
001702 2e4e      	MOV  R4,R30
                 ;    2650 		return;
001703 c075      	RJMP _0x48A
                 ;    2651 	}
                 ;    2652 	if(msg == KEY_NUM4) {
                 _0x237:
001704 81ac      	LDD  R26,Y+4
001705 33a4      	CPI  R26,LOW(0x34)
001706 f419      	BRNE _0x238
                 ;    2653 		nextwin = PG_PRBSET;
001707 e0ea      	LDI  R30,LOW(10)
001708 2e4e      	MOV  R4,R30
                 ;    2654 		return;
001709 c06f      	RJMP _0x48A
                 ;    2655 	}
                 ;    2656 	if(msg == MSG_REFRESH) {
                 _0x238:
00170a 81ac      	LDD  R26,Y+4
00170b 3fae      	CPI  R26,LOW(0xFE)
00170c f4e1      	BRNE _0x239
                 ;    2657 		REFRESH_OPTIONS(pgr_);
00170d 91e0 0797 	LDS  R30,_curr_sel_S4B
00170f 91a0 0798 	LDS  R26,_last_sel_S4B
001711 17ea      	CP   R30,R26
001712 f409      	BRNE _0x23A
001713 c065      	RJMP _0x48A
                 _0x23A:
001714 2f10      	MOV  R17,R16
                 _0x23C:
001715 1731      	CP   R19,R17
001716 f090      	BRLO _0x23D
001717 91a0 0798 	LDS  R26,_last_sel_S4B
001719 171a      	CP   R17,R26
00171a f421      	BRNE _0x23E
00171b 940e 2b6c 	CALL SUBOPT_0xAE
00171d 940e 2b79 	CALL SUBOPT_0xB0
                 _0x23E:
00171f 91a0 0797 	LDS  R26,_curr_sel_S4B
001721 171a      	CP   R17,R26
001722 f421      	BRNE _0x23F
001723 940e 2b6c 	CALL SUBOPT_0xAE
001725 940e 2b79 	CALL SUBOPT_0xB0
                 _0x23F:
001727 5f1f      	SUBI R17,-1
001728 cfec      	RJMP _0x23C
                 _0x23D:
                 ;    2658 	}
                 ;    2659 }
                 _0x239:
001729 c04f      	RJMP _0x48A
                 ;    2660 //main configuration window of T
                 ;    2661 LABEL flash pgt_banner = {LBL_HZ16,3,3,7,""};
                 ;    2662 LABEL flash pgt_options[] = {
                 ;    2663 	{LBL_HZ16,40,25,8,"1."},
                 ;    2664 	{LBL_HZ16,40,45,8,"2."}
                 ;    2665 };
                 ;    2666 
                 ;    2667 //main menu of thermo config
                 ;    2668 void pgtconfig_handler(uchar msg) {
                 _pgtconfig_handler:
                 ;    2669 	uchar i;
                 ;    2670 	static uchar curr_sel = 1;
                 
                 	.DSEG
                 _curr_sel_S4C:
000799           	.BYTE 0x1
                 
                 	.CSEG
                 ;    2671 	static uchar last_sel = 1;
                 
                 	.DSEG
                 _last_sel_S4C:
00079a           	.BYTE 0x1
                 
                 	.CSEG
                 ;    2672 	uchar min_option = 1;
                 ;    2673 	uchar max_option = sizeof(pgt_options)/sizeof(LABEL);
                 ;    2674 	if(msg == KEY_TAB || msg == KEY_CE || msg == KEY_OK) {
00172a 940e 3273 	CALL __SAVELOCR4
                 ;	msg -> Y+4
                 ;	i -> R17
                 ;	min_option -> R16
                 ;	max_option -> R19
00172c e001      	LDI  R16,1
00172d e032      	LDI  R19,2
00172e 81ac      	LDD  R26,Y+4
00172f 35a4      	CPI  R26,LOW(0x54)
001730 f021      	BREQ _0x246
001731 34a3      	CPI  R26,LOW(0x43)
001732 f011      	BREQ _0x246
001733 34af      	CPI  R26,LOW(0x4F)
001734 f429      	BRNE _0x245
                 _0x246:
                 ;    2675 	        SET_THERM_MODE;
001735 940e 27de 	CALL SUBOPT_0x37
                 ;    2676 		nextwin = PG_MAIN;
001737 e0e2      	LDI  R30,LOW(2)
001738 2e4e      	MOV  R4,R30
                 ;    2677 		return;
001739 c03f      	RJMP _0x48A
                 ;    2678 	}
                 ;    2679 	if(msg == MSG_INIT) {
                 _0x245:
00173a 81ac      	LDD  R26,Y+4
00173b 3faf      	CPI  R26,LOW(0xFF)
00173c f489      	BRNE _0x248
                 ;    2680 		LCD_Cls();
00173d 940e 129e 	CALL _LCD_Cls
                 ;    2681 		draw_label(&pgt_banner, SW_NORMAL);
00173f e3ec      	LDI  R30,LOW(_pgt_banner*2)
001740 e0f5      	LDI  R31,HIGH(_pgt_banner*2)
001741 940e 27ba 	CALL SUBOPT_0x31
                 ;    2682 		INIT_OPTIONS(pgt_);
001743 2f10      	MOV  R17,R16
                 _0x24A:
001744 1731      	CP   R19,R17
001745 f030      	BRLO _0x24B
001746 940e 2b7f 	CALL SUBOPT_0xB1
001748 940e 27ba 	CALL SUBOPT_0x31
00174a 5f1f      	SUBI R17,-1
00174b cff8      	RJMP _0x24A
                 _0x24B:
                 ;    2683 		msg = MSG_REFRESH;
00174c efee      	LDI  R30,LOW(254)
00174d 83ec      	STD  Y+4,R30
                 ;    2684 	}
                 ;    2685 	if(msg == KEY_NUM1) {
                 _0x248:
00174e 81ac      	LDD  R26,Y+4
00174f 33a1      	CPI  R26,LOW(0x31)
001750 f419      	BRNE _0x24C
                 ;    2686 		nextwin = PG_CHSET;
001751 e0e7      	LDI  R30,LOW(7)
001752 2e4e      	MOV  R4,R30
                 ;    2687 		return;
001753 c025      	RJMP _0x48A
                 ;    2688 	}
                 ;    2689 	if(msg == KEY_NUM2) {
                 _0x24C:
001754 81ac      	LDD  R26,Y+4
001755 33a2      	CPI  R26,LOW(0x32)
001756 f419      	BRNE _0x24D
                 ;    2690 		nextwin = PG_PRBSET;
001757 e0ea      	LDI  R30,LOW(10)
001758 2e4e      	MOV  R4,R30
                 ;    2691 		return;
001759 c01f      	RJMP _0x48A
                 ;    2692 	}
                 ;    2693 	if(msg == MSG_REFRESH) {
                 _0x24D:
00175a 81ac      	LDD  R26,Y+4
00175b 3fae      	CPI  R26,LOW(0xFE)
00175c f4e1      	BRNE _0x24E
                 ;    2694 		REFRESH_OPTIONS(pgt_);
00175d 91e0 0799 	LDS  R30,_curr_sel_S4C
00175f 91a0 079a 	LDS  R26,_last_sel_S4C
001761 17ea      	CP   R30,R26
001762 f409      	BRNE _0x24F
001763 c015      	RJMP _0x48A
                 _0x24F:
001764 2f10      	MOV  R17,R16
                 _0x251:
001765 1731      	CP   R19,R17
001766 f090      	BRLO _0x252
001767 91a0 079a 	LDS  R26,_last_sel_S4C
001769 171a      	CP   R17,R26
00176a f421      	BRNE _0x253
00176b 940e 2b7f 	CALL SUBOPT_0xB1
00176d 940e 2b79 	CALL SUBOPT_0xB0
                 _0x253:
00176f 91a0 0799 	LDS  R26,_curr_sel_S4C
001771 171a      	CP   R17,R26
001772 f421      	BRNE _0x254
001773 940e 2b7f 	CALL SUBOPT_0xB1
001775 940e 2b79 	CALL SUBOPT_0xB0
                 _0x254:
001777 5f1f      	SUBI R17,-1
001778 cfec      	RJMP _0x251
                 _0x252:
                 ;    2695 	}
                 ;    2696 	return;
                 _0x24E:
                 _0x48A:
001779 940e 327a 	CALL __LOADLOCR4
00177b 9625      	ADIW R28,5
00177c 9508      	RET
                 ;    2697 }
                 ;    2698 //channel probe setup
                 ;    2699 LABEL flash pgch_banner =    {LBL_HZ16,3,3,6,""};
                 ;    2700 LABEL flash pgch_chvalue = {LBL_HZ6X8,130,3,2,strbuf};
                 ;    2701 LABEL flash pgch_items[] = {
                 ;    2702 	{LBL_HZ6X8, 10, 30, 10, strbuf},
                 ;    2703 	{LBL_HZ6X8, 130,30, 10, strbuf},
                 ;    2704 	{LBL_HZ6X8, 10, 40, 10, strbuf},
                 ;    2705 	{LBL_HZ6X8, 130,40, 10, strbuf},
                 ;    2706 	{LBL_HZ6X8, 10, 50, 10, strbuf},
                 ;    2707 	{LBL_HZ6X8, 130,50, 10, strbuf}
                 ;    2708 };
                 ;    2709 
                 ;    2710 //select the channel to config
                 ;    2711 void pgchset_handler(uchar msg) {
                 _pgchset_handler:
                 ;    2712 	static uint curr_pos = 1; //absolute postion in options 1-24
                 
                 	.DSEG
                 _curr_pos_S4D:
00079b           	.BYTE 0x2
                 
                 	.CSEG
                 ;    2713 	static uint last_pos = 1;
                 
                 	.DSEG
                 _last_pos_S4D:
00079d           	.BYTE 0x2
                 
                 	.CSEG
                 ;    2714 	uchar min_option = 1;
                 ;    2715 	uchar max_option = sizeof(pgch_items)/sizeof(LABEL);
                 ;    2716 	uchar min_index = 1;
                 ;    2717 	uchar max_index = MAX_CH_NUM;//rundata.scanmode;
                 ;    2718 	uchar new_page = 0;
                 ;    2719 	int i,j;
                 ;    2720 	if(msg == KEY_TAB || msg == KEY_CE) {
00177d 9724      	SBIW R28,4
00177e 940e 2b87 	CALL SUBOPT_0xB2
                 ;	msg -> Y+10
                 ;	min_option -> R17
                 ;	max_option -> R16
                 ;	min_index -> R19
                 ;	max_index -> R18
                 ;	new_page -> R21
                 ;	i -> Y+8
                 ;	j -> Y+6
001780 e050      	LDI  R21,0
001781 85aa      	LDD  R26,Y+10
001782 35a4      	CPI  R26,LOW(0x54)
001783 f011      	BREQ _0x259
001784 34a3      	CPI  R26,LOW(0x43)
001785 f441      	BRNE _0x258
                 _0x259:
                 ;    2721 		if(IS_BORE_MODE)
001786 940e 2794 	CALL SUBOPT_0x2F
001788 f411      	BRNE _0x25B
                 ;    2722 			nextwin = PG_RCONFIG;
001789 e0e3      	LDI  R30,LOW(3)
00178a c001      	RJMP _0x4AF
                 ;    2723 		else
                 _0x25B:
                 ;    2724 			nextwin = PG_TCONFIG;
00178b e0e4      	LDI  R30,LOW(4)
                 _0x4AF:
00178c 2e4e      	MOV  R4,R30
                 ;    2725 		return;
00178d c108      	RJMP _0x489
                 ;    2726 	}
                 ;    2727 
                 ;    2728 	if(msg == KEY_UP) {
                 _0x258:
00178e 85aa      	LDD  R26,Y+10
00178f 35a5      	CPI  R26,LOW(0x55)
001790 f509      	BRNE _0x25D
                 ;    2729 		DEC_TABLE;
001791 940e 2b8e 	CALL SUBOPT_0xB3
001793 940e 2b93 	CALL SUBOPT_0xB4
001795 9731      	SBIW R30,1
001796 940e 2b98 	CALL SUBOPT_0xB5
001798 2fe3      	MOV  R30,R19
001799 940e 2b9d 	CALL SUBOPT_0xB6
00179b 17ae      	CP   R26,R30
00179c 07bf      	CPC  R27,R31
00179d f420      	BRSH _0x25E
00179e 940e 2ba3 	CALL SUBOPT_0xB7
0017a0 940e 2b98 	CALL SUBOPT_0xB5
                 _0x25E:
0017a2 940e 2ba6 	CALL SUBOPT_0xB8
0017a4 f409      	BRNE _0x25F
0017a5 c0f0      	RJMP _0x489
                 _0x25F:
0017a6 2fe0      	MOV  R30,R16
0017a7 940e 2b9d 	CALL SUBOPT_0xB6
0017a9 940e 2ffc 	CALL __MODW21U
0017ab 9730      	SBIW R30,0
0017ac f411      	BRNE _0x260
0017ad e051      	LDI  R21,LOW(1)
0017ae c001      	RJMP _0x261
                 _0x260:
0017af e050      	LDI  R21,LOW(0)
                 _0x261:
                 ;    2730 		msg = MSG_REFRESH;
0017b0 efee      	LDI  R30,LOW(254)
0017b1 87ea      	STD  Y+10,R30
                 ;    2731 	}
                 ;    2732 	if(msg == KEY_DN) {
                 _0x25D:
0017b2 85aa      	LDD  R26,Y+10
0017b3 34a4      	CPI  R26,LOW(0x44)
0017b4 f509      	BRNE _0x262
                 ;    2733 		INC_TABLE;
0017b5 940e 2b8e 	CALL SUBOPT_0xB3
0017b7 940e 2b93 	CALL SUBOPT_0xB4
0017b9 9631      	ADIW R30,1
0017ba 940e 2b98 	CALL SUBOPT_0xB5
0017bc 2fe2      	MOV  R30,R18
0017bd 940e 2bae 	CALL SUBOPT_0xB9
0017bf 940e 2aca 	CALL SUBOPT_0x99
0017c1 f420      	BRSH _0x263
0017c2 940e 2bb3 	CALL SUBOPT_0xBA
0017c4 940e 2b98 	CALL SUBOPT_0xB5
                 _0x263:
0017c6 940e 2ba6 	CALL SUBOPT_0xB8
0017c8 f409      	BRNE _0x264
0017c9 c0cc      	RJMP _0x489
                 _0x264:
0017ca 2fe0      	MOV  R30,R16
0017cb 940e 2b9d 	CALL SUBOPT_0xB6
0017cd 940e 2ffc 	CALL __MODW21U
0017cf 9731      	SBIW R30,1
0017d0 f411      	BRNE _0x265
0017d1 e051      	LDI  R21,LOW(1)
0017d2 c001      	RJMP _0x266
                 _0x265:
0017d3 e050      	LDI  R21,LOW(0)
                 _0x266:
                 ;    2734 		msg = MSG_REFRESH;
0017d4 efee      	LDI  R30,LOW(254)
0017d5 87ea      	STD  Y+10,R30
                 ;    2735 	}
                 ;    2736 	if(msg == KEY_OK) {	//show window to select the probe
                 _0x262:
0017d6 85aa      	LDD  R26,Y+10
0017d7 34af      	CPI  R26,LOW(0x4F)
0017d8 f439      	BRNE _0x267
                 ;    2737 		curr_ch = curr_pos;
0017d9 9060 079b
0017db 9070 079c 	__GETWRMN 6,7,0,_curr_pos_S4D
                 ;    2738 		nextwin = PG_PRBLIST;
0017dd e0e8      	LDI  R30,LOW(8)
0017de 2e4e      	MOV  R4,R30
                 ;    2739 		return;
0017df c0b6      	RJMP _0x489
                 ;    2740 	}
                 ;    2741 	if(msg >= KEY_NUM0 && msg <= KEY_NUM9) {
                 _0x267:
0017e0 85aa      	LDD  R26,Y+10
0017e1 33a0      	CPI  R26,LOW(0x30)
0017e2 f010      	BRLO _0x269
0017e3 33aa      	CPI  R26,LOW(0x3A)
0017e4 f000      	BRLO _0x26A
                 _0x269:
                 _0x26A:
                 ;    2742 	/*
                 ;    2743 		KEY_TABLE;
                 ;    2744 		msg = MSG_REFRESH;
                 ;    2745 	*/
                 ;    2746 	}
                 ;    2747 	if(msg == KEY_DOT)
0017e5 85aa      	LDD  R26,Y+10
0017e6 32ae      	CPI  R26,LOW(0x2E)
0017e7 f489      	BRNE _0x26B
                 ;    2748 	{
                 ;    2749 	        if(IS_THERM_MODE)
0017e8 940e 27f5 	CALL SUBOPT_0x39
0017ea f419      	BRNE _0x26C
                 ;    2750 	        {
                 ;    2751 		        sysdata.tid[curr_pos - 1] = INVALID_PROBE;
0017eb e0ae
0017ec e0b0      	__POINTW2MN _sysdata,14
0017ed c002      	RJMP _0x4B0
                 ;    2752 	        }else{
                 _0x26C:
                 ;    2753        		        sysdata.rid[curr_pos - 1] = INVALID_PROBE;
0017ee e2a6
0017ef e0b0      	__POINTW2MN _sysdata,38
                 _0x4B0:
0017f0 91e0 079b 	LDS  R30,_curr_pos_S4D
0017f2 91f0 079c 	LDS  R31,_curr_pos_S4D+1
0017f4 940e 2bb6 	CALL SUBOPT_0xBB
                 ;    2754 	        }
                 ;    2755 		msg = MSG_REFRESH;
0017f6 efee      	LDI  R30,LOW(254)
0017f7 87ea      	STD  Y+10,R30
                 ;    2756 		new_page = 1; //refresh the whole page
0017f8 e051      	LDI  R21,LOW(1)
                 ;    2757 	}
                 ;    2758 	if(msg == MSG_INIT) {
                 _0x26B:
0017f9 85aa      	LDD  R26,Y+10
0017fa 3faf      	CPI  R26,LOW(0xFF)
0017fb f469      	BRNE _0x26E
                 ;    2759 		LCD_Cls();
0017fc 940e 129e 	CALL _LCD_Cls
                 ;    2760 		draw_label(&pgch_banner, SW_NORMAL);
0017fe e5ee      	LDI  R30,LOW(_pgch_banner*2)
0017ff e0f5      	LDI  R31,HIGH(_pgch_banner*2)
001800 940e 27ba 	CALL SUBOPT_0x31
                 ;    2761 		curr_pos = 1;
001802 e0e1      	LDI  R30,LOW(1)
001803 e0f0      	LDI  R31,HIGH(1)
001804 940e 2b98 	CALL SUBOPT_0xB5
                 ;    2762 		new_page = 1;
001806 e051      	LDI  R21,LOW(1)
                 ;    2763 		msg = MSG_REFRESH;
001807 efee      	LDI  R30,LOW(254)
001808 87ea      	STD  Y+10,R30
                 ;    2764 	}
                 ;    2765 	if(msg == MSG_REFRESH) {
                 _0x26E:
001809 85aa      	LDD  R26,Y+10
00180a 3fae      	CPI  R26,LOW(0xFE)
00180b f011      	BREQ PC+3
00180c 940c 1896 	JMP _0x26F
                 ;    2766 
                 ;    2767 		REFRESH_TABLES1(pgch_);
00180e 940e 263b 	CALL SUBOPT_0x0
001810 940e 2bbd 	CALL SUBOPT_0xBC
001812 940e 2b8e 	CALL SUBOPT_0xB3
001814 940e 2bc2 	CALL SUBOPT_0xBD
001816 940e 2b13 	CALL SUBOPT_0xA2
001818 3051      	CPI  R21,1
001819 f011      	BREQ PC+3
00181a 940c 1875 	JMP _0x270
00181c 940e 2bc7 	CALL SUBOPT_0xBE
                 _0x272:
00181e 2fe0      	MOV  R30,R16
00181f 85a8      	LDD  R26,Y+8
001820 85b9      	LDD  R27,Y+8+1
001821 940e 2aca 	CALL SUBOPT_0x99
001823 f414      	BRGE PC+3
001824 940c 1874 	JMP _0x273
001826 940e 2bcc 	CALL SUBOPT_0xBF
001828 940e 2bd1 	CALL SUBOPT_0xC0
00182a 85a8      	LDD  R26,Y+8
00182b 85b9      	LDD  R27,Y+8+1
00182c 0fea      	ADD  R30,R26
00182d 1ffb      	ADC  R31,R27
00182e 83ee      	STD  Y+6,R30
00182f 83ff      	STD  Y+6+1,R31
                 ;    2768 		        if(IS_THERM_MODE)
001830 940e 27f5 	CALL SUBOPT_0x39
001832 f4c9      	BRNE _0x274
                 ;    2769         	        {
                 ;    2770 				if(sysdata.tid[j-1] == INVALID_PROBE){
001833 e0ae
001834 e0b0      	__POINTW2MN _sysdata,14
001835 940e 2bd9 	CALL SUBOPT_0xC1
001837 f429      	BRNE _0x275
                 ;    2771 					sprintf(strbuf,"CH%i:*",j);
001838 940e 263b 	CALL SUBOPT_0x0
00183a 940e 2be2 	CALL SUBOPT_0xC2
                 ;    2772 				}else{
00183c c00e      	RJMP _0x276
                 _0x275:
                 ;    2773 			        	//draw line item j
                 ;    2774 				        sprintf(strbuf,"CH%i:%s",j,tname2b((sysdata.tid[j-1])));
00183d 940e 263b 	CALL SUBOPT_0x0
00183f 940e 2be9 	CALL SUBOPT_0xC3
001841 e0ae
001842 e0b0      	__POINTW2MN _sysdata,14
001843 940e 2bf4 	CALL SUBOPT_0xC4
001845 940e 0701 	CALL _tname2b
001847 940e 2bc2 	CALL SUBOPT_0xBD
001849 940e 2bfd 	CALL SUBOPT_0xC5
                 ;    2775 				}
                 _0x276:
                 ;    2776 		        }else{
00184b c018      	RJMP _0x277
                 _0x274:
                 ;    2777 				if(sysdata.rid[j-1] == INVALID_PROBE){
00184c e2a6
00184d e0b0      	__POINTW2MN _sysdata,38
00184e 940e 2bd9 	CALL SUBOPT_0xC1
001850 f429      	BRNE _0x278
                 ;    2778 					sprintf(strbuf,"CH%i:*",j);
001851 940e 263b 	CALL SUBOPT_0x0
001853 940e 2be2 	CALL SUBOPT_0xC2
                 ;    2779 				}else{
001855 c00e      	RJMP _0x279
                 _0x278:
                 ;    2780 			        	//draw line item j
                 ;    2781 				        sprintf(strbuf,"CH%i:%s",j,rname2b((sysdata.rid[j-1])));
001856 940e 263b 	CALL SUBOPT_0x0
001858 940e 2be9 	CALL SUBOPT_0xC3
00185a e2a6
00185b e0b0      	__POINTW2MN _sysdata,38
00185c 940e 2bf4 	CALL SUBOPT_0xC4
00185e 940e 0730 	CALL _rname2b
001860 940e 2bc2 	CALL SUBOPT_0xBD
001862 940e 2bfd 	CALL SUBOPT_0xC5
                 ;    2782 				}
                 _0x279:
                 ;    2783 		        }
                 _0x277:
                 ;    2784 		REFRESH_TABLES2(pgch_);
001864 940e 2c02 	CALL SUBOPT_0xC6
001866 940e 27ba 	CALL SUBOPT_0x31
001868 940e 2bcc 	CALL SUBOPT_0xBF
00186a 940e 2c0c 	CALL SUBOPT_0xC7
00186c f421      	BRNE _0x27A
00186d 940e 2c02 	CALL SUBOPT_0xC6
00186f 940e 2b79 	CALL SUBOPT_0xB0
                 _0x27A:
001871 940e 2c15 	CALL SUBOPT_0xC8
001873 cfaa      	RJMP _0x272
                 _0x273:
001874 c021      	RJMP _0x27B
                 _0x270:
001875 940e 2bc7 	CALL SUBOPT_0xBE
                 _0x27D:
001877 2fe0      	MOV  R30,R16
001878 85a8      	LDD  R26,Y+8
001879 85b9      	LDD  R27,Y+8+1
00187a 940e 2aca 	CALL SUBOPT_0x99
00187c f0cc      	BRLT _0x27E
00187d 91a0 079d 	LDS  R26,_last_pos_S4D
00187f 91b0 079e 	LDS  R27,_last_pos_S4D+1
001881 940e 2c1b 	CALL SUBOPT_0xC9
001883 940e 2c0c 	CALL SUBOPT_0xC7
001885 f421      	BRNE _0x27F
001886 940e 2c02 	CALL SUBOPT_0xC6
001888 940e 2b79 	CALL SUBOPT_0xB0
                 _0x27F:
00188a 940e 2bcc 	CALL SUBOPT_0xBF
00188c 940e 2c0c 	CALL SUBOPT_0xC7
00188e f421      	BRNE _0x280
00188f 940e 2c02 	CALL SUBOPT_0xC6
001891 940e 2b79 	CALL SUBOPT_0xB0
                 _0x280:
001893 940e 2c15 	CALL SUBOPT_0xC8
001895 cfe1      	RJMP _0x27D
                 _0x27E:
                 _0x27B:
                 ;    2785 	}
                 ;    2786 	return;
                 _0x26F:
                 _0x489:
001896 940e 3278 	CALL __LOADLOCR6
001898 962b      	ADIW R28,11
001899 9508      	RET
                 ;    2787 }
                 ;    2788 //select probe to edit.
                 ;    2789 LABEL flash pgprbset_banner = {LBL_HZ16,3,3,8,""};
                 ;    2790 LABEL flash pgprbset_chvalue = {LBL_HZ6X8,180,3,2,strbuf};
                 ;    2791 LABEL flash pgprbset_items[] = {
                 ;    2792 	{LBL_HZ6X8, 10, 30, 10, strbuf},
                 ;    2793 	{LBL_HZ6X8, 130,30, 10, strbuf},
                 ;    2794 	{LBL_HZ6X8, 10, 40, 10, strbuf},
                 ;    2795 	{LBL_HZ6X8, 130,40, 10, strbuf},
                 ;    2796 	{LBL_HZ6X8, 10, 50, 10, strbuf},
                 ;    2797 	{LBL_HZ6X8, 130,50, 10, strbuf}
                 ;    2798 };
                 ;    2799 //select probe to config
                 ;    2800 void pgprbset_handler(uchar msg) {
                 _pgprbset_handler:
                 ;    2801 	//LABEL flash usage = {LBL_HZ6X8,100,55,5,"usage"};
                 ;    2802 	static uint curr_pos = 1;
                 
                 	.DSEG
                 _curr_pos_S4E:
00079f           	.BYTE 0x2
                 
                 	.CSEG
                 ;    2803 	static uint last_pos = 1;
                 
                 	.DSEG
                 _last_pos_S4E:
0007a1           	.BYTE 0x2
                 
                 	.CSEG
                 ;    2804 	uchar min_option = 1;
                 ;    2805 	uchar max_option = sizeof(pgprbset_items)/sizeof(LABEL);
                 ;    2806 	uchar min_index = 1;
                 ;    2807 	uchar max_index = MAX_PROBE_NUM;
                 ;    2808 	int i,j;
                 ;    2809 	uchar new_page = 1;
                 ;    2810 	if(msg >= KEY_NUM0 && msg <= KEY_NUM9) {
00189a 9723      	SBIW R28,3
00189b e081      	LDI  R24,1
00189c e0a0      	LDI  R26,LOW(0)
00189d e0b0      	LDI  R27,HIGH(0)
00189e e0e6      	LDI  R30,LOW(_0x284*2)
00189f e0f6      	LDI  R31,HIGH(_0x284*2)
0018a0 940e 327f 	CALL __INITLOCB
0018a2 940e 2b87 	CALL SUBOPT_0xB2
                 ;	msg -> Y+9
                 ;	min_option -> R17
                 ;	max_option -> R16
                 ;	min_index -> R19
                 ;	max_index -> R18
                 ;	i -> R20,R21
                 ;	j -> Y+7
                 ;	new_page -> Y+6
0018a4 85a9      	LDD  R26,Y+9
0018a5 33a0      	CPI  R26,LOW(0x30)
0018a6 f010      	BRLO _0x286
0018a7 33aa      	CPI  R26,LOW(0x3A)
0018a8 f000      	BRLO _0x287
                 _0x286:
                 _0x287:
                 ;    2811 	/*
                 ;    2812 		KEY_TABLE;
                 ;    2813 		msg = MSG_REFRESH;
                 ;    2814 	*/
                 ;    2815 	}
                 ;    2816 	if(msg == KEY_CE || msg == KEY_TAB)
0018a9 85a9      	LDD  R26,Y+9
0018aa 34a3      	CPI  R26,LOW(0x43)
0018ab f011      	BREQ _0x289
0018ac 35a4      	CPI  R26,LOW(0x54)
0018ad f441      	BRNE _0x288
                 _0x289:
                 ;    2817 	{
                 ;    2818 		if(IS_THERM_MODE)
0018ae 940e 27f5 	CALL SUBOPT_0x39
0018b0 f411      	BRNE _0x28B
                 ;    2819 			nextwin = PG_TCONFIG;
0018b1 e0e4      	LDI  R30,LOW(4)
0018b2 c001      	RJMP _0x4B1
                 ;    2820 		else
                 _0x28B:
                 ;    2821 			nextwin = PG_RCONFIG;
0018b3 e0e3      	LDI  R30,LOW(3)
                 _0x4B1:
0018b4 2e4e      	MOV  R4,R30
                 ;    2822 		return;
0018b5 c0c7      	RJMP _0x488
                 ;    2823 	}
                 ;    2824 	if(msg == KEY_OK)
                 _0x288:
0018b6 85a9      	LDD  R26,Y+9
0018b7 34af      	CPI  R26,LOW(0x4F)
0018b8 f439      	BRNE _0x28D
                 ;    2825 	{
                 ;    2826 		curr_prb = curr_pos;
0018b9 9080 079f
0018bb 9090 07a0 	__GETWRMN 8,9,0,_curr_pos_S4E
                 ;    2827 		nextwin = PG_PRBCONFIG;
0018bd e0eb      	LDI  R30,LOW(11)
0018be 2e4e      	MOV  R4,R30
                 ;    2828 		return;
0018bf c0bd      	RJMP _0x488
                 ;    2829 	}
                 ;    2830 	if(msg == MSG_INIT)
                 _0x28D:
0018c0 85a9      	LDD  R26,Y+9
0018c1 3faf      	CPI  R26,LOW(0xFF)
0018c2 f471      	BRNE _0x28E
                 ;    2831 	{
                 ;    2832 		LCD_Cls();
0018c3 940e 129e 	CALL _LCD_Cls
                 ;    2833 		draw_label(&pgprbset_banner, SW_NORMAL);
0018c5 ebe2      	LDI  R30,LOW(_pgprbset_banner*2)
0018c6 e0f5      	LDI  R31,HIGH(_pgprbset_banner*2)
0018c7 940e 27ba 	CALL SUBOPT_0x31
                 ;    2834 		curr_pos = 1;
0018c9 e0e1      	LDI  R30,LOW(1)
0018ca e0f0      	LDI  R31,HIGH(1)
0018cb 940e 2c1f 	CALL SUBOPT_0xCA
                 ;    2835 		new_page = 1;
0018cd e0e1      	LDI  R30,LOW(1)
0018ce 83ee      	STD  Y+6,R30
                 ;    2836 		msg = MSG_REFRESH;
0018cf efee      	LDI  R30,LOW(254)
0018d0 87e9      	STD  Y+9,R30
                 ;    2837 	}
                 ;    2838 	if(msg == KEY_UP) {
                 _0x28E:
0018d1 85a9      	LDD  R26,Y+9
0018d2 35a5      	CPI  R26,LOW(0x55)
0018d3 f511      	BRNE _0x28F
                 ;    2839 		DEC_TABLE;
0018d4 940e 2c24 	CALL SUBOPT_0xCB
0018d6 940e 2c29 	CALL SUBOPT_0xCC
0018d8 9731      	SBIW R30,1
0018d9 940e 2c1f 	CALL SUBOPT_0xCA
0018db 2fe3      	MOV  R30,R19
0018dc 940e 2c2e 	CALL SUBOPT_0xCD
0018de 17ae      	CP   R26,R30
0018df 07bf      	CPC  R27,R31
0018e0 f420      	BRSH _0x290
0018e1 940e 2ba3 	CALL SUBOPT_0xB7
0018e3 940e 2c1f 	CALL SUBOPT_0xCA
                 _0x290:
0018e5 940e 2c34 	CALL SUBOPT_0xCE
0018e7 f409      	BRNE _0x291
0018e8 c094      	RJMP _0x488
                 _0x291:
0018e9 2fe0      	MOV  R30,R16
0018ea 940e 2c2e 	CALL SUBOPT_0xCD
0018ec 940e 2ffc 	CALL __MODW21U
0018ee 9730      	SBIW R30,0
0018ef f411      	BRNE _0x292
0018f0 e0e1      	LDI  R30,LOW(1)
0018f1 c001      	RJMP _0x4B2
                 _0x292:
0018f2 e0e0      	LDI  R30,LOW(0)
                 _0x4B2:
0018f3 83ee      	STD  Y+6,R30
                 ;    2840 		msg = MSG_REFRESH;
0018f4 efee      	LDI  R30,LOW(254)
0018f5 87e9      	STD  Y+9,R30
                 ;    2841 	}
                 ;    2842 	if(msg == KEY_DN) {
                 _0x28F:
0018f6 85a9      	LDD  R26,Y+9
0018f7 34a4      	CPI  R26,LOW(0x44)
0018f8 f511      	BRNE _0x294
                 ;    2843 		INC_TABLE;
0018f9 940e 2c24 	CALL SUBOPT_0xCB
0018fb 940e 2c29 	CALL SUBOPT_0xCC
0018fd 9631      	ADIW R30,1
0018fe 940e 2c1f 	CALL SUBOPT_0xCA
001900 2fe2      	MOV  R30,R18
001901 940e 2c3c 	CALL SUBOPT_0xCF
001903 940e 2aca 	CALL SUBOPT_0x99
001905 f420      	BRSH _0x295
001906 940e 2bb3 	CALL SUBOPT_0xBA
001908 940e 2c1f 	CALL SUBOPT_0xCA
                 _0x295:
00190a 940e 2c34 	CALL SUBOPT_0xCE
00190c f409      	BRNE _0x296
00190d c06f      	RJMP _0x488
                 _0x296:
00190e 2fe0      	MOV  R30,R16
00190f 940e 2c2e 	CALL SUBOPT_0xCD
001911 940e 2ffc 	CALL __MODW21U
001913 9731      	SBIW R30,1
001914 f411      	BRNE _0x297
001915 e0e1      	LDI  R30,LOW(1)
001916 c001      	RJMP _0x4B3
                 _0x297:
001917 e0e0      	LDI  R30,LOW(0)
                 _0x4B3:
001918 83ee      	STD  Y+6,R30
                 ;    2844 		msg = MSG_REFRESH;
001919 efee      	LDI  R30,LOW(254)
00191a 87e9      	STD  Y+9,R30
                 ;    2845 	}
                 ;    2846 	if(msg == MSG_REFRESH) {
                 _0x294:
00191b 85a9      	LDD  R26,Y+9
00191c 3fae      	CPI  R26,LOW(0xFE)
00191d f011      	BREQ PC+3
00191e 940c 197d 	JMP _0x299
                 ;    2847 		REFRESH_TABLES1(pgprbset_);
001920 940e 263b 	CALL SUBOPT_0x0
001922 940e 2bbd 	CALL SUBOPT_0xBC
001924 940e 2c24 	CALL SUBOPT_0xCB
001926 940e 2bc2 	CALL SUBOPT_0xBD
001928 940e 2b13 	CALL SUBOPT_0xA2
00192a 81ae      	LDD  R26,Y+6
00192b 30a1      	CPI  R26,LOW(0x1)
00192c f5a1      	BRNE _0x29A
00192d 2f41      	MOV  R20,R17
00192e 2755      	CLR  R21
                 _0x29C:
00192f 2fe0      	MOV  R30,R16
001930 01da      	MOVW R26,R20
001931 940e 2aca 	CALL SUBOPT_0x99
001933 f164      	BRLT _0x29D
001934 940e 2c41 	CALL SUBOPT_0xD0
001936 940e 2bd1 	CALL SUBOPT_0xC0
001938 0fe4      	ADD  R30,R20
001939 1ff5      	ADC  R31,R21
00193a 83ef      	STD  Y+7,R30
00193b 87f8      	STD  Y+7+1,R31
                 ;    2848 		        if(IS_THERM_MODE)
00193c 940e 27f5 	CALL SUBOPT_0x39
00193e f439      	BRNE _0x29E
                 ;    2849 		        {
                 ;    2850 			        sprintf(strbuf,"%i.%s",j,tname2b(j-1));
00193f 940e 263b 	CALL SUBOPT_0x0
001941 940e 2c43 	CALL SUBOPT_0xD1
001943 940e 0701 	CALL _tname2b
001945 c006      	RJMP _0x4B4
                 ;    2851 		        }else{
                 _0x29E:
                 ;    2852         		        sprintf(strbuf,"%i.%s",j,rname2b(j-1));
001946 940e 263b 	CALL SUBOPT_0x0
001948 940e 2c43 	CALL SUBOPT_0xD1
00194a 940e 0730 	CALL _rname2b
                 _0x4B4:
00194c 2766      	CLR  R22
00194d 2777      	CLR  R23
00194e 940e 3049 	CALL __PUTPARD1
001950 940e 2bfd 	CALL SUBOPT_0xC5
                 ;    2853 		        }
                 ;    2854         		draw_label(&(pgprbset_items[i-1]),SW_NORMAL);
001952 940e 2c52 	CALL SUBOPT_0xD2
                 ;    2855 		REFRESH_TABLES2(pgprbset_);
001954 940e 2c52 	CALL SUBOPT_0xD2
001956 940e 2c41 	CALL SUBOPT_0xD0
001958 940e 2c5b 	CALL SUBOPT_0xD3
00195a f411      	BRNE _0x2A0
00195b 940e 2c63 	CALL SUBOPT_0xD4
                 _0x2A0:
00195d 5f4f
00195e 4f5f      	__ADDWRN 20,21,1
00195f cfcf      	RJMP _0x29C
                 _0x29D:
001960 c01c      	RJMP _0x2A1
                 _0x29A:
001961 2f41      	MOV  R20,R17
001962 2755      	CLR  R21
                 _0x2A3:
001963 2fe0      	MOV  R30,R16
001964 01da      	MOVW R26,R20
001965 940e 2aca 	CALL SUBOPT_0x99
001967 f0ac      	BRLT _0x2A4
001968 91a0 07a1 	LDS  R26,_last_pos_S4E
00196a 91b0 07a2 	LDS  R27,_last_pos_S4E+1
00196c 940e 2c1b 	CALL SUBOPT_0xC9
00196e 940e 2c5b 	CALL SUBOPT_0xD3
001970 f411      	BRNE _0x2A5
001971 940e 2c63 	CALL SUBOPT_0xD4
                 _0x2A5:
001973 940e 2c41 	CALL SUBOPT_0xD0
001975 940e 2c5b 	CALL SUBOPT_0xD3
001977 f411      	BRNE _0x2A6
001978 940e 2c63 	CALL SUBOPT_0xD4
                 _0x2A6:
00197a 5f4f
00197b 4f5f      	__ADDWRN 20,21,1
00197c cfe6      	RJMP _0x2A3
                 _0x2A4:
                 _0x2A1:
                 ;    2856 	}
                 ;    2857 	return;
                 _0x299:
                 _0x488:
00197d 940e 3278 	CALL __LOADLOCR6
00197f 962a      	ADIW R28,10
001980 9508      	RET
                 ;    2858 }
                 ;    2859 //select probe for channel setup
                 ;    2860 LABEL flash prblist_banner = {LBL_HZ16,3,3,8,strbuf};
                 ;    2861 LABEL flash prblist_chvalue = {LBL_HZ6X8,180,3,2,strbuf};
                 ;    2862 LABEL flash prblist_items[] = {
                 ;    2863 	{LBL_HZ6X8, 10, 30, 10, strbuf},
                 ;    2864 	{LBL_HZ6X8, 130,30, 10, strbuf},
                 ;    2865 	{LBL_HZ6X8, 10, 40, 10, strbuf},
                 ;    2866 	{LBL_HZ6X8, 130,40, 10, strbuf},
                 ;    2867 	{LBL_HZ6X8, 10, 50, 10, strbuf},
                 ;    2868 	{LBL_HZ6X8, 130,50, 10, strbuf}
                 ;    2869 };
                 ;    2870 //select channel's probe
                 ;    2871 void pgprblist_handler(uchar msg) {
                 _pgprblist_handler:
                 ;    2872 	//LABEL flash usage = {LBL_HZ6X8,100,55,5,"usage"};
                 ;    2873 	static uint curr_pos = 1;
                 
                 	.DSEG
                 _curr_pos_S4F:
0007a3           	.BYTE 0x2
                 
                 	.CSEG
                 ;    2874 	static uint last_pos = 1;
                 
                 	.DSEG
                 _last_pos_S4F:
0007a5           	.BYTE 0x2
                 
                 	.CSEG
                 ;    2875 	uchar min_option = 1;
                 ;    2876 	uchar max_option = sizeof(prblist_items)/sizeof(LABEL);
                 ;    2877 	uchar min_index = 1;
                 ;    2878 	uchar max_index = MAX_PROBE_NUM;
                 ;    2879 	uchar i,j;
                 ;    2880 	uchar new_page = 1;
                 ;    2881 	if(msg >= KEY_NUM0 && msg <= KEY_NUM9) {
001981 9721      	SBIW R28,1
001982 e081      	LDI  R24,1
001983 e0a0      	LDI  R26,LOW(0)
001984 e0b0      	LDI  R27,HIGH(0)
001985 e5ec      	LDI  R30,LOW(_0x2A9*2)
001986 e0f6      	LDI  R31,HIGH(_0x2A9*2)
001987 940e 327f 	CALL __INITLOCB
001989 940e 2b87 	CALL SUBOPT_0xB2
                 ;	msg -> Y+7
                 ;	min_option -> R17
                 ;	max_option -> R16
                 ;	min_index -> R19
                 ;	max_index -> R18
                 ;	i -> R21
                 ;	j -> R20
                 ;	new_page -> Y+6
00198b 81af      	LDD  R26,Y+7
00198c 33a0      	CPI  R26,LOW(0x30)
00198d f010      	BRLO _0x2AB
00198e 33aa      	CPI  R26,LOW(0x3A)
00198f f000      	BRLO _0x2AC
                 _0x2AB:
                 _0x2AC:
                 ;    2882 	/*
                 ;    2883 		KEY_TABLE;
                 ;    2884 		msg = MSG_REFRESH;
                 ;    2885 	*/
                 ;    2886 	}
                 ;    2887 	if(msg == KEY_TAB || msg == KEY_CE)
001990 81af      	LDD  R26,Y+7
001991 35a4      	CPI  R26,LOW(0x54)
001992 f011      	BREQ _0x2AE
001993 34a3      	CPI  R26,LOW(0x43)
001994 f419      	BRNE _0x2AD
                 _0x2AE:
                 ;    2888 	{
                 ;    2889 		nextwin = PG_CHSET;
001995 e0e7      	LDI  R30,LOW(7)
001996 2e4e      	MOV  R4,R30
                 ;    2890 		return;
001997 c0fe      	RJMP _0x487
                 ;    2891 	}
                 ;    2892 	if(msg == KEY_OK)
                 _0x2AD:
001998 81af      	LDD  R26,Y+7
001999 34af      	CPI  R26,LOW(0x4F)
00199a f509      	BRNE _0x2B0
                 ;    2893 	{
                 ;    2894 	        if(IS_THERM_MODE)
00199b 940e 27f5 	CALL SUBOPT_0x39
00199d f471      	BRNE _0x2B1
                 ;    2895 	        {
                 ;    2896        	                if(tprbdata.name[curr_pos-1][0] != '\0')
00199e e6a0
00199f e0b1      	__POINTW2MN _tprbdata,288
0019a0 940e 2c6c 	CALL SUBOPT_0xD5
0019a2 940e 2c72 	CALL SUBOPT_0xD6
0019a4 f031      	BREQ _0x2B2
                 ;    2897         		        sysdata.tid[curr_ch-1] = curr_pos - 1;
0019a5 e0ae
0019a6 e0b0      	__POINTW2MN _sysdata,14
0019a7 940e 2c7a 	CALL SUBOPT_0xD7
0019a9 940e 3083 	CALL __EEPROMWRB
                 ;    2898 	        }else{
                 _0x2B2:
0019ab c00d      	RJMP _0x2B3
                 _0x2B1:
                 ;    2899                         if(rprbdata.name[curr_pos-1][0] != '\0')
0019ac e5a8
0019ad e0b3      	__POINTW2MN _rprbdata,288
0019ae 940e 2c6c 	CALL SUBOPT_0xD5
0019b0 940e 2c72 	CALL SUBOPT_0xD6
0019b2 f031      	BREQ _0x2B4
                 ;    2900 		                sysdata.rid[curr_ch-1] = curr_pos - 1;
0019b3 e2a6
0019b4 e0b0      	__POINTW2MN _sysdata,38
0019b5 940e 2c7a 	CALL SUBOPT_0xD7
0019b7 940e 3083 	CALL __EEPROMWRB
                 ;    2901 	        }
                 _0x2B4:
                 _0x2B3:
                 ;    2902 		nextwin = PG_CHSET;
0019b9 e0e7      	LDI  R30,LOW(7)
0019ba 2e4e      	MOV  R4,R30
                 ;    2903 		return;
0019bb c0da      	RJMP _0x487
                 ;    2904 	}
                 ;    2905 	if(msg == MSG_INIT)
                 _0x2B0:
0019bc 81af      	LDD  R26,Y+7
0019bd 3faf      	CPI  R26,LOW(0xFF)
0019be f4b9      	BRNE _0x2B5
                 ;    2906 	{
                 ;    2907 		LCD_Cls();
0019bf 940e 129e 	CALL _LCD_Cls
                 ;    2908 		sprintf(strbuf,"%i",curr_ch);
0019c1 940e 263b 	CALL SUBOPT_0x0
0019c3 efe9
0019c4 e0f9      	__POINTW1FN _0,565
0019c5 93fa      	ST   -Y,R31
0019c6 93ea      	ST   -Y,R30
0019c7 01f3      	MOVW R30,R6
0019c8 940e 2b74 	CALL SUBOPT_0xAF
                 ;    2909 		draw_label(&prblist_banner, SW_NORMAL);
0019ca e0e8      	LDI  R30,LOW(_prblist_banner*2)
0019cb e0f6      	LDI  R31,HIGH(_prblist_banner*2)
0019cc 940e 27ba 	CALL SUBOPT_0x31
                 ;    2910 		curr_pos = 1;
0019ce e0e1      	LDI  R30,LOW(1)
0019cf e0f0      	LDI  R31,HIGH(1)
0019d0 940e 2c7f 	CALL SUBOPT_0xD8
                 ;    2911 		new_page = 1;
0019d2 e0e1      	LDI  R30,LOW(1)
0019d3 83ee      	STD  Y+6,R30
                 ;    2912 		msg = MSG_REFRESH;
0019d4 efee      	LDI  R30,LOW(254)
0019d5 83ef      	STD  Y+7,R30
                 ;    2913 	}
                 ;    2914 	if(msg == KEY_UP) {
                 _0x2B5:
0019d6 81af      	LDD  R26,Y+7
0019d7 35a5      	CPI  R26,LOW(0x55)
0019d8 f529      	BRNE _0x2B6
                 ;    2915 		DEC_TABLE;
0019d9 940e 2c84 	CALL SUBOPT_0xD9
0019db 93e0 07a5 	STS  _last_pos_S4F,R30
0019dd 93f0 07a6 	STS  _last_pos_S4F+1,R31
0019df 940e 2c6c 	CALL SUBOPT_0xD5
0019e1 940e 2c7f 	CALL SUBOPT_0xD8
0019e3 2fe3      	MOV  R30,R19
0019e4 940e 2c89 	CALL SUBOPT_0xDA
0019e6 17ae      	CP   R26,R30
0019e7 07bf      	CPC  R27,R31
0019e8 f420      	BRSH _0x2B7
0019e9 940e 2ba3 	CALL SUBOPT_0xB7
0019eb 940e 2c7f 	CALL SUBOPT_0xD8
                 _0x2B7:
0019ed 940e 2c8f 	CALL SUBOPT_0xDB
0019ef f409      	BRNE _0x2B8
0019f0 c0a5      	RJMP _0x487
                 _0x2B8:
0019f1 2fe0      	MOV  R30,R16
0019f2 940e 2c89 	CALL SUBOPT_0xDA
0019f4 940e 2ffc 	CALL __MODW21U
0019f6 9730      	SBIW R30,0
0019f7 f411      	BRNE _0x2B9
0019f8 e0e1      	LDI  R30,LOW(1)
0019f9 c001      	RJMP _0x4B5
                 _0x2B9:
0019fa e0e0      	LDI  R30,LOW(0)
                 _0x4B5:
0019fb 83ee      	STD  Y+6,R30
                 ;    2916 		msg = MSG_REFRESH;
0019fc efee      	LDI  R30,LOW(254)
0019fd 83ef      	STD  Y+7,R30
                 ;    2917 	}
                 ;    2918 	if(msg == KEY_DN) {
                 _0x2B6:
0019fe 81af      	LDD  R26,Y+7
0019ff 34a4      	CPI  R26,LOW(0x44)
001a00 f531      	BRNE _0x2BB
                 ;    2919 		INC_TABLE;
001a01 940e 2c84 	CALL SUBOPT_0xD9
001a03 93e0 07a5 	STS  _last_pos_S4F,R30
001a05 93f0 07a6 	STS  _last_pos_S4F+1,R31
001a07 940e 2c84 	CALL SUBOPT_0xD9
001a09 9631      	ADIW R30,1
001a0a 940e 2c7f 	CALL SUBOPT_0xD8
001a0c 2fe2      	MOV  R30,R18
001a0d 940e 2c97 	CALL SUBOPT_0xDC
001a0f 940e 2aca 	CALL SUBOPT_0x99
001a11 f420      	BRSH _0x2BC
001a12 940e 2bb3 	CALL SUBOPT_0xBA
001a14 940e 2c7f 	CALL SUBOPT_0xD8
                 _0x2BC:
001a16 940e 2c8f 	CALL SUBOPT_0xDB
001a18 f409      	BRNE _0x2BD
001a19 c07c      	RJMP _0x487
                 _0x2BD:
001a1a 2fe0      	MOV  R30,R16
001a1b 940e 2c89 	CALL SUBOPT_0xDA
001a1d 940e 2ffc 	CALL __MODW21U
001a1f 9731      	SBIW R30,1
001a20 f411      	BRNE _0x2BE
001a21 e0e1      	LDI  R30,LOW(1)
001a22 c001      	RJMP _0x4B6
                 _0x2BE:
001a23 e0e0      	LDI  R30,LOW(0)
                 _0x4B6:
001a24 83ee      	STD  Y+6,R30
                 ;    2920 		msg = MSG_REFRESH;
001a25 efee      	LDI  R30,LOW(254)
001a26 83ef      	STD  Y+7,R30
                 ;    2921 	}
                 ;    2922 	if(msg == KEY_DOT){
                 _0x2BB:
001a27 81af      	LDD  R26,Y+7
001a28 32ae      	CPI  R26,LOW(0x2E)
001a29 f479      	BRNE _0x2C0
                 ;    2923 	        if(IS_THERM_MODE)
001a2a 940e 27f5 	CALL SUBOPT_0x39
001a2c f419      	BRNE _0x2C1
                 ;    2924 	        {
                 ;    2925 		        sysdata.tid[curr_ch-1] = INVALID_PROBE;
001a2d e0ae
001a2e e0b0      	__POINTW2MN _sysdata,14
001a2f c002      	RJMP _0x4B7
                 ;    2926 	        }else{
                 _0x2C1:
                 ;    2927 		        sysdata.rid[curr_ch-1] = INVALID_PROBE;
001a30 e2a6
001a31 e0b0      	__POINTW2MN _sysdata,38
                 _0x4B7:
001a32 01f3      	MOVW R30,R6
001a33 940e 2bb6 	CALL SUBOPT_0xBB
                 ;    2928 	        }
                 ;    2929        		msg = MSG_REFRESH;
001a35 efee      	LDI  R30,LOW(254)
001a36 83ef      	STD  Y+7,R30
                 ;    2930        		new_page = 1;
001a37 e0e1      	LDI  R30,LOW(1)
001a38 83ee      	STD  Y+6,R30
                 ;    2931 	}
                 ;    2932 	if(msg == MSG_REFRESH) {
                 _0x2C0:
001a39 81af      	LDD  R26,Y+7
001a3a 3fae      	CPI  R26,LOW(0xFE)
001a3b f011      	BREQ PC+3
001a3c 940c 1a96 	JMP _0x2C3
                 ;    2933 		REFRESH_TABLES1(prblist_);
001a3e 940e 263b 	CALL SUBOPT_0x0
001a40 940e 2bbd 	CALL SUBOPT_0xBC
001a42 940e 2c84 	CALL SUBOPT_0xD9
001a44 940e 2bc2 	CALL SUBOPT_0xBD
001a46 940e 2b13 	CALL SUBOPT_0xA2
001a48 81ae      	LDD  R26,Y+6
001a49 30a1      	CPI  R26,LOW(0x1)
001a4a f581      	BRNE _0x2C4
001a4b 2f51      	MOV  R21,R17
                 _0x2C6:
001a4c 1705      	CP   R16,R21
001a4d f160      	BRLO _0x2C7
001a4e 940e 2c9c 	CALL SUBOPT_0xDD
001a50 940e 2bd1 	CALL SUBOPT_0xC0
001a52 01df      	MOVW R26,R30
001a53 2fe5      	MOV  R30,R21
001a54 e0f0      	LDI  R31,0
001a55 0fea      	ADD  R30,R26
001a56 2f4e      	MOV  R20,R30
                 ;    2934 		        if(IS_THERM_MODE)
001a57 940e 27f5 	CALL SUBOPT_0x39
001a59 f439      	BRNE _0x2C8
                 ;    2935 		        {
                 ;    2936 		                sprintf(strbuf,"%s",tname2b(j-1));
001a5a 940e 263b 	CALL SUBOPT_0x0
001a5c 940e 2c9e 	CALL SUBOPT_0xDE
001a5e 940e 0701 	CALL _tname2b
001a60 c006      	RJMP _0x4B8
                 ;    2937 		        }else{
                 _0x2C8:
                 ;    2938         		        sprintf(strbuf,"%s",rname2b(j-1));
001a61 940e 263b 	CALL SUBOPT_0x0
001a63 940e 2c9e 	CALL SUBOPT_0xDE
001a65 940e 0730 	CALL _rname2b
                 _0x4B8:
001a67 2766      	CLR  R22
001a68 2777      	CLR  R23
001a69 940e 2ca6 	CALL SUBOPT_0xDF
                 ;    2939         		}
                 ;    2940 			draw_label(&(prblist_items[i-1]),SW_NORMAL);
001a6b 940e 2ca9 	CALL SUBOPT_0xE0
                 ;    2941 		REFRESH_TABLES2(prblist_);
001a6d 940e 2ca9 	CALL SUBOPT_0xE0
001a6f 940e 2c9c 	CALL SUBOPT_0xDD
001a71 940e 2cb1 	CALL SUBOPT_0xE1
001a73 17ea      	CP   R30,R26
001a74 07fb      	CPC  R31,R27
001a75 f411      	BRNE _0x2CA
001a76 940e 2cb6 	CALL SUBOPT_0xE2
                 _0x2CA:
001a78 5f5f      	SUBI R21,-1
001a79 cfd2      	RJMP _0x2C6
                 _0x2C7:
001a7a c01b      	RJMP _0x2CB
                 _0x2C4:
001a7b 2f51      	MOV  R21,R17
                 _0x2CD:
001a7c 1705      	CP   R16,R21
001a7d f0c0      	BRLO _0x2CE
001a7e 91a0 07a5 	LDS  R26,_last_pos_S4F
001a80 91b0 07a6 	LDS  R27,_last_pos_S4F+1
001a82 940e 2c1b 	CALL SUBOPT_0xC9
001a84 940e 2cb1 	CALL SUBOPT_0xE1
001a86 17ea      	CP   R30,R26
001a87 07fb      	CPC  R31,R27
001a88 f411      	BRNE _0x2CF
001a89 940e 2cb6 	CALL SUBOPT_0xE2
                 _0x2CF:
001a8b 940e 2c9c 	CALL SUBOPT_0xDD
001a8d 940e 2cb1 	CALL SUBOPT_0xE1
001a8f 17ea      	CP   R30,R26
001a90 07fb      	CPC  R31,R27
001a91 f411      	BRNE _0x2D0
001a92 940e 2cb6 	CALL SUBOPT_0xE2
                 _0x2D0:
001a94 5f5f      	SUBI R21,-1
001a95 cfe6      	RJMP _0x2CD
                 _0x2CE:
                 _0x2CB:
                 ;    2942 	}
                 ;    2943 	return;
                 _0x2C3:
                 _0x487:
001a96 940e 3278 	CALL __LOADLOCR6
001a98 9628      	ADIW R28,8
001a99 9508      	RET
                 ;    2944 }
                 ;    2945 //select probe type list
                 ;    2946 LABEL flash tplist_banner = {LBL_HZ16,3,3,8,strbuf};
                 ;    2947 LABEL flash tplist_options[] = {
                 ;    2948 	{LBL_HZ6X8,10,20,8,"1.PT100"},
                 ;    2949 	{LBL_HZ6X8,80,20,8,"2.PT25"},
                 ;    2950 	{LBL_HZ6X8,10,30,8,"3.K-TYPE"},
                 ;    2951 	{LBL_HZ6X8,80,30,8,"4.N-TYPE"},
                 ;    2952 	{LBL_HZ6X8,150,30,8,"5.E-TYPE"},
                 ;    2953 	{LBL_HZ6X8,10,40,8,"6.B-TYPE"},
                 ;    2954 	{LBL_HZ6X8,80,40,8,"7.J-TYPE"},
                 ;    2955 	{LBL_HZ6X8,150,40,8,"8.S-TYPE"},
                 ;    2956 	{LBL_HZ6X8,10,50,8,"9.R-TYPE"}
                 ;    2957 };
                 ;    2958 //select probe type thermo
                 ;    2959 void pgprbtypelist_handler(uchar msg) {
                 _pgprbtypelist_handler:
                 ;    2960 	static int curr_sel = 1;
                 
                 	.DSEG
                 _curr_sel_S50:
0007a7           	.BYTE 0x2
                 
                 	.CSEG
                 ;    2961 	static int last_sel = 1;
                 
                 	.DSEG
                 _last_sel_S50:
0007a9           	.BYTE 0x2
                 
                 	.CSEG
                 ;    2962 	uchar min_option = 1;
                 ;    2963 	uchar max_option = sizeof(tplist_options)/sizeof(LABEL);
                 ;    2964 	uchar i;
                 ;    2965 	if(msg >= KEY_NUM1 && msg <= KEY_NUM9) {
001a9a 940e 3273 	CALL __SAVELOCR4
                 ;	msg -> Y+4
                 ;	min_option -> R17
                 ;	max_option -> R16
                 ;	i -> R19
001a9c e009      	LDI  R16,9
001a9d e011      	LDI  R17,1
001a9e 81ac      	LDD  R26,Y+4
001a9f 33a1      	CPI  R26,LOW(0x31)
001aa0 f010      	BRLO _0x2DD
001aa1 33aa      	CPI  R26,LOW(0x3A)
001aa2 f008      	BRLO _0x2DE
                 _0x2DD:
001aa3 c026      	RJMP _0x2DC
                 _0x2DE:
                 ;    2966 	        if(IS_THERM_MODE)
001aa4 940e 27f5 	CALL SUBOPT_0x39
001aa6 f479      	BRNE _0x2DF
                 ;    2967 	        {
                 ;    2968         		switch(msg)
001aa7 81ec      	LDD  R30,Y+4
                 ;    2969 	        	{
                 ;    2970 		        	case KEY_NUM1:
001aa8 33e1      	CPI  R30,LOW(0x31)
001aa9 f409      	BRNE _0x2E3
                 ;    2971         			       return;
001aaa c098      	RJMP _0x486
                 ;    2972 	        		case KEY_NUM2:
                 _0x2E3:
001aab 33e2      	CPI  R30,LOW(0x32)
001aac f409      	BRNE _0x2E5
                 ;    2973 			               return;
001aad c095      	RJMP _0x486
                 ;    2974         			default:
                 _0x2E5:
                 ;    2975 	        		       tprbdata.type[curr_prb-1] = msg-KEY_NUM3+PRBTYPE_K;
001aae 940e 2cbe 	CALL SUBOPT_0xE3
001ab0 81ec      	LDD  R30,Y+4
001ab1 53e3      	SUBI R30,LOW(51)
001ab2 5fed      	SUBI R30,-LOW(3)
001ab3 940e 3083 	CALL __EEPROMWRB
                 ;    2976 		        	       break;
                 ;    2977         		}
                 ;    2978         	}else{
001ab5 c012      	RJMP _0x2E6
                 _0x2DF:
                 ;    2979         		switch(msg)
001ab6 81ec      	LDD  R30,Y+4
                 ;    2980 	        	{
                 ;    2981 		        	case KEY_NUM1:
001ab7 33e1      	CPI  R30,LOW(0x31)
001ab8 f431      	BRNE _0x2EA
                 ;    2982 			               rprbdata.type[curr_prb-1] = PRBTYPE_PT100;
001ab9 940e 2cc5 	CALL SUBOPT_0xE4
001abb efe1      	LDI  R30,LOW(241)
001abc 940e 3083 	CALL __EEPROMWRB
                 ;    2983         			       break;
001abe c009      	RJMP _0x2E9
                 ;    2984 	        		case KEY_NUM2:
                 _0x2EA:
001abf 33e2      	CPI  R30,LOW(0x32)
001ac0 f431      	BRNE _0x2EC
                 ;    2985 		        	       rprbdata.type[curr_prb-1] = PRBTYPE_PT25;
001ac1 940e 2cc5 	CALL SUBOPT_0xE4
001ac3 efe2      	LDI  R30,LOW(242)
001ac4 940e 3083 	CALL __EEPROMWRB
                 ;    2986 			               break;
001ac6 c001      	RJMP _0x2E9
                 ;    2987         			default:
                 _0x2EC:
                 ;    2988                                        return;
001ac7 c07b      	RJMP _0x486
                 ;    2989         		}
                 _0x2E9:
                 ;    2990         	}
                 _0x2E6:
                 ;    2991 	        msg = KEY_OK;
001ac8 e4ef      	LDI  R30,LOW(79)
001ac9 83ec      	STD  Y+4,R30
                 ;    2992 	}
                 ;    2993 
                 ;    2994 	if(msg == KEY_TAB || msg == KEY_CE || msg == KEY_OK) {
                 _0x2DC:
001aca 81ac      	LDD  R26,Y+4
001acb 35a4      	CPI  R26,LOW(0x54)
001acc f021      	BREQ _0x2EE
001acd 34a3      	CPI  R26,LOW(0x43)
001ace f011      	BREQ _0x2EE
001acf 34af      	CPI  R26,LOW(0x4F)
001ad0 f419      	BRNE _0x2ED
                 _0x2EE:
                 ;    2995 		nextwin = PG_PRBCONFIG;
001ad1 e0eb      	LDI  R30,LOW(11)
001ad2 2e4e      	MOV  R4,R30
                 ;    2996 		return;
001ad3 c06f      	RJMP _0x486
                 ;    2997 	}
                 ;    2998 	if(msg == MSG_INIT)
                 _0x2ED:
001ad4 81ac      	LDD  R26,Y+4
001ad5 3faf      	CPI  R26,LOW(0xFF)
001ad6 f4b9      	BRNE _0x2F0
                 ;    2999 	{
                 ;    3000 		LCD_Cls();
001ad7 940e 129e 	CALL _LCD_Cls
                 ;    3001 		sprintf(strbuf,"%i:",curr_prb);
001ad9 940e 263b 	CALL SUBOPT_0x0
001adb e5ee
001adc e0fa      	__POINTW1FN _0,666
001add 940e 2ccc 	CALL SUBOPT_0xE5
                 ;    3002 		draw_label(&tplist_banner, SW_NORMAL);
001adf e5ee      	LDI  R30,LOW(_tplist_banner*2)
001ae0 e0f6      	LDI  R31,HIGH(_tplist_banner*2)
001ae1 940e 27ba 	CALL SUBOPT_0x31
                 ;    3003 		INIT_OPTIONS(tplist_);
001ae3 2f31      	MOV  R19,R17
                 _0x2F2:
001ae4 1703      	CP   R16,R19
001ae5 f030      	BRLO _0x2F3
001ae6 940e 2cd0 	CALL SUBOPT_0xE6
001ae8 940e 27ba 	CALL SUBOPT_0x31
001aea 5f3f      	SUBI R19,-1
001aeb cff8      	RJMP _0x2F2
                 _0x2F3:
                 ;    3004 		msg = MSG_REFRESH;
001aec efee      	LDI  R30,LOW(254)
001aed 83ec      	STD  Y+4,R30
                 ;    3005 	}
                 ;    3006 	if(msg == KEY_UP) {
                 _0x2F0:
001aee 81ac      	LDD  R26,Y+4
001aef 35a5      	CPI  R26,LOW(0x55)
001af0 f4a1      	BRNE _0x2F4
                 ;    3007 		DEC_OPTION;
001af1 940e 2cd8 	CALL SUBOPT_0xE7
001af3 940e 2cdd 	CALL SUBOPT_0xE8
001af5 9731      	SBIW R30,1
001af6 940e 2ce2 	CALL SUBOPT_0xE9
001af8 2fe1      	MOV  R30,R17
001af9 940e 2ce7 	CALL SUBOPT_0xEA
001afb e0f0      	LDI  R31,0
001afc 17ae      	CP   R26,R30
001afd 07bf      	CPC  R27,R31
001afe f424      	BRGE _0x2F5
001aff 940e 2cec 	CALL SUBOPT_0xEB
001b01 940e 2ce2 	CALL SUBOPT_0xE9
                 ;    3008 		msg = MSG_REFRESH;
                 _0x2F5:
001b03 efee      	LDI  R30,LOW(254)
001b04 83ec      	STD  Y+4,R30
                 ;    3009 	}
                 ;    3010 	if(msg == KEY_DN) {
                 _0x2F4:
001b05 81ac      	LDD  R26,Y+4
001b06 34a4      	CPI  R26,LOW(0x44)
001b07 f499      	BRNE _0x2F6
                 ;    3011 		INC_OPTION;
001b08 940e 2cd8 	CALL SUBOPT_0xE7
001b0a 940e 2cdd 	CALL SUBOPT_0xE8
001b0c 9631      	ADIW R30,1
001b0d 940e 2ce2 	CALL SUBOPT_0xE9
001b0f 2fe0      	MOV  R30,R16
001b10 940e 2ce7 	CALL SUBOPT_0xEA
001b12 940e 2aca 	CALL SUBOPT_0x99
001b14 f424      	BRGE _0x2F7
001b15 2fe1      	MOV  R30,R17
001b16 e0f0      	LDI  R31,0
001b17 940e 2ce2 	CALL SUBOPT_0xE9
                 ;    3012 		msg = MSG_REFRESH;
                 _0x2F7:
001b19 efee      	LDI  R30,LOW(254)
001b1a 83ec      	STD  Y+4,R30
                 ;    3013 	}
                 ;    3014 	if(msg == MSG_REFRESH) {
                 _0x2F6:
001b1b 81ac      	LDD  R26,Y+4
001b1c 3fae      	CPI  R26,LOW(0xFE)
001b1d f529      	BRNE _0x2F8
                 ;    3015 		REFRESH_OPTIONS(tplist_);
001b1e 940e 2cd8 	CALL SUBOPT_0xE7
001b20 91a0 07a9 	LDS  R26,_last_sel_S50
001b22 91b0 07aa 	LDS  R27,_last_sel_S50+1
001b24 17ea      	CP   R30,R26
001b25 07fb      	CPC  R31,R27
001b26 f409      	BRNE _0x2F9
001b27 c01b      	RJMP _0x486
                 _0x2F9:
001b28 2f31      	MOV  R19,R17
                 _0x2FB:
001b29 1703      	CP   R16,R19
001b2a f0c0      	BRLO _0x2FC
001b2b 2fe3      	MOV  R30,R19
001b2c 91a0 07a9 	LDS  R26,_last_sel_S50
001b2e 91b0 07aa 	LDS  R27,_last_sel_S50+1
001b30 940e 2aca 	CALL SUBOPT_0x99
001b32 f421      	BRNE _0x2FD
001b33 940e 2cd0 	CALL SUBOPT_0xE6
001b35 940e 2b79 	CALL SUBOPT_0xB0
                 _0x2FD:
001b37 2fe3      	MOV  R30,R19
001b38 940e 2ce7 	CALL SUBOPT_0xEA
001b3a 940e 2aca 	CALL SUBOPT_0x99
001b3c f421      	BRNE _0x2FE
001b3d 940e 2cd0 	CALL SUBOPT_0xE6
001b3f 940e 2b79 	CALL SUBOPT_0xB0
                 _0x2FE:
001b41 5f3f      	SUBI R19,-1
001b42 cfe6      	RJMP _0x2FB
                 _0x2FC:
                 ;    3016 	}
                 ;    3017 	return;
                 _0x2F8:
                 _0x486:
001b43 940e 327a 	CALL __LOADLOCR4
001b45 9625      	ADIW R28,5
001b46 9508      	RET
                 ;    3018 }
                 ;    3019 /*
                 ;    3020  *       Convert the probe type const to string
                 ;    3021  */
                 ;    3022 char PRBSTR[7];
                 
                 	.DSEG
                 _PRBSTR:
0007ab           	.BYTE 0x7
                 ;    3023 char* getprbtype(uchar prbtype)
                 ;    3024 {
                 
                 	.CSEG
                 _getprbtype:
                 ;    3025 	switch(prbtype)
                 ;	prbtype -> Y+0
001b47 81e8      	LD   R30,Y
                 ;    3026 	{
                 ;    3027 		case PRBTYPE_PT25:
001b48 3fe2      	CPI  R30,LOW(0xF2)
001b49 f449      	BRNE _0x302
                 ;    3028 		        sprintf(PRBSTR,"PT  25");
001b4a 940e 2cef 	CALL SUBOPT_0xEC
001b4c e7e0
001b4d e0fa      	__POINTW1FN _0,684
001b4e 940e 278d 	CALL SUBOPT_0x2E
                 ;    3029 		        return PRBSTR;
001b50 eaeb      	LDI  R30,LOW(_PRBSTR)
001b51 e0f7      	LDI  R31,HIGH(_PRBSTR)
001b52 c1c5      	RJMP _0x485
                 ;    3030 		case PRBTYPE_PT100:
                 _0x302:
001b53 3fe1      	CPI  R30,LOW(0xF1)
001b54 f449      	BRNE _0x303
                 ;    3031 		        sprintf(PRBSTR,"PT 100");
001b55 940e 2cef 	CALL SUBOPT_0xEC
001b57 e7e7
001b58 e0fa      	__POINTW1FN _0,691
001b59 940e 278d 	CALL SUBOPT_0x2E
                 ;    3032 		        return PRBSTR;
001b5b eaeb      	LDI  R30,LOW(_PRBSTR)
001b5c e0f7      	LDI  R31,HIGH(_PRBSTR)
001b5d c1ba      	RJMP _0x485
                 ;    3033 		case PRBTYPE_K:
                 _0x303:
001b5e 30e3      	CPI  R30,LOW(0x3)
001b5f f449      	BRNE _0x304
                 ;    3034 		        sprintf(PRBSTR,"K TYPE");
001b60 940e 2cef 	CALL SUBOPT_0xEC
001b62 e7ee
001b63 e0fa      	__POINTW1FN _0,698
001b64 940e 278d 	CALL SUBOPT_0x2E
                 ;    3035 		        return PRBSTR;
001b66 eaeb      	LDI  R30,LOW(_PRBSTR)
001b67 e0f7      	LDI  R31,HIGH(_PRBSTR)
001b68 c1af      	RJMP _0x485
                 ;    3036 		case PRBTYPE_N:
                 _0x304:
001b69 30e4      	CPI  R30,LOW(0x4)
001b6a f449      	BRNE _0x305
                 ;    3037 		        sprintf(PRBSTR,"N TYPE");
001b6b 940e 2cef 	CALL SUBOPT_0xEC
001b6d e8e5
001b6e e0fa      	__POINTW1FN _0,705
001b6f 940e 278d 	CALL SUBOPT_0x2E
                 ;    3038 		        return PRBSTR;
001b71 eaeb      	LDI  R30,LOW(_PRBSTR)
001b72 e0f7      	LDI  R31,HIGH(_PRBSTR)
001b73 c1a4      	RJMP _0x485
                 ;    3039 		case PRBTYPE_E:
                 _0x305:
001b74 30e5      	CPI  R30,LOW(0x5)
001b75 f449      	BRNE _0x306
                 ;    3040 		        sprintf(PRBSTR,"E TYPE");
001b76 940e 2cef 	CALL SUBOPT_0xEC
001b78 e8ec
001b79 e0fa      	__POINTW1FN _0,712
001b7a 940e 278d 	CALL SUBOPT_0x2E
                 ;    3041 		        return PRBSTR;
001b7c eaeb      	LDI  R30,LOW(_PRBSTR)
001b7d e0f7      	LDI  R31,HIGH(_PRBSTR)
001b7e c199      	RJMP _0x485
                 ;    3042 		case PRBTYPE_B:
                 _0x306:
001b7f 30e6      	CPI  R30,LOW(0x6)
001b80 f449      	BRNE _0x307
                 ;    3043 		        sprintf(PRBSTR,"B TYPE");
001b81 940e 2cef 	CALL SUBOPT_0xEC
001b83 e9e3
001b84 e0fa      	__POINTW1FN _0,719
001b85 940e 278d 	CALL SUBOPT_0x2E
                 ;    3044 		        return PRBSTR;
001b87 eaeb      	LDI  R30,LOW(_PRBSTR)
001b88 e0f7      	LDI  R31,HIGH(_PRBSTR)
001b89 c18e      	RJMP _0x485
                 ;    3045 		case PRBTYPE_J:
                 _0x307:
001b8a 30e7      	CPI  R30,LOW(0x7)
001b8b f449      	BRNE _0x308
                 ;    3046 		        sprintf(PRBSTR,"J TYPE");
001b8c 940e 2cef 	CALL SUBOPT_0xEC
001b8e e9ea
001b8f e0fa      	__POINTW1FN _0,726
001b90 940e 278d 	CALL SUBOPT_0x2E
                 ;    3047 		        return PRBSTR;
001b92 eaeb      	LDI  R30,LOW(_PRBSTR)
001b93 e0f7      	LDI  R31,HIGH(_PRBSTR)
001b94 c183      	RJMP _0x485
                 ;    3048 		case PRBTYPE_S:
                 _0x308:
001b95 30e8      	CPI  R30,LOW(0x8)
001b96 f449      	BRNE _0x309
                 ;    3049 		        sprintf(PRBSTR,"S TYPE");
001b97 940e 2cef 	CALL SUBOPT_0xEC
001b99 eae1
001b9a e0fa      	__POINTW1FN _0,733
001b9b 940e 278d 	CALL SUBOPT_0x2E
                 ;    3050 		        return PRBSTR;
001b9d eaeb      	LDI  R30,LOW(_PRBSTR)
001b9e e0f7      	LDI  R31,HIGH(_PRBSTR)
001b9f c178      	RJMP _0x485
                 ;    3051 		case PRBTYPE_R:
                 _0x309:
001ba0 30e9      	CPI  R30,LOW(0x9)
001ba1 f449      	BRNE _0x301
                 ;    3052 		        sprintf(PRBSTR,"R TYPE");
001ba2 940e 2cef 	CALL SUBOPT_0xEC
001ba4 eae8
001ba5 e0fa      	__POINTW1FN _0,740
001ba6 940e 278d 	CALL SUBOPT_0x2E
                 ;    3053 		        return PRBSTR;
001ba8 eaeb      	LDI  R30,LOW(_PRBSTR)
001ba9 e0f7      	LDI  R31,HIGH(_PRBSTR)
001baa c16d      	RJMP _0x485
                 ;    3054 
                 ;    3055 	}
                 _0x301:
                 ;    3056 
                 ;    3057 		        sprintf(PRBSTR,"? TYPE");
001bab 940e 2cef 	CALL SUBOPT_0xEC
001bad eaef
001bae e0fa      	__POINTW1FN _0,747
001baf 940e 278d 	CALL SUBOPT_0x2E
                 ;    3058 		        return PRBSTR;
001bb1 eaeb      	LDI  R30,LOW(_PRBSTR)
001bb2 e0f7      	LDI  R31,HIGH(_PRBSTR)
001bb3 c164      	RJMP _0x485
                 ;    3059 
                 ;    3060 }
                 ;    3061 //config r probe parameter
                 ;    3062 LABEL flash pgprbcfg_banner = {LBL_HZ12,3,3,8,strbuf};
                 ;    3063 LABEL flash snlbl = {LBL_HZ12,10,17,4,"1."};
                 ;    3064 LABEL flash snval = {LBL_HZ6X8,75,22,10,strbuf};
                 ;    3065 LABEL flash typelbl = {LBL_HZ12,10,31,3,"2."};
                 ;    3066 LABEL flash typeval = {LBL_HZ6X8,59,36,10,strbuf};
                 ;    3067 LABEL flash paramlbl1 = {LBL_HZ12,130,31,3,"3."};
                 ;    3068 LABEL flash paramval1 = {LBL_HZ6X8,147,36,10,strbuf};
                 ;    3069 LABEL flash paramlbl2 = {LBL_HZ12,10,45,3,"4."};
                 ;    3070 LABEL flash paramval2 = {LBL_HZ6X8,27,50,10,strbuf};
                 ;    3071 LABEL flash paramlbl3 = {LBL_HZ12,130,45,3,"5."};
                 ;    3072 LABEL flash paramval3 = {LBL_HZ6X8,147,50,10,strbuf};
                 ;    3073 LABEL flash paramlbl3b = {LBL_HZ12,10,45,7,"3."};
                 ;    3074 LABEL flash paramval3b = {LBL_HZ6X8,27,50,10,strbuf};
                 ;    3075 
                 ;    3076 //configuration of BORE probe parameter
                 ;    3077 void pgprbconfig_handler(uchar msg) {
                 _pgprbconfig_handler:
                 ;    3078 	if( msg == KEY_OK) {
                 ;	msg -> Y+0
001bb4 81a8      	LD   R26,Y
001bb5 34af      	CPI  R26,LOW(0x4F)
001bb6 f419      	BRNE _0x311
                 ;    3079 		nextwin = PG_PRBSET;
001bb7 e0ea      	LDI  R30,LOW(10)
001bb8 2e4e      	MOV  R4,R30
                 ;    3080 		return;
001bb9 c15e      	RJMP _0x485
                 ;    3081 	}
                 ;    3082 	if(msg == KEY_TAB || msg == KEY_CE) {
                 _0x311:
001bba 81a8      	LD   R26,Y
001bbb 35a4      	CPI  R26,LOW(0x54)
001bbc f011      	BREQ _0x313
001bbd 34a3      	CPI  R26,LOW(0x43)
001bbe f419      	BRNE _0x312
                 _0x313:
                 ;    3083 		nextwin = PG_PRBSET;
001bbf e0ea      	LDI  R30,LOW(10)
001bc0 2e4e      	MOV  R4,R30
                 ;    3084 		return;
001bc1 c156      	RJMP _0x485
                 ;    3085 	}
                 ;    3086 	if(msg == MSG_INIT)
                 _0x312:
001bc2 81a8      	LD   R26,Y
001bc3 3faf      	CPI  R26,LOW(0xFF)
001bc4 f011      	BREQ PC+3
001bc5 940c 1c7e 	JMP _0x315
                 ;    3087 	{
                 ;    3088 		LCD_Cls();
001bc7 940e 129e 	CALL _LCD_Cls
                 ;    3089 		if(IS_THERM_MODE)
001bc9 940e 27f5 	CALL SUBOPT_0x39
001bcb f599      	BRNE _0x316
                 ;    3090 		{
                 ;    3091 		        sprintf(strbuf,"%i",curr_prb);
001bcc 940e 263b 	CALL SUBOPT_0x0
001bce ecef
001bcf e0fa      	__POINTW1FN _0,779
001bd0 940e 2ccc 	CALL SUBOPT_0xE5
                 ;    3092         		draw_label(&pgprbcfg_banner,SW_NORMAL);
001bd2 ece6      	LDI  R30,LOW(_pgprbcfg_banner*2)
001bd3 e0f6      	LDI  R31,HIGH(_pgprbcfg_banner*2)
001bd4 940e 27ba 	CALL SUBOPT_0x31
                 ;    3093 	        	//name
                 ;    3094 		        strbuf[0]=':';
001bd6 e3ea      	LDI  R30,LOW(58)
001bd7 93e0 05c8 	STS  _strbuf,R30
                 ;    3095         		sprintf(strbuf,":%s",tname2b(curr_prb-1));
001bd9 940e 263b 	CALL SUBOPT_0x0
001bdb 940e 2cf4 	CALL SUBOPT_0xED
001bdd 01f4      	MOVW R30,R8
001bde 9731      	SBIW R30,1
001bdf 93ea      	ST   -Y,R30
001be0 940e 0701 	CALL _tname2b
001be2 940e 2bc2 	CALL SUBOPT_0xBD
001be4 940e 2b13 	CALL SUBOPT_0xA2
                 ;    3096 	        	draw_label(&snlbl,SW_NORMAL);draw_label(&snval,SW_NORMAL);
001be6 ede0      	LDI  R30,LOW(_snlbl*2)
001be7 e0f6      	LDI  R31,HIGH(_snlbl*2)
001be8 940e 27ba 	CALL SUBOPT_0x31
001bea edea      	LDI  R30,LOW(_snval*2)
001beb e0f6      	LDI  R31,HIGH(_snval*2)
001bec 940e 27ba 	CALL SUBOPT_0x31
                 ;    3097         		//type
                 ;    3098 	        	sprintf(strbuf,":%s",getprbtype(tprbdata.type[curr_prb-1]));
001bee 940e 263b 	CALL SUBOPT_0x0
001bf0 940e 2cf4 	CALL SUBOPT_0xED
001bf2 940e 2cbe 	CALL SUBOPT_0xE3
001bf4 940e 2cf9 	CALL SUBOPT_0xEE
001bf6 940e 2b13 	CALL SUBOPT_0xA2
                 ;    3099 		        draw_label(&typelbl,SW_NORMAL);draw_label(&typeval,SW_NORMAL);
001bf8 eee4      	LDI  R30,LOW(_typelbl*2)
001bf9 e0f6      	LDI  R31,HIGH(_typelbl*2)
001bfa 940e 27ba 	CALL SUBOPT_0x31
001bfc eeee      	LDI  R30,LOW(_typeval*2)
001bfd e0f6      	LDI  R31,HIGH(_typeval*2)
001bfe c079      	RJMP _0x4B9
                 ;    3100 		}else{
                 _0x316:
                 ;    3101 		        sprintf(strbuf,"%i",curr_prb);
001bff 940e 263b 	CALL SUBOPT_0x0
001c01 eee0
001c02 e0fa      	__POINTW1FN _0,796
001c03 940e 2ccc 	CALL SUBOPT_0xE5
                 ;    3102         		draw_label(&pgprbcfg_banner,SW_NORMAL);
001c05 ece6      	LDI  R30,LOW(_pgprbcfg_banner*2)
001c06 e0f6      	LDI  R31,HIGH(_pgprbcfg_banner*2)
001c07 940e 27ba 	CALL SUBOPT_0x31
                 ;    3103 	        	//name
                 ;    3104 		        strbuf[0]=':';
001c09 e3ea      	LDI  R30,LOW(58)
001c0a 93e0 05c8 	STS  _strbuf,R30
                 ;    3105         		sprintf(strbuf,":%s",rname2b(curr_prb-1));
001c0c 940e 263b 	CALL SUBOPT_0x0
001c0e 940e 2cf4 	CALL SUBOPT_0xED
001c10 01f4      	MOVW R30,R8
001c11 9731      	SBIW R30,1
001c12 93ea      	ST   -Y,R30
001c13 940e 0730 	CALL _rname2b
001c15 940e 2bc2 	CALL SUBOPT_0xBD
001c17 940e 2b13 	CALL SUBOPT_0xA2
                 ;    3106 	        	draw_label(&snlbl,SW_NORMAL);draw_label(&snval,SW_NORMAL);
001c19 ede0      	LDI  R30,LOW(_snlbl*2)
001c1a e0f6      	LDI  R31,HIGH(_snlbl*2)
001c1b 940e 27ba 	CALL SUBOPT_0x31
001c1d edea      	LDI  R30,LOW(_snval*2)
001c1e e0f6      	LDI  R31,HIGH(_snval*2)
001c1f 940e 27ba 	CALL SUBOPT_0x31
                 ;    3107         		//type
                 ;    3108 	        	sprintf(strbuf,":%s",getprbtype(rprbdata.type[curr_prb-1]));
001c21 940e 263b 	CALL SUBOPT_0x0
001c23 940e 2cf4 	CALL SUBOPT_0xED
001c25 940e 2cc5 	CALL SUBOPT_0xE4
001c27 940e 2cf9 	CALL SUBOPT_0xEE
001c29 940e 2b13 	CALL SUBOPT_0xA2
                 ;    3109 		        draw_label(&typelbl,SW_NORMAL);draw_label(&typeval,SW_NORMAL);
001c2b eee4      	LDI  R30,LOW(_typelbl*2)
001c2c e0f6      	LDI  R31,HIGH(_typelbl*2)
001c2d 940e 27ba 	CALL SUBOPT_0x31
001c2f eeee      	LDI  R30,LOW(_typeval*2)
001c30 e0f6      	LDI  R31,HIGH(_typeval*2)
001c31 940e 27ba 	CALL SUBOPT_0x31
                 ;    3110 		        if(rprbdata.type[curr_prb-1] == PRBTYPE_PT100)
001c33 940e 2cc5 	CALL SUBOPT_0xE4
001c35 940e 3064 	CALL __EEPROMRDB
001c37 3fe1      	CPI  R30,LOW(0xF1)
001c38 f469      	BRNE _0x318
                 ;    3111 		        {
                 ;    3112 		                sprintf(strbuf,"R(0!):%7f",rprbdata.param3[curr_prb-1]);
001c39 940e 263b 	CALL SUBOPT_0x0
001c3b efe1
001c3c e0fa      	__POINTW1FN _0,813
001c3d 940e 2cff 	CALL SUBOPT_0xEF
                 ;    3113         		        draw_label(&paramlbl3b,SW_NORMAL);draw_label(&paramval3b,SW_NORMAL);
001c3f e3e4      	LDI  R30,LOW(_paramlbl3b*2)
001c40 e0f7      	LDI  R31,HIGH(_paramlbl3b*2)
001c41 940e 27ba 	CALL SUBOPT_0x31
001c43 e3ee      	LDI  R30,LOW(_paramval3b*2)
001c44 e0f7      	LDI  R31,HIGH(_paramval3b*2)
001c45 c032      	RJMP _0x4B9
                 ;    3114         		}else{
                 _0x318:
                 ;    3115         		        //param1
                 ;    3116                 		sprintf(strbuf,"a:%9.3E",rprbdata.param1[curr_prb-1]);
001c46 940e 263b 	CALL SUBOPT_0x0
001c48 efeb
001c49 e0fa      	__POINTW1FN _0,823
001c4a 93fa      	ST   -Y,R31
001c4b 93ea      	ST   -Y,R30
001c4c 940e 2d0c 	CALL SUBOPT_0xF0
001c4e 940e 2ca6 	CALL SUBOPT_0xDF
                 ;    3117 	        	        draw_label(&paramlbl1,SW_NORMAL);draw_label(&paramval1,SW_NORMAL);
001c50 efe8      	LDI  R30,LOW(_paramlbl1*2)
001c51 e0f6      	LDI  R31,HIGH(_paramlbl1*2)
001c52 940e 27ba 	CALL SUBOPT_0x31
001c54 e0e2      	LDI  R30,LOW(_paramval1*2)
001c55 e0f7      	LDI  R31,HIGH(_paramval1*2)
001c56 940e 27ba 	CALL SUBOPT_0x31
                 ;    3118         	        	//param2
                 ;    3119 	        	        sprintf(strbuf,"b:%9.3E",rprbdata.param2[curr_prb-1]);
001c58 940e 263b 	CALL SUBOPT_0x0
001c5a e0e3
001c5b e0fb      	__POINTW1FN _0,831
001c5c 93fa      	ST   -Y,R31
001c5d 93ea      	ST   -Y,R30
001c5e 940e 2d17 	CALL SUBOPT_0xF1
001c60 940e 2d1c 	CALL SUBOPT_0xF2
001c62 940e 2ca6 	CALL SUBOPT_0xDF
                 ;    3120                 		draw_label(&paramlbl2,SW_NORMAL);draw_label(&paramval2,SW_NORMAL);
001c64 e0ec      	LDI  R30,LOW(_paramlbl2*2)
001c65 e0f7      	LDI  R31,HIGH(_paramlbl2*2)
001c66 940e 27ba 	CALL SUBOPT_0x31
001c68 e1e6      	LDI  R30,LOW(_paramval2*2)
001c69 e0f7      	LDI  R31,HIGH(_paramval2*2)
001c6a 940e 27ba 	CALL SUBOPT_0x31
                 ;    3121 	                	//param3
                 ;    3122 		                sprintf(strbuf,"c:%9.3E",rprbdata.param3[curr_prb-1]);
001c6c 940e 263b 	CALL SUBOPT_0x0
001c6e e0eb
001c6f e0fb      	__POINTW1FN _0,839
001c70 940e 2cff 	CALL SUBOPT_0xEF
                 ;    3123         		        draw_label(&paramlbl3,SW_NORMAL);draw_label(&paramval3,SW_NORMAL);
001c72 e2e0      	LDI  R30,LOW(_paramlbl3*2)
001c73 e0f7      	LDI  R31,HIGH(_paramlbl3*2)
001c74 940e 27ba 	CALL SUBOPT_0x31
001c76 e2ea      	LDI  R30,LOW(_paramval3*2)
001c77 e0f7      	LDI  R31,HIGH(_paramval3*2)
                 _0x4B9:
001c78 93fa      	ST   -Y,R31
001c79 93ea      	ST   -Y,R30
001c7a e0e1      	LDI  R30,LOW(1)
001c7b 93ea      	ST   -Y,R30
001c7c d336      	RCALL _draw_label
                 ;    3124 
                 ;    3125         		}
                 ;    3126                 }
                 ;    3127 		return;
001c7d c09a      	RJMP _0x485
                 ;    3128 	}
                 ;    3129 	if(msg == KEY_NUM1) {
                 _0x315:
001c7e 81a8      	LD   R26,Y
001c7f 33a1      	CPI  R26,LOW(0x31)
001c80 f469      	BRNE _0x31A
                 ;    3130 		window_setup(7);
001c81 e0e7      	LDI  R30,LOW(7)
001c82 93e0 07c3 	STS  _max_databuf,R30
                 ;    3131 		sprintf(strbuf,"");
001c84 940e 263b 	CALL SUBOPT_0x0
001c86 e1e3
001c87 e0fb      	__POINTW1FN _0,847
001c88 940e 278d 	CALL SUBOPT_0x2E
                 ;    3132 		prbsninput();
001c8a d105      	RCALL _prbsninput
                 ;    3133 		nextwin = PG_PRBCONFIG;
001c8b e0eb      	LDI  R30,LOW(11)
001c8c 2e4e      	MOV  R4,R30
                 ;    3134 		return;
001c8d c08a      	RJMP _0x485
                 ;    3135 	}
                 ;    3136 	if(msg == KEY_NUM2){
                 _0x31A:
001c8e 81a8      	LD   R26,Y
001c8f 33a2      	CPI  R26,LOW(0x32)
001c90 f419      	BRNE _0x31B
                 ;    3137 		nextwin = PG_PRBTYPELIST;
001c91 e0e9      	LDI  R30,LOW(9)
001c92 2e4e      	MOV  R4,R30
                 ;    3138 		return;
001c93 c084      	RJMP _0x485
                 ;    3139 	}
                 ;    3140 	if(msg == KEY_NUM3 ){
                 _0x31B:
001c94 81a8      	LD   R26,Y
001c95 33a3      	CPI  R26,LOW(0x33)
001c96 f5b1      	BRNE _0x31C
                 ;    3141 
                 ;    3142 	        if(IS_BORE_MODE)
001c97 940e 2794 	CALL SUBOPT_0x2F
001c99 f591      	BRNE _0x31D
                 ;    3143 	        {
                 ;    3144                		window_setup(10);
001c9a e0ea      	LDI  R30,LOW(10)
001c9b 93e0 07c3 	STS  _max_databuf,R30
                 ;    3145 	                if(rprbdata.type[curr_prb-1] == PRBTYPE_PT100)
001c9d 940e 2cc5 	CALL SUBOPT_0xE4
001c9f 940e 3064 	CALL __EEPROMRDB
001ca1 3fe1      	CPI  R30,LOW(0xF1)
001ca2 f489      	BRNE _0x31E
                 ;    3146 	                {
                 ;    3147         	                sprintf(strbuf,"R(0!)");
001ca3 940e 263b 	CALL SUBOPT_0x0
001ca5 e2e4
001ca6 e0fb      	__POINTW1FN _0,864
001ca7 940e 278d 	CALL SUBOPT_0x2E
                 ;    3148         	                rprbdata.param3[curr_prb-1] = wnd_floatinput(rprbdata.param1[curr_prb-1]);
001ca9 940e 2d23 	CALL SUBOPT_0xF3
001cab 93ff      	PUSH R31
001cac 93ef      	PUSH R30
001cad 940e 2d0c 	CALL SUBOPT_0xF0
001caf 940e 2aaf 	CALL SUBOPT_0x95
001cb1 91af      	POP  R26
001cb2 91bf      	POP  R27
001cb3 c014      	RJMP _0x4BA
                 ;    3149                         }else{
                 _0x31E:
                 ;    3150         	        	sprintf(strbuf,"a");
001cb4 940e 263b 	CALL SUBOPT_0x0
001cb6 e2ee
001cb7 e0fb      	__POINTW1FN _0,874
001cb8 940e 278d 	CALL SUBOPT_0x2E
                 ;    3151         	        	rprbdata.param1[curr_prb-1] = wnd_floatinput(rprbdata.param1[curr_prb-1]);
001cba 01f4      	MOVW R30,R8
001cbb 9731      	SBIW R30,1
001cbc e3a8      	LDI  R26,LOW(_rprbdata)
001cbd e0b2      	LDI  R27,HIGH(_rprbdata)
001cbe 940e 29fe 	CALL SUBOPT_0x7F
001cc0 93ff      	PUSH R31
001cc1 93ef      	PUSH R30
001cc2 940e 2d0c 	CALL SUBOPT_0xF0
001cc4 940e 2aaf 	CALL SUBOPT_0x95
001cc6 91af      	POP  R26
001cc7 91bf      	POP  R27
                 _0x4BA:
001cc8 940e 3070 	CALL __EEPROMWRD
                 ;    3152         	        }
                 ;    3153         		nextwin = PG_PRBCONFIG;
001cca e0eb      	LDI  R30,LOW(11)
001ccb 2e4e      	MOV  R4,R30
                 ;    3154         	}
                 ;    3155 		return;
                 _0x31D:
001ccc c04b      	RJMP _0x485
                 ;    3156 	}
                 ;    3157 	if(msg == KEY_NUM4) {
                 _0x31C:
001ccd 81a8      	LD   R26,Y
001cce 33a4      	CPI  R26,LOW(0x34)
001ccf f519      	BRNE _0x320
                 ;    3158         	if(IS_BORE_MODE)
001cd0 940e 2794 	CALL SUBOPT_0x2F
001cd2 f4f9      	BRNE _0x321
                 ;    3159         	{
                 ;    3160 	                if(rprbdata.type[curr_prb-1] == PRBTYPE_PT100)
001cd3 940e 2cc5 	CALL SUBOPT_0xE4
001cd5 940e 3064 	CALL __EEPROMRDB
001cd7 3fe1      	CPI  R30,LOW(0xF1)
001cd8 f409      	BRNE _0x322
                 ;    3161 	                        return;
001cd9 c03e      	RJMP _0x485
                 ;    3162 
                 ;    3163         		window_setup(10);
                 _0x322:
001cda 940e 2ab3 	CALL SUBOPT_0x96
                 ;    3164 	        	sprintf(strbuf,"b");
001cdc e3e8
001cdd e0fb      	__POINTW1FN _0,884
001cde 940e 278d 	CALL SUBOPT_0x2E
                 ;    3165 		        rprbdata.param2[curr_prb-1] = wnd_floatinput(rprbdata.param2[curr_prb-1]);
001ce0 940e 2d17 	CALL SUBOPT_0xF1
001ce2 940e 29fe 	CALL SUBOPT_0x7F
001ce4 93ff      	PUSH R31
001ce5 93ef      	PUSH R30
001ce6 940e 2d17 	CALL SUBOPT_0xF1
001ce8 940e 2d1c 	CALL SUBOPT_0xF2
001cea 940e 2aaf 	CALL SUBOPT_0x95
001cec 91af      	POP  R26
001ced 91bf      	POP  R27
001cee 940e 3070 	CALL __EEPROMWRD
                 ;    3166         		nextwin = PG_PRBCONFIG;
001cf0 e0eb      	LDI  R30,LOW(11)
001cf1 2e4e      	MOV  R4,R30
                 ;    3167                 }
                 ;    3168 		return;
                 _0x321:
001cf2 c025      	RJMP _0x485
                 ;    3169 	}
                 ;    3170 	if(msg == KEY_NUM5) {
                 _0x320:
001cf3 81a8      	LD   R26,Y
001cf4 33a5      	CPI  R26,LOW(0x35)
001cf5 f511      	BRNE _0x323
                 ;    3171 	        if(IS_BORE_MODE)
001cf6 940e 2794 	CALL SUBOPT_0x2F
001cf8 f4f9      	BRNE _0x324
                 ;    3172 	        {
                 ;    3173        	                if(rprbdata.type[curr_prb-1] == PRBTYPE_PT100)
001cf9 940e 2cc5 	CALL SUBOPT_0xE4
001cfb 940e 3064 	CALL __EEPROMRDB
001cfd 3fe1      	CPI  R30,LOW(0xF1)
001cfe f409      	BRNE _0x325
                 ;    3174        	                        return;
001cff c018      	RJMP _0x485
                 ;    3175 	                window_setup(10);
                 _0x325:
001d00 940e 2ab3 	CALL SUBOPT_0x96
                 ;    3176        		        sprintf(strbuf,"c");
001d02 e4e2
001d03 e0fb      	__POINTW1FN _0,894
001d04 940e 278d 	CALL SUBOPT_0x2E
                 ;    3177         		rprbdata.param3[curr_prb-1] = wnd_floatinput(rprbdata.param3[curr_prb-1]);
001d06 940e 2d23 	CALL SUBOPT_0xF3
001d08 93ff      	PUSH R31
001d09 93ef      	PUSH R30
001d0a efa8
001d0b e0b2      	__POINTW2MN _rprbdata,192
001d0c 01f4      	MOVW R30,R8
001d0d 9731      	SBIW R30,1
001d0e 940e 2d1c 	CALL SUBOPT_0xF2
001d10 940e 2aaf 	CALL SUBOPT_0x95
001d12 91af      	POP  R26
001d13 91bf      	POP  R27
001d14 940e 3070 	CALL __EEPROMWRD
                 ;    3178 		        nextwin = PG_PRBCONFIG;
001d16 e0eb      	LDI  R30,LOW(11)
001d17 2e4e      	MOV  R4,R30
                 ;    3179 	        }
                 ;    3180 		return;
                 _0x324:
                 ;    3181 	}
                 ;    3182 	return;
                 _0x323:
                 _0x485:
001d18 9621      	ADIW R28,1
001d19 9508      	RET
                 ;    3183 }
                 ;    3184 
                 ;    3185 LABEL flash boot_banner = {LBL_HZ16,3,3,7,""};
                 ;    3186 LABEL flash boot_options[] = {
                 ;    3187  	{LBL_HZ16, 10,23,7,"1."},
                 ;    3188  	{LBL_HZ16, 130,23,7,"2."},
                 ;    3189  	{LBL_HZ16, 10,45,7,"3."},
                 ;    3190  	{LBL_HZ16, 130,45,7,"4."}
                 ;    3191 };
                 ;    3192 //boot up menu
                 ;    3193 void pgboottype_handler(uchar msg) {
                 _pgboottype_handler:
                 ;    3194 	uchar i;
                 ;    3195 	static uchar curr_sel = 1;
                 
                 	.DSEG
                 _curr_sel_S53:
0007b2           	.BYTE 0x1
                 
                 	.CSEG
                 ;    3196 	static uchar last_sel = 1;
                 
                 	.DSEG
                 _last_sel_S53:
0007b3           	.BYTE 0x1
                 
                 	.CSEG
                 ;    3197 	uchar min_option = 1;
                 ;    3198 	uchar max_option = sizeof(boot_options)/sizeof(LABEL);
                 ;    3199 
                 ;    3200 	if(msg == MSG_INIT) {
001d1a 940e 3273 	CALL __SAVELOCR4
                 ;	msg -> Y+4
                 ;	i -> R17
                 ;	min_option -> R16
                 ;	max_option -> R19
001d1c e001      	LDI  R16,1
001d1d e034      	LDI  R19,4
001d1e 81ac      	LDD  R26,Y+4
001d1f 3faf      	CPI  R26,LOW(0xFF)
001d20 f489      	BRNE _0x32D
                 ;    3201 		LCD_Cls();
001d21 940e 129e 	CALL _LCD_Cls
                 ;    3202 		draw_label(&boot_banner, SW_NORMAL);
001d23 e4e8      	LDI  R30,LOW(_boot_banner*2)
001d24 e0f7      	LDI  R31,HIGH(_boot_banner*2)
001d25 940e 27ba 	CALL SUBOPT_0x31
                 ;    3203 		INIT_OPTIONS(boot_);
001d27 2f10      	MOV  R17,R16
                 _0x32F:
001d28 1731      	CP   R19,R17
001d29 f030      	BRLO _0x330
001d2a 940e 2d28 	CALL SUBOPT_0xF4
001d2c 940e 27ba 	CALL SUBOPT_0x31
001d2e 5f1f      	SUBI R17,-1
001d2f cff8      	RJMP _0x32F
                 _0x330:
                 ;    3204 		msg = MSG_REFRESH;
001d30 efee      	LDI  R30,LOW(254)
001d31 83ec      	STD  Y+4,R30
                 ;    3205 	}
                 ;    3206 	if(msg == KEY_NUM1) {
                 _0x32D:
001d32 81ac      	LDD  R26,Y+4
001d33 33a1      	CPI  R26,LOW(0x31)
001d34 f449      	BRNE _0x331
                 ;    3207 		SET_BORE_MODE;
001d35 940e 27c8 	CALL SUBOPT_0x34
                 ;    3208 		SET_TORX;
001d37 940e 2731 	CALL SUBOPT_0x20
                 ;    3209 		nextwin = PG_MAIN;
001d39 e0e2      	LDI  R30,LOW(2)
001d3a 2e4e      	MOV  R4,R30
                 ;    3210 		return;
001d3b 940e 327a 	CALL __LOADLOCR4
001d3d c22a      	RJMP _0x483
                 ;    3211 	}
                 ;    3212 	if(msg == KEY_NUM2) {
                 _0x331:
001d3e 81ac      	LDD  R26,Y+4
001d3f 33a2      	CPI  R26,LOW(0x32)
001d40 f449      	BRNE _0x332
                 ;    3213 		SET_BORE_MODE;
001d41 940e 27c8 	CALL SUBOPT_0x34
                 ;    3214 		SET_TORX;
001d43 940e 2731 	CALL SUBOPT_0x20
                 ;    3215 		nextwin = PG_RCONFIG;
001d45 e0e3      	LDI  R30,LOW(3)
001d46 2e4e      	MOV  R4,R30
                 ;    3216 		return;
001d47 940e 327a 	CALL __LOADLOCR4
001d49 c21e      	RJMP _0x483
                 ;    3217 	}
                 ;    3218 	if(msg == KEY_NUM3) {
                 _0x332:
001d4a 81ac      	LDD  R26,Y+4
001d4b 33a3      	CPI  R26,LOW(0x33)
001d4c f449      	BRNE _0x333
                 ;    3219 		SET_THERM_MODE;
001d4d 940e 27de 	CALL SUBOPT_0x37
                 ;    3220 		SET_TORS;
001d4f 940e 2704 	CALL SUBOPT_0x1A
                 ;    3221 		nextwin = PG_MAIN;
001d51 e0e2      	LDI  R30,LOW(2)
001d52 2e4e      	MOV  R4,R30
                 ;    3222 		return;
001d53 940e 327a 	CALL __LOADLOCR4
001d55 c212      	RJMP _0x483
                 ;    3223 	}
                 ;    3224 	if(msg == KEY_NUM4) {
                 _0x333:
001d56 81ac      	LDD  R26,Y+4
001d57 33a4      	CPI  R26,LOW(0x34)
001d58 f449      	BRNE _0x334
                 ;    3225 		SET_THERM_MODE;
001d59 940e 27de 	CALL SUBOPT_0x37
                 ;    3226 		SET_TORS;
001d5b 940e 2704 	CALL SUBOPT_0x1A
                 ;    3227 		nextwin = PG_TCONFIG;
001d5d e0e4      	LDI  R30,LOW(4)
001d5e 2e4e      	MOV  R4,R30
                 ;    3228 		return;
001d5f 940e 327a 	CALL __LOADLOCR4
001d61 c206      	RJMP _0x483
                 ;    3229 	}
                 ;    3230 	if(msg == MSG_REFRESH) {
                 _0x334:
001d62 81ac      	LDD  R26,Y+4
001d63 3fae      	CPI  R26,LOW(0xFE)
001d64 f4f1      	BRNE _0x335
                 ;    3231 		REFRESH_OPTIONS(boot_);
001d65 91e0 07b2 	LDS  R30,_curr_sel_S53
001d67 91a0 07b3 	LDS  R26,_last_sel_S53
001d69 17ea      	CP   R30,R26
001d6a f419      	BRNE _0x336
001d6b 940e 327a 	CALL __LOADLOCR4
001d6d c1fa      	RJMP _0x483
                 _0x336:
001d6e 2f10      	MOV  R17,R16
                 _0x338:
001d6f 1731      	CP   R19,R17
001d70 f090      	BRLO _0x339
001d71 91a0 07b3 	LDS  R26,_last_sel_S53
001d73 171a      	CP   R17,R26
001d74 f421      	BRNE _0x33A
001d75 940e 2d28 	CALL SUBOPT_0xF4
001d77 940e 2b79 	CALL SUBOPT_0xB0
                 _0x33A:
001d79 91a0 07b2 	LDS  R26,_curr_sel_S53
001d7b 171a      	CP   R17,R26
001d7c f421      	BRNE _0x33B
001d7d 940e 2d28 	CALL SUBOPT_0xF4
001d7f 940e 2b79 	CALL SUBOPT_0xB0
                 _0x33B:
001d81 5f1f      	SUBI R17,-1
001d82 cfec      	RJMP _0x338
                 _0x339:
                 ;    3232 	}
                 ;    3233 }
                 _0x335:
001d83 940e 327a 	CALL __LOADLOCR4
001d85 c1e2      	RJMP _0x483
                 ;    3234 #include "utili.h"
                 ;    3235 #include "window.h"
                 ;    3236 #include "stdlib.h"
                 ;    3237 /*-------------------------------*/
                 ;    3238 /*
                 ;    3239 void delay1 (uint ms)
                 ;    3240 {
                 ;    3241   	int i,j;
                 ;    3242   	for(i=0;i<ms;i++)
                 ;    3243   	for(j=0;j<1000;j++)
                 ;    3244   		;
                 ;    3245 
                 ;    3246 }
                 ;    3247 */
                 ;    3248 /*
                 ;    3249 char lowc(uchar x)
                 ;    3250 {
                 ;    3251 	x = x&0x0f;
                 ;    3252 	if(x > 0x09)
                 ;    3253 		return 'A'+x-0x0a;
                 ;    3254 	else
                 ;    3255 		return '0'+x;
                 ;    3256 }
                 ;    3257 char highc(uchar x)
                 ;    3258 {
                 ;    3259 
                 ;    3260 	x = x>>4;
                 ;    3261 	if(x > 0x09)
                 ;    3262 		return 'A'+x-0x0a;
                 ;    3263 	else
                 ;    3264 		return '0'+x;
                 ;    3265 }
                 ;    3266 */
                 ;    3267 /**/
                 ;    3268 
                 ;    3269 extern uchar pos_databuf;
                 ;    3270 extern uchar data_sign;
                 ;    3271 extern u8 databuf[12];
                 ;    3272 double buf2double()
                 ;    3273 {
                 _buf2double:
                 ;    3274         return atof(databuf);
001d86 940e 2d30 	CALL SUBOPT_0xF5
001d88 940e 2421 	CALL _atof
001d8a 9508      	RET
                 ;    3275         /*
                 ;    3276 	double tmp = 0.0;
                 ;    3277 	uchar i = 0;
                 ;    3278 	uchar pos = 0;
                 ;    3279 	for(i=1;i<pos_databuf;i++) {
                 ;    3280 		if(databuf[i] != KEY_DOT)
                 ;    3281 			tmp = tmp * 10.0+(databuf[i] - '0');
                 ;    3282 		else
                 ;    3283 			pos = pos_databuf - i - 2;
                 ;    3284 	}
                 ;    3285 	while(pos > 0) {
                 ;    3286 		tmp = tmp / 10.0;
                 ;    3287 		pos--;
                 ;    3288 	}
                 ;    3289 	if(data_sign == 1)
                 ;    3290 	        tmp = -tmp;
                 ;    3291        	return tmp;
                 ;    3292        	*/
                 ;    3293 }
                 ;    3294 int buf2byte()	    //convert rundata.tempbuf to byte (00-99)
                 ;    3295 {
                 _buf2byte:
                 ;    3296         return atoi(databuf);
001d8b 940e 2d30 	CALL SUBOPT_0xF5
001d8d 940e 23ee 	CALL _atoi
001d8f 9508      	RET
                 ;    3297         /*
                 ;    3298 	int tmp = 0;
                 ;    3299 	uchar i;
                 ;    3300 	for(i=0;i<pos_databuf;i++) {
                 ;    3301 		tmp = tmp * 10+(databuf[i] - '0');
                 ;    3302 	}
                 ;    3303 	return tmp;
                 ;    3304 	*/
                 ;    3305 }
                 ;    3306 
                 ;    3307 
                 ;    3308 #include "window.h"
                 ;    3309 #include "utili.h"
                 ;    3310 #include "lcd.h"
                 ;    3311 
                 ;    3312 MSG_HANDLER curr_window = 0;
                 
                 	.DSEG
                 _curr_window:
0007b4           	.BYTE 0x2
                 ;    3313 
                 ;    3314 extern uchar key;
                 ;    3315 
                 ;    3316 u8 databuf[12];
                 _databuf:
0007b6           	.BYTE 0xC
                 ;    3317 u8 pos_databuf; //position in data buffer
                 _pos_databuf:
0007c2           	.BYTE 0x1
                 ;    3318 u8 max_databuf;
                 _max_databuf:
0007c3           	.BYTE 0x1
                 ;    3319 u8 data_sign;   // sign of the data
                 _data_sign:
0007c4           	.BYTE 0x1
                 ;    3320 LABEL flash datalbl = {LBL_HZ16,10,10,8,strbuf};
                 
                 	.CSEG
                 ;    3321 LABEL flash datalbl2 = {LBL_HZ6X8,140,54,8,"UP:+/-,DN:'E'"};
                 ;    3322 LABEL flash datalbl3 = {LBL_HZ6X8,140,54,8,"UP/DN:'A'-'Z'"};
                 ;    3323 LABEL flash databox = {LBL_HZ16,20,30,9,databuf};
                 ;    3324 
                 ;    3325 
                 ;    3326 void prbsninput()
                 ;    3327 {
                 _prbsninput:
                 ;    3328 	uchar msg,len;
                 ;    3329 	databuf[0] = '\0';
001d90 931a      	ST   -Y,R17
001d91 930a      	ST   -Y,R16
                 ;	msg -> R17
                 ;	len -> R16
001d92 940e 2d35 	CALL SUBOPT_0xF6
                 ;    3330 	pos_databuf = 0;
                 ;    3331 	key = MSG_INIT;
001d94 efef      	LDI  R30,LOW(255)
001d95 2e5e      	MOV  R5,R30
                 ;    3332 	while(1)
                 _0x33F:
                 ;    3333 	{
                 ;    3334 		if(key == KEY_INVALID)
001d96 e2ed      	LDI  R30,LOW(45)
001d97 15e5      	CP   R30,R5
001d98 f3e9      	BREQ _0x33F
                 ;    3335 		        continue;
                 ;    3336 
                 ;    3337 		msg = key;
001d99 2d15      	MOV  R17,R5
                 ;    3338 
                 ;    3339 
                 ;    3340 		if(msg == MSG_INIT) {
001d9a 3f1f      	CPI  R17,255
001d9b f471      	BRNE _0x343
                 ;    3341 			LCD_Cls();
001d9c 940e 2d3b 	CALL SUBOPT_0xF7
                 ;    3342 			draw_label(&datalbl,SW_NORMAL);
                 ;    3343 			draw_label(&datalbl3,SW_NORMAL);
001d9e e9e4      	LDI  R30,LOW(_datalbl3*2)
001d9f e0f7      	LDI  R31,HIGH(_datalbl3*2)
001da0 940e 27ba 	CALL SUBOPT_0x31
                 ;    3344 			sprintf(databuf,"");
001da2 940e 2d30 	CALL SUBOPT_0xF5
001da4 ecef
001da5 e0f7      	__POINTW1FN _0,11
001da6 940e 278d 	CALL SUBOPT_0x2E
                 ;    3345 			draw_inputbox(&databox);
001da8 940e 2d40 	CALL SUBOPT_0xF8
                 ;    3346 //			LCD_ShowCursor(databox.x,databox.y);
                 ;    3347 		}
                 ;    3348 		if(msg == KEY_TAB)
                 _0x343:
001daa 3514      	CPI  R17,84
001dab f419      	BRNE _0x344
                 ;    3349 		{
                 ;    3350 		/*
                 ;    3351         		if(pos_databuf < max_databuf)
                 ;    3352         		{
                 ;    3353 			        databuf[pos_databuf++] = '0';
                 ;    3354 			        databuf[pos_databuf] = '\0';
                 ;    3355         			msg = MSG_REFRESH;
                 ;    3356                         }
                 ;    3357                 */
                 ;    3358                         key = KEY_INVALID;
001dac e2ed      	LDI  R30,LOW(45)
001dad 2e5e      	MOV  R5,R30
                 ;    3359                         return;
001dae c0b2      	RJMP _0x484
                 ;    3360 		}
                 ;    3361 		if(msg == KEY_CE) {
                 _0x344:
001daf 3413      	CPI  R17,67
001db0 f419      	BRNE _0x345
                 ;    3362 		        key = KEY_INVALID;
001db1 e2ed      	LDI  R30,LOW(45)
001db2 2e5e      	MOV  R5,R30
                 ;    3363 			return;
001db3 c0ad      	RJMP _0x484
                 ;    3364 		}
                 ;    3365 
                 ;    3366 		if(msg == KEY_DN) {
                 _0x345:
001db4 3414      	CPI  R17,68
001db5 f569      	BRNE _0x346
                 ;    3367 			if(pos_databuf == 0)
001db6 91e0 07c2 	LDS  R30,_pos_databuf
001db8 30e0      	CPI  R30,0
001db9 f421      	BRNE _0x347
                 ;    3368 			{
                 ;    3369 				databuf[pos_databuf++] = '0';
001dba 940e 2d46 	CALL SUBOPT_0xF9
001dbc 940e 2d4c 	CALL SUBOPT_0xFA
                 ;    3370 				databuf[pos_databuf] = '\0';
                 ;    3371 			}
                 ;    3372 
                 ;    3373 			if(databuf[pos_databuf-1] == '0')
                 _0x347:
001dbe 940e 2d58 	CALL SUBOPT_0xFB
001dc0 54ea      	SUBI R30,LOW(-_databuf)
001dc1 4ff8      	SBCI R31,HIGH(-_databuf)
001dc2 81e0      	LD   R30,Z
001dc3 33e0      	CPI  R30,LOW(0x30)
001dc4 f439      	BRNE _0x348
                 ;    3374 				databuf[pos_databuf-1] = 'Z';
001dc5 940e 2d58 	CALL SUBOPT_0xFB
001dc7 54ea      	SUBI R30,LOW(-_databuf)
001dc8 4ff8      	SBCI R31,HIGH(-_databuf)
001dc9 e5aa      	LDI  R26,LOW(90)
001dca 83a0      	STD  Z+0,R26
                 ;    3375 			else if (databuf[pos_databuf-1] == 'A')
001dcb c016      	RJMP _0x349
                 _0x348:
001dcc 940e 2d58 	CALL SUBOPT_0xFB
001dce 54ea      	SUBI R30,LOW(-_databuf)
001dcf 4ff8      	SBCI R31,HIGH(-_databuf)
001dd0 81e0      	LD   R30,Z
001dd1 34e1      	CPI  R30,LOW(0x41)
001dd2 f439      	BRNE _0x34A
                 ;    3376 				databuf[pos_databuf-1] = '9';
001dd3 940e 2d58 	CALL SUBOPT_0xFB
001dd5 54ea      	SUBI R30,LOW(-_databuf)
001dd6 4ff8      	SBCI R31,HIGH(-_databuf)
001dd7 e3a9      	LDI  R26,LOW(57)
001dd8 83a0      	STD  Z+0,R26
                 ;    3377 			else
001dd9 c008      	RJMP _0x34B
                 _0x34A:
                 ;    3378 				databuf[pos_databuf-1] -= 1;
001dda 940e 2d58 	CALL SUBOPT_0xFB
001ddc 54ea      	SUBI R30,LOW(-_databuf)
001ddd 4ff8      	SBCI R31,HIGH(-_databuf)
001dde 01df      	MOVW R26,R30
001ddf 91ec      	LD   R30,X
001de0 50e1      	SUBI R30,LOW(1)
001de1 93ec      	ST   X,R30
                 ;    3379 			msg = MSG_REFRESH;
                 _0x34B:
                 _0x349:
001de2 ef1e      	LDI  R17,LOW(254)
                 ;    3380 		}
                 ;    3381 		if(msg == KEY_UP) {
                 _0x346:
001de3 3515      	CPI  R17,85
001de4 f569      	BRNE _0x34C
                 ;    3382 			if(pos_databuf == 0)
001de5 91e0 07c2 	LDS  R30,_pos_databuf
001de7 30e0      	CPI  R30,0
001de8 f421      	BRNE _0x34D
                 ;    3383 			{
                 ;    3384 				databuf[pos_databuf++] = '0';
001de9 940e 2d46 	CALL SUBOPT_0xF9
001deb 940e 2d4c 	CALL SUBOPT_0xFA
                 ;    3385 				databuf[pos_databuf] = '\0';
                 ;    3386 			}
                 ;    3387 
                 ;    3388 			if(databuf[pos_databuf-1] == '9')
                 _0x34D:
001ded 940e 2d58 	CALL SUBOPT_0xFB
001def 54ea      	SUBI R30,LOW(-_databuf)
001df0 4ff8      	SBCI R31,HIGH(-_databuf)
001df1 81e0      	LD   R30,Z
001df2 33e9      	CPI  R30,LOW(0x39)
001df3 f439      	BRNE _0x34E
                 ;    3389 				databuf[pos_databuf-1] = 'A';
001df4 940e 2d58 	CALL SUBOPT_0xFB
001df6 54ea      	SUBI R30,LOW(-_databuf)
001df7 4ff8      	SBCI R31,HIGH(-_databuf)
001df8 e4a1      	LDI  R26,LOW(65)
001df9 83a0      	STD  Z+0,R26
                 ;    3390 			else if (databuf[pos_databuf-1] == 'Z')
001dfa c016      	RJMP _0x34F
                 _0x34E:
001dfb 940e 2d58 	CALL SUBOPT_0xFB
001dfd 54ea      	SUBI R30,LOW(-_databuf)
001dfe 4ff8      	SBCI R31,HIGH(-_databuf)
001dff 81e0      	LD   R30,Z
001e00 35ea      	CPI  R30,LOW(0x5A)
001e01 f439      	BRNE _0x350
                 ;    3391 				databuf[pos_databuf-1] = '0';
001e02 940e 2d58 	CALL SUBOPT_0xFB
001e04 54ea      	SUBI R30,LOW(-_databuf)
001e05 4ff8      	SBCI R31,HIGH(-_databuf)
001e06 e3a0      	LDI  R26,LOW(48)
001e07 83a0      	STD  Z+0,R26
                 ;    3392 			else
001e08 c008      	RJMP _0x351
                 _0x350:
                 ;    3393 				databuf[pos_databuf-1] +=1;
001e09 940e 2d58 	CALL SUBOPT_0xFB
001e0b 54ea      	SUBI R30,LOW(-_databuf)
001e0c 4ff8      	SBCI R31,HIGH(-_databuf)
001e0d 01df      	MOVW R26,R30
001e0e 91ec      	LD   R30,X
001e0f 5fef      	SUBI R30,-LOW(1)
001e10 93ec      	ST   X,R30
                 ;    3394 			msg = MSG_REFRESH;
                 _0x351:
                 _0x34F:
001e11 ef1e      	LDI  R17,LOW(254)
                 ;    3395 		}
                 ;    3396 		if(msg >= KEY_NUM0 && msg <= KEY_NUM9) {
                 _0x34C:
001e12 3310      	CPI  R17,48
001e13 f010      	BRLO _0x353
001e14 331a      	CPI  R17,58
001e15 f008      	BRLO _0x354
                 _0x353:
001e16 c008      	RJMP _0x352
                 _0x354:
                 ;    3397         		if(pos_databuf < max_databuf)
001e17 940e 2d5b 	CALL SUBOPT_0xFC
001e19 f420      	BRSH _0x355
                 ;    3398         		{
                 ;    3399 			        databuf[pos_databuf++] = msg;
001e1a 940e 2d46 	CALL SUBOPT_0xF9
001e1c 940e 2d61 	CALL SUBOPT_0xFD
                 ;    3400         			databuf[pos_databuf] = '\0';
                 ;    3401         		}
                 ;    3402 			msg = MSG_REFRESH;
                 _0x355:
001e1e ef1e      	LDI  R17,LOW(254)
                 ;    3403 		}
                 ;    3404 		if(msg == KEY_OK) {
                 _0x352:
001e1f 341f      	CPI  R17,79
001e20 f5c9      	BRNE _0x356
                 ;    3405 		        if(IS_THERM_MODE)
001e21 940e 27f5 	CALL SUBOPT_0x39
001e23 f499      	BRNE _0x357
                 ;    3406 		        {
                 ;    3407 			        for(len = 0; len < pos_databuf; len++)
001e24 e000      	LDI  R16,LOW(0)
                 _0x359:
001e25 91e0 07c2 	LDS  R30,_pos_databuf
001e27 170e      	CP   R16,R30
001e28 f458      	BRSH _0x35A
                 ;    3408         		                tprbdata.name[curr_prb-1][len] = databuf[len];
001e29 e6a0
001e2a e0b1      	__POINTW2MN _tprbdata,288
001e2b 940e 2d6c 	CALL SUBOPT_0xFE
001e2d 54ea      	SUBI R30,LOW(-_databuf)
001e2e 4ff8      	SBCI R31,HIGH(-_databuf)
001e2f 81e0      	LD   R30,Z
001e30 940e 3083 	CALL __EEPROMWRB
                 ;    3409         			tprbdata.name[curr_prb-1][pos_databuf] = '\0';
001e32 5f0f      	SUBI R16,-1
001e33 cff1      	RJMP _0x359
                 _0x35A:
001e34 e6a0
001e35 e0b1      	__POINTW2MN _tprbdata,288
001e36 c012      	RJMP _0x4BB
                 ;    3410         		}else{
                 _0x357:
                 ;    3411 			        for(len = 0; len < pos_databuf; len++)
001e37 e000      	LDI  R16,LOW(0)
                 _0x35D:
001e38 91e0 07c2 	LDS  R30,_pos_databuf
001e3a 170e      	CP   R16,R30
001e3b f458      	BRSH _0x35E
                 ;    3412         		                rprbdata.name[curr_prb-1][len] = databuf[len];
001e3c e5a8
001e3d e0b3      	__POINTW2MN _rprbdata,288
001e3e 940e 2d6c 	CALL SUBOPT_0xFE
001e40 54ea      	SUBI R30,LOW(-_databuf)
001e41 4ff8      	SBCI R31,HIGH(-_databuf)
001e42 81e0      	LD   R30,Z
001e43 940e 3083 	CALL __EEPROMWRB
                 ;    3413         			rprbdata.name[curr_prb-1][pos_databuf] = '\0';
001e45 5f0f      	SUBI R16,-1
001e46 cff1      	RJMP _0x35D
                 _0x35E:
001e47 e5a8
001e48 e0b3      	__POINTW2MN _rprbdata,288
                 _0x4BB:
001e49 01f4      	MOVW R30,R8
001e4a 9731      	SBIW R30,1
001e4b 940e 2f5e 	CALL __LSLW3
001e4d 0fae      	ADD  R26,R30
001e4e 1fbf      	ADC  R27,R31
001e4f 91e0 07c2 	LDS  R30,_pos_databuf
001e51 e0f0      	LDI  R31,0
001e52 0fae      	ADD  R26,R30
001e53 1fbf      	ADC  R27,R31
001e54 e0e0      	LDI  R30,LOW(0)
001e55 940e 3083 	CALL __EEPROMWRB
                 ;    3414         		}
                 ;    3415 			key = KEY_INVALID;
001e57 e2ed      	LDI  R30,LOW(45)
001e58 2e5e      	MOV  R5,R30
                 ;    3416 			break;
001e59 c007      	RJMP _0x341
                 ;    3417 		}
                 ;    3418 		if(msg == MSG_REFRESH) {
                 _0x356:
001e5a 3f1e      	CPI  R17,254
001e5b f411      	BRNE _0x35F
                 ;    3419 			draw_label(&databox,SW_NORMAL);
001e5c 940e 2d76 	CALL SUBOPT_0xFF
                 ;    3420 //			LCD_ShowCursor(databox.x+pos_databuf*16,databox.y);
                 ;    3421 		}
                 ;    3422 		key = KEY_INVALID;
                 _0x35F:
001e5e e2ed      	LDI  R30,LOW(45)
001e5f 2e5e      	MOV  R5,R30
                 ;    3423 	}
001e60 cf35      	RJMP _0x33F
                 _0x341:
                 ;    3424 //	LCD_HideCursor();
                 ;    3425 }
                 _0x484:
001e61 9109      	LD   R16,Y+
001e62 9119      	LD   R17,Y+
001e63 9508      	RET
                 ;    3426 
                 ;    3427 uchar wnd_intinput(uchar lastval)
                 ;    3428 {
                 _wnd_intinput:
                 ;    3429 	uchar msg;
                 ;    3430 
                 ;    3431 	key = MSG_INIT;
001e64 931a      	ST   -Y,R17
                 ;	lastval -> Y+1
                 ;	msg -> R17
001e65 efef      	LDI  R30,LOW(255)
001e66 2e5e      	MOV  R5,R30
                 ;    3432 	databuf[0] = '\0';
001e67 940e 2d35 	CALL SUBOPT_0xF6
                 ;    3433 	pos_databuf = 0;
                 ;    3434         data_sign = 0;
001e69 e0e0      	LDI  R30,LOW(0)
001e6a 93e0 07c4 	STS  _data_sign,R30
                 ;    3435 	while(1)
                 _0x360:
                 ;    3436 	{
                 ;    3437 		if(key != KEY_INVALID)
001e6c e2ed      	LDI  R30,LOW(45)
001e6d 15e5      	CP   R30,R5
001e6e f011      	BREQ _0x363
                 ;    3438 		{
                 ;    3439 			msg = key;
001e6f 2d15      	MOV  R17,R5
                 ;    3440 
                 ;    3441 		}else{
001e70 c001      	RJMP _0x364
                 _0x363:
                 ;    3442 			continue;
001e71 cffa      	RJMP _0x360
                 ;    3443 		}
                 _0x364:
                 ;    3444 		if(msg == MSG_INIT)
001e72 3f1f      	CPI  R17,255
001e73 f421      	BRNE _0x365
                 ;    3445 		{
                 ;    3446 			LCD_Cls();
001e74 940e 2d3b 	CALL SUBOPT_0xF7
                 ;    3447 			draw_label(&datalbl,SW_NORMAL);
                 ;    3448 			draw_inputbox(&databox);
001e76 940e 2d40 	CALL SUBOPT_0xF8
                 ;    3449 //			LCD_ShowCursor(databox.x,databox.y);
                 ;    3450 
                 ;    3451 		}
                 ;    3452 
                 ;    3453 		if(msg == KEY_TAB)
                 _0x365:
001e78 3514      	CPI  R17,84
001e79 f401      	BRNE _0x366
                 ;    3454 		{
                 ;    3455 		/*
                 ;    3456         		if(pos_databuf < max_databuf)
                 ;    3457         		{
                 ;    3458 			        databuf[pos_databuf++] = '0';
                 ;    3459 			        databuf[pos_databuf] = '\0';
                 ;    3460         			msg = MSG_REFRESH;
                 ;    3461                         }
                 ;    3462                 */
                 ;    3463 		}
                 ;    3464 
                 ;    3465 		if(msg == KEY_DN) {
                 _0x366:
001e7a 3414      	CPI  R17,68
001e7b f401      	BRNE _0x367
                 ;    3466 		/*
                 ;    3467 			if(pos_databuf == 0)
                 ;    3468 			{
                 ;    3469 				databuf[pos_databuf++] = '0';
                 ;    3470 				databuf[pos_databuf] = '\0';
                 ;    3471 			}
                 ;    3472 
                 ;    3473 			if(databuf[pos_databuf-1] == '0')
                 ;    3474 				databuf[pos_databuf-1] = '9';
                 ;    3475 			else
                 ;    3476 				databuf[pos_databuf-1] -= 1;
                 ;    3477 			msg = MSG_REFRESH;
                 ;    3478                 */
                 ;    3479 		}
                 ;    3480 		if(msg == KEY_UP) {
                 _0x367:
001e7c 3515      	CPI  R17,85
001e7d f401      	BRNE _0x368
                 ;    3481 		/*
                 ;    3482 			if(pos_databuf == 0)
                 ;    3483 			{
                 ;    3484 				databuf[pos_databuf++] = '0';
                 ;    3485 				databuf[pos_databuf] = '\0';
                 ;    3486 			}
                 ;    3487 
                 ;    3488 			if(databuf[pos_databuf-1] == '9')
                 ;    3489 				databuf[pos_databuf-1] = '0';
                 ;    3490 			else
                 ;    3491 				databuf[pos_databuf-1] += 1;
                 ;    3492 			msg = MSG_REFRESH;
                 ;    3493                 */
                 ;    3494 		}
                 ;    3495 		if(msg >= KEY_NUM0 && msg <= KEY_NUM9) {
                 _0x368:
001e7e 3310      	CPI  R17,48
001e7f f010      	BRLO _0x36A
001e80 331a      	CPI  R17,58
001e81 f008      	BRLO _0x36B
                 _0x36A:
001e82 c008      	RJMP _0x369
                 _0x36B:
                 ;    3496         		if(pos_databuf < max_databuf)
001e83 940e 2d5b 	CALL SUBOPT_0xFC
001e85 f428      	BRSH _0x36C
                 ;    3497         		{
                 ;    3498         			databuf[pos_databuf++] = msg;
001e86 940e 2d46 	CALL SUBOPT_0xF9
001e88 940e 2d61 	CALL SUBOPT_0xFD
                 ;    3499 	        		databuf[pos_databuf] = '\0';
                 ;    3500 		        	msg = MSG_REFRESH;
001e8a ef1e      	LDI  R17,LOW(254)
                 ;    3501 		        }
                 ;    3502 		}
                 _0x36C:
                 ;    3503 		if(msg == KEY_CE) {
                 _0x369:
001e8b 3413      	CPI  R17,67
001e8c f429      	BRNE _0x36D
                 ;    3504 //			LCD_HideCursor();
                 ;    3505                         key = KEY_INVALID;
001e8d e2ed      	LDI  R30,LOW(45)
001e8e 2e5e      	MOV  R5,R30
                 ;    3506 			return lastval;
001e8f 81e9      	LDD  R30,Y+1
001e90 8118      	LDD  R17,Y+0
001e91 c11f      	RJMP _0x482
                 ;    3507 		}
                 ;    3508 		if(msg == KEY_OK){
                 _0x36D:
001e92 341f      	CPI  R17,79
001e93 f431      	BRNE _0x36E
                 ;    3509 //			LCD_HideCursor();
                 ;    3510                         key = KEY_INVALID;
001e94 e2ed      	LDI  R30,LOW(45)
001e95 2e5e      	MOV  R5,R30
                 ;    3511 			return buf2byte();
001e96 940e 1d8b 	CALL _buf2byte
001e98 8118      	LDD  R17,Y+0
001e99 c117      	RJMP _0x482
                 ;    3512 		}
                 ;    3513 		if(msg == MSG_REFRESH) {
                 _0x36E:
001e9a 3f1e      	CPI  R17,254
001e9b f411      	BRNE _0x36F
                 ;    3514 			draw_label(&databox,SW_NORMAL);
001e9c 940e 2d76 	CALL SUBOPT_0xFF
                 ;    3515 //			LCD_ShowCursor(databox.x+pos_databuf*16,databox.y);
                 ;    3516 		}
                 ;    3517 		key = KEY_INVALID;
                 _0x36F:
001e9e e2ed      	LDI  R30,LOW(45)
001e9f 2e5e      	MOV  R5,R30
                 ;    3518 	}
001ea0 cfcb      	RJMP _0x360
                 ;    3519 }
                 ;    3520 double wnd_floatinput(double lastval)
                 ;    3521 {
                 _wnd_floatinput:
                 ;    3522 	uchar msg;
                 ;    3523 
                 ;    3524 	databuf[0] = '+';
001ea1 931a      	ST   -Y,R17
                 ;	lastval -> Y+1
                 ;	msg -> R17
001ea2 e2eb      	LDI  R30,LOW(43)
001ea3 93e0 07b6 	STS  _databuf,R30
                 ;    3525         databuf[1] = '\0';
001ea5 ebe7
001ea6 e0f7      	__POINTW1MN _databuf,1
001ea7 e0a0      	LDI  R26,LOW(0)
001ea8 83a0      	STD  Z+0,R26
                 ;    3526         pos_databuf = 1;
001ea9 e0e1      	LDI  R30,LOW(1)
001eaa 93e0 07c2 	STS  _pos_databuf,R30
                 ;    3527         data_sign = 0;
001eac e0e0      	LDI  R30,LOW(0)
001ead 93e0 07c4 	STS  _data_sign,R30
                 ;    3528 	key = MSG_INIT;
001eaf efef      	LDI  R30,LOW(255)
001eb0 2e5e      	MOV  R5,R30
                 ;    3529 	while(1)
                 _0x370:
                 ;    3530 	{
                 ;    3531 		if(key != KEY_INVALID)
001eb1 e2ed      	LDI  R30,LOW(45)
001eb2 15e5      	CP   R30,R5
001eb3 f011      	BREQ _0x373
                 ;    3532 		{
                 ;    3533 			msg = key;
001eb4 2d15      	MOV  R17,R5
                 ;    3534 
                 ;    3535 		}else{
001eb5 c001      	RJMP _0x374
                 _0x373:
                 ;    3536 			continue;
001eb6 cffa      	RJMP _0x370
                 ;    3537 		}
                 _0x374:
                 ;    3538 		if(msg == MSG_INIT)
001eb7 3f1f      	CPI  R17,255
001eb8 f441      	BRNE _0x375
                 ;    3539 		{
                 ;    3540 			LCD_Cls();
001eb9 940e 2d3b 	CALL SUBOPT_0xF7
                 ;    3541 			draw_label(&datalbl,SW_NORMAL);
                 ;    3542 			draw_label(&datalbl2,SW_NORMAL);
001ebb e8ea      	LDI  R30,LOW(_datalbl2*2)
001ebc e0f7      	LDI  R31,HIGH(_datalbl2*2)
001ebd 940e 27ba 	CALL SUBOPT_0x31
                 ;    3543 			draw_inputbox(&databox);
001ebf 940e 2d40 	CALL SUBOPT_0xF8
                 ;    3544 //			LCD_ShowCursor(databox.x,databox.y);
                 ;    3545 		}
                 ;    3546 
                 ;    3547 		if(msg == KEY_TAB)
                 _0x375:
001ec1 3514      	CPI  R17,84
001ec2 f409      	BRNE _0x376
                 ;    3548 		{
                 ;    3549 		        msg = MSG_REFRESH;
001ec3 ef1e      	LDI  R17,LOW(254)
                 ;    3550 		}
                 ;    3551 		if(msg == KEY_UP) {
                 _0x376:
001ec4 3515      	CPI  R17,85
001ec5 f011      	BREQ PC+3
001ec6 940c 1f0a 	JMP _0x377
                 ;    3552 		        if(pos_databuf == 1)
001ec8 91a0 07c2 	LDS  R26,_pos_databuf
001eca 30a1      	CPI  R26,LOW(0x1)
001ecb f4a9      	BRNE _0x378
                 ;    3553 		        {
                 ;    3554 		                if((data_sign & 0x01) == 0)      //no sign
001ecc 91e0 07c4 	LDS  R30,_data_sign
001ece 70e1      	ANDI R30,LOW(0x1)
001ecf f439      	BRNE _0x379
                 ;    3555 		                {
                 ;    3556 		                        databuf[0] = '-';
001ed0 e2ed      	LDI  R30,LOW(45)
001ed1 93e0 07b6 	STS  _databuf,R30
                 ;    3557 		                        data_sign |= 0x01;
001ed3 91e0 07c4 	LDS  R30,_data_sign
001ed5 60e1      	ORI  R30,1
001ed6 c007      	RJMP _0x4BC
                 ;    3558 		                }else{
                 _0x379:
                 ;    3559 		                        databuf[0] = '+';       //
001ed7 e2eb      	LDI  R30,LOW(43)
001ed8 93e0 07b6 	STS  _databuf,R30
                 ;    3560 		                        data_sign ^= 0x01;
001eda 91a0 07c4 	LDS  R26,_data_sign
001edc e0e1      	LDI  R30,LOW(1)
001edd 27ea      	EOR  R30,R26
                 _0x4BC:
001ede 93e0 07c4 	STS  _data_sign,R30
                 ;    3561 		                }
                 ;    3562 		        }else{
001ee0 c028      	RJMP _0x37B
                 _0x378:
                 ;    3563                        		if((pos_databuf < max_databuf) && (databuf[pos_databuf-2] == 'E'))
001ee1 940e 2d5b 	CALL SUBOPT_0xFC
001ee3 f448      	BRSH _0x37D
001ee4 91e0 07c2 	LDS  R30,_pos_databuf
001ee6 50e2      	SUBI R30,LOW(2)
001ee7 e0f0      	LDI  R31,0
001ee8 54ea      	SUBI R30,LOW(-_databuf)
001ee9 4ff8      	SBCI R31,HIGH(-_databuf)
001eea 81e0      	LD   R30,Z
001eeb 34e5      	CPI  R30,LOW(0x45)
001eec f009      	BREQ _0x37E
                 _0x37D:
001eed c01a      	RJMP _0x37C
                 _0x37E:
                 ;    3564                 		{
                 ;    3565 			                if((data_sign & 0x08) == 0)
001eee 91e0 07c4 	LDS  R30,_data_sign
001ef0 70e8      	ANDI R30,LOW(0x8)
001ef1 f451      	BRNE _0x37F
                 ;    3566 			                {
                 ;    3567                		        	        databuf[pos_databuf-1] = '-';
001ef2 940e 2d58 	CALL SUBOPT_0xFB
001ef4 54ea      	SUBI R30,LOW(-_databuf)
001ef5 4ff8      	SBCI R31,HIGH(-_databuf)
001ef6 e2ad      	LDI  R26,LOW(45)
001ef7 83a0      	STD  Z+0,R26
                 ;    3568                		        	        data_sign |= 0x08;
001ef8 91e0 07c4 	LDS  R30,_data_sign
001efa 60e8      	ORI  R30,8
001efb c00a      	RJMP _0x4BD
                 ;    3569                		                }else{
                 _0x37F:
                 ;    3570                		        	        databuf[pos_databuf-1] = '+';
001efc 940e 2d58 	CALL SUBOPT_0xFB
001efe 54ea      	SUBI R30,LOW(-_databuf)
001eff 4ff8      	SBCI R31,HIGH(-_databuf)
001f00 e2ab      	LDI  R26,LOW(43)
001f01 83a0      	STD  Z+0,R26
                 ;    3571                		        	        data_sign ^= 0x08;
001f02 91a0 07c4 	LDS  R26,_data_sign
001f04 e0e8      	LDI  R30,LOW(8)
001f05 27ea      	EOR  R30,R26
                 _0x4BD:
001f06 93e0 07c4 	STS  _data_sign,R30
                 ;    3572                		                }
                 ;    3573 	        		}
                 ;    3574 		        	msg = MSG_REFRESH;
                 _0x37C:
001f08 ef1e      	LDI  R17,LOW(254)
                 ;    3575 		        }
                 _0x37B:
                 ;    3576 		        msg = MSG_REFRESH;
001f09 ef1e      	LDI  R17,LOW(254)
                 ;    3577 		}
                 ;    3578 		if(msg == KEY_DN) {
                 _0x377:
001f0a 3414      	CPI  R17,68
001f0b f511      	BRNE _0x381
                 ;    3579                		if((pos_databuf < max_databuf) && ((data_sign & 0x04) == 0))    //no E in string
001f0c 940e 2d5b 	CALL SUBOPT_0xFC
001f0e f420      	BRSH _0x383
001f0f 91e0 07c4 	LDS  R30,_data_sign
001f11 70e4      	ANDI R30,LOW(0x4)
001f12 f009      	BREQ _0x384
                 _0x383:
001f13 c019      	RJMP _0x382
                 _0x384:
                 ;    3580         		{
                 ;    3581         			databuf[pos_databuf++] = 'E';
001f14 940e 2d46 	CALL SUBOPT_0xF9
001f16 54ea      	SUBI R30,LOW(-_databuf)
001f17 4ff8      	SBCI R31,HIGH(-_databuf)
001f18 e4a5      	LDI  R26,LOW(69)
001f19 83a0      	STD  Z+0,R26
                 ;    3582         			databuf[pos_databuf++] = '+';
001f1a 940e 2d46 	CALL SUBOPT_0xF9
001f1c 54ea      	SUBI R30,LOW(-_databuf)
001f1d 4ff8      	SBCI R31,HIGH(-_databuf)
001f1e e2ab      	LDI  R26,LOW(43)
001f1f 83a0      	STD  Z+0,R26
                 ;    3583 	        		databuf[pos_databuf] = '\0';
001f20 91e0 07c2 	LDS  R30,_pos_databuf
001f22 e0f0      	LDI  R31,0
001f23 54ea      	SUBI R30,LOW(-_databuf)
001f24 4ff8      	SBCI R31,HIGH(-_databuf)
001f25 e0a0      	LDI  R26,LOW(0)
001f26 83a0      	STD  Z+0,R26
                 ;    3584 	        		data_sign |= 0x04;
001f27 91e0 07c4 	LDS  R30,_data_sign
001f29 60e4      	ORI  R30,4
001f2a 93e0 07c4 	STS  _data_sign,R30
                 ;    3585 		        	msg = MSG_REFRESH;
001f2c ef1e      	LDI  R17,LOW(254)
                 ;    3586 		        }
                 ;    3587 
                 ;    3588 			msg = MSG_REFRESH;
                 _0x382:
001f2d ef1e      	LDI  R17,LOW(254)
                 ;    3589 		}
                 ;    3590 		if( msg == KEY_DOT)
                 _0x381:
001f2e 321e      	CPI  R17,46
001f2f f491      	BRNE _0x385
                 ;    3591 		{
                 ;    3592                		if((pos_databuf < max_databuf) && ((data_sign & 0x02) == 0))      //no dot in string
001f30 940e 2d5b 	CALL SUBOPT_0xFC
001f32 f420      	BRSH _0x387
001f33 91e0 07c4 	LDS  R30,_data_sign
001f35 70e2      	ANDI R30,LOW(0x2)
001f36 f009      	BREQ _0x388
                 _0x387:
001f37 c00a      	RJMP _0x386
                 _0x388:
                 ;    3593         		{
                 ;    3594         			databuf[pos_databuf++] = msg;
001f38 940e 2d46 	CALL SUBOPT_0xF9
001f3a 940e 2d61 	CALL SUBOPT_0xFD
                 ;    3595 	        		databuf[pos_databuf] = '\0';
                 ;    3596 	        		data_sign |= 0x02;
001f3c 91e0 07c4 	LDS  R30,_data_sign
001f3e 60e2      	ORI  R30,2
001f3f 93e0 07c4 	STS  _data_sign,R30
                 ;    3597 		        	msg = MSG_REFRESH;
001f41 ef1e      	LDI  R17,LOW(254)
                 ;    3598 		        }
                 ;    3599 
                 ;    3600 		}
                 _0x386:
                 ;    3601 		if((msg >= KEY_NUM0 && msg <= KEY_NUM9)) {
                 _0x385:
001f42 3310      	CPI  R17,48
001f43 f010      	BRLO _0x38A
001f44 331a      	CPI  R17,58
001f45 f008      	BRLO _0x38B
                 _0x38A:
001f46 c008      	RJMP _0x389
                 _0x38B:
                 ;    3602                		if(pos_databuf < max_databuf)
001f47 940e 2d5b 	CALL SUBOPT_0xFC
001f49 f428      	BRSH _0x38C
                 ;    3603         		{
                 ;    3604         			databuf[pos_databuf++] = msg;
001f4a 940e 2d46 	CALL SUBOPT_0xF9
001f4c 940e 2d61 	CALL SUBOPT_0xFD
                 ;    3605 	        		databuf[pos_databuf] = '\0';
                 ;    3606 		        	msg = MSG_REFRESH;
001f4e ef1e      	LDI  R17,LOW(254)
                 ;    3607 		        }
                 ;    3608 		}
                 _0x38C:
                 ;    3609 		if(msg == KEY_CE) {
                 _0x389:
001f4f 3413      	CPI  R17,67
001f50 f441      	BRNE _0x38D
                 ;    3610 //			LCD_HideCursor();
                 ;    3611 		key = KEY_INVALID;
001f51 e2ed      	LDI  R30,LOW(45)
001f52 2e5e      	MOV  R5,R30
                 ;    3612 			return lastval;
001f53 81e9
001f54 81fa
001f55 816b
001f56 817c      	__GETD1S 1
001f57 8118      	LDD  R17,Y+0
001f58 c00f      	RJMP _0x483
                 ;    3613 		}
                 ;    3614 		if(msg == KEY_OK){
                 _0x38D:
001f59 341f      	CPI  R17,79
001f5a f431      	BRNE _0x38E
                 ;    3615 				key = KEY_INVALID;
001f5b e2ed      	LDI  R30,LOW(45)
001f5c 2e5e      	MOV  R5,R30
                 ;    3616 //			LCD_HideCursor();
                 ;    3617 			return buf2double();
001f5d 940e 1d86 	CALL _buf2double
001f5f 8118      	LDD  R17,Y+0
001f60 c007      	RJMP _0x483
                 ;    3618 		}
                 ;    3619 		if(msg == MSG_REFRESH) {
                 _0x38E:
001f61 3f1e      	CPI  R17,254
001f62 f411      	BRNE _0x38F
                 ;    3620 			draw_label(&databox,SW_NORMAL);
001f63 940e 2d76 	CALL SUBOPT_0xFF
                 ;    3621 //			LCD_ShowCursor(databox.x+pos_databuf*16,databox.y);
                 ;    3622 		}
                 ;    3623 				key = KEY_INVALID;
                 _0x38F:
001f65 e2ed      	LDI  R30,LOW(45)
001f66 2e5e      	MOV  R5,R30
                 ;    3624 	}
001f67 cf49      	RJMP _0x370
                 ;    3625 }
                 _0x483:
001f68 9625      	ADIW R28,5
001f69 9508      	RET
                 ;    3626 //display a message box
                 ;    3627 void wnd_msgbox(flash LABEL *lbl)
                 ;    3628 {
                 _wnd_msgbox:
                 ;    3629 	LCD_ClsBlock(lbl->x - 10,lbl->y - 3,lbl->x + lbl->width * 16 -14 , lbl->y+19);
                 ;	*lbl -> Y+0
001f6a 940e 2d79 	CALL SUBOPT_0x100
001f6c 940e 12a6 	CALL _LCD_ClsBlock
                 ;    3630 	draw_label(lbl, SW_NORMAL);
001f6e 81e8      	LD   R30,Y
001f6f 81f9      	LDD  R31,Y+1
001f70 940e 27ba 	CALL SUBOPT_0x31
                 ;    3631 	LCD_Rectange(lbl->x - 10,lbl->y - 3,lbl->x + lbl->width * 16 -14, lbl->y+19);
001f72 940e 2d79 	CALL SUBOPT_0x100
001f74 940e 12c0 	CALL _LCD_Rectange
                 ;    3632 	LCD_Rectange(lbl->x - 8,lbl->y - 1,lbl->x + lbl->width * 16 - 16 , lbl->y+17);
001f76 940e 2da5 	CALL SUBOPT_0x101
001f78 9738      	SBIW R30,8
001f79 940e 2dab 	CALL SUBOPT_0x102
001f7b 9731      	SBIW R30,1
001f7c 940e 2db2 	CALL SUBOPT_0x103
001f7e 0fae      	ADD  R26,R30
001f7f 1fbf      	ADC  R27,R31
001f80 e1e0      	LDI  R30,LOW(16)
001f81 e0f0      	LDI  R31,HIGH(16)
001f82 940e 3054 	CALL __SWAPW12
001f84 1bea      	SUB  R30,R26
001f85 0bfb      	SBC  R31,R27
001f86 940e 2dc1 	CALL SUBOPT_0x104
001f88 9671      	ADIW R30,17
001f89 93ea      	ST   -Y,R30
001f8a 940e 12c0 	CALL _LCD_Rectange
                 ;    3633 
                 ;    3634 }
001f8c c024      	RJMP _0x482
                 ;    3635 
                 ;    3636 void draw_inputbox(flash LABEL *lbl)
                 ;    3637 {
                 _draw_inputbox:
                 ;    3638 	LCD_ClsBlock(lbl->x - 10,lbl->y - 3,lbl->x + lbl->width * 16 , lbl->y+19);
                 ;	*lbl -> Y+0
001f8d 940e 2da5 	CALL SUBOPT_0x101
001f8f 973a      	SBIW R30,10
001f90 940e 2dab 	CALL SUBOPT_0x102
001f92 9733      	SBIW R30,3
001f93 940e 2db2 	CALL SUBOPT_0x103
001f95 0fea      	ADD  R30,R26
001f96 1ffb      	ADC  R31,R27
001f97 940e 2dc1 	CALL SUBOPT_0x104
001f99 9673      	ADIW R30,19
001f9a 93ea      	ST   -Y,R30
001f9b 940e 12a6 	CALL _LCD_ClsBlock
                 ;    3639 	LCD_Rectange(lbl->x - 10,lbl->y - 3,lbl->x + lbl->width * 16 , lbl->y+19);
001f9d 940e 2da5 	CALL SUBOPT_0x101
001f9f 973a      	SBIW R30,10
001fa0 940e 2dab 	CALL SUBOPT_0x102
001fa2 9733      	SBIW R30,3
001fa3 940e 2db2 	CALL SUBOPT_0x103
001fa5 0fea      	ADD  R30,R26
001fa6 1ffb      	ADC  R31,R27
001fa7 940e 2dc1 	CALL SUBOPT_0x104
001fa9 9673      	ADIW R30,19
001faa 93ea      	ST   -Y,R30
001fab 940e 12c0 	CALL _LCD_Rectange
                 ;    3640 	draw_label(lbl, SW_NORMAL);
001fad 81e8      	LD   R30,Y
001fae 81f9      	LDD  R31,Y+1
001faf 940e 27ba 	CALL SUBOPT_0x31
                 ;    3641 }
                 _0x482:
001fb1 9622      	ADIW R28,2
001fb2 9508      	RET
                 ;    3642 
                 ;    3643 void draw_label(flash LABEL *lbl,uchar reverse) {
                 _draw_label:
                 ;    3644 	uchar len = lbl->width;
                 ;    3645 	if(lbl->type == LBL_HZ6X8) {
001fb3 931a      	ST   -Y,R17
                 ;	*lbl -> Y+2
                 ;	reverse -> Y+1
                 ;	len -> R17
001fb4 81ea      	LDD  R30,Y+2
001fb5 81fb      	LDD  R31,Y+2+1
001fb6 9636      	ADIW R30,6
001fb7 940e 303f 	CALL __GETW1PF
001fb9 2f1e      	MOV  R17,R30
001fba 940e 2dc8 	CALL SUBOPT_0x105
001fbc 9731      	SBIW R30,1
001fbd f509      	BRNE _0x390
                 ;    3646 		if(reverse & SW_NORMAL) {
001fbe 81e9      	LDD  R30,Y+1
001fbf 70e1      	ANDI R30,LOW(0x1)
001fc0 f099      	BREQ _0x391
                 ;    3647 			if((reverse & SW_OVERLAP) == 0)
001fc1 81e9      	LDD  R30,Y+1
001fc2 70e4      	ANDI R30,LOW(0x4)
001fc3 f441      	BRNE _0x392
                 ;    3648 				LCD_ClsBlock( lbl->x, lbl->y, lbl->x + (len<<3), lbl->y + 8);
001fc4 940e 2dcd 	CALL SUBOPT_0x106
001fc6 940e 2dda 	CALL SUBOPT_0x107
001fc8 9638      	ADIW R30,8
001fc9 93ea      	ST   -Y,R30
001fca 940e 12a6 	CALL _LCD_ClsBlock
                 ;    3649 			LCD_Print6X8( lbl->x, lbl->y, lbl->param);
                 _0x392:
001fcc 940e 2dcd 	CALL SUBOPT_0x106
001fce 940e 2dec 	CALL SUBOPT_0x108
001fd0 940e 12f7 	CALL _LCD_Print6X8
                 ;    3650 			return;
001fd2 8118      	LDD  R17,Y+0
001fd3 c077      	RJMP _0x481
                 ;    3651 		}
                 ;    3652 		if(reverse & SW_REVERSE)
                 _0x391:
001fd4 81e9      	LDD  R30,Y+1
001fd5 70e2      	ANDI R30,LOW(0x2)
001fd6 f031      	BREQ _0x393
                 ;    3653 			LCD_ReverseRect(lbl->x, lbl->y, len , 8);
001fd7 940e 2df2 	CALL SUBOPT_0x109
001fd9 e0e8      	LDI  R30,LOW(8)
001fda 93ea      	ST   -Y,R30
001fdb 940e 12bc 	CALL _LCD_ReverseRect
                 ;    3654 		return;
                 _0x393:
001fdd 8118      	LDD  R17,Y+0
001fde c06c      	RJMP _0x481
                 ;    3655 	}
                 ;    3656 	if(lbl->type == LBL_HZ8X16) {
                 _0x390:
001fdf 940e 2dc8 	CALL SUBOPT_0x105
001fe1 9732      	SBIW R30,2
001fe2 f509      	BRNE _0x394
                 ;    3657 		if(reverse & SW_NORMAL) {
001fe3 81e9      	LDD  R30,Y+1
001fe4 70e1      	ANDI R30,LOW(0x1)
001fe5 f099      	BREQ _0x395
                 ;    3658 			if((reverse & SW_OVERLAP) == 0)
001fe6 81e9      	LDD  R30,Y+1
001fe7 70e4      	ANDI R30,LOW(0x4)
001fe8 f441      	BRNE _0x396
                 ;    3659 				LCD_ClsBlock( lbl->x, lbl->y, lbl->x + (len<<3), lbl->y + 16);
001fe9 940e 2dcd 	CALL SUBOPT_0x106
001feb 940e 2dda 	CALL SUBOPT_0x107
001fed 9670      	ADIW R30,16
001fee 93ea      	ST   -Y,R30
001fef 940e 12a6 	CALL _LCD_ClsBlock
                 ;    3660 			LCD_Print8X16( lbl->x, lbl->y, lbl->param);
                 _0x396:
001ff1 940e 2dcd 	CALL SUBOPT_0x106
001ff3 940e 2dec 	CALL SUBOPT_0x108
001ff5 940e 12fb 	CALL _LCD_Print8X16
                 ;    3661 			return;
001ff7 8118      	LDD  R17,Y+0
001ff8 c052      	RJMP _0x481
                 ;    3662 		}
                 ;    3663 		if(reverse & SW_REVERSE)
                 _0x395:
001ff9 81e9      	LDD  R30,Y+1
001ffa 70e2      	ANDI R30,LOW(0x2)
001ffb f031      	BREQ _0x397
                 ;    3664 			LCD_ReverseRect(lbl->x, lbl->y, len * 1, 16);
001ffc 940e 2df2 	CALL SUBOPT_0x109
001ffe e1e0      	LDI  R30,LOW(16)
001fff 93ea      	ST   -Y,R30
002000 940e 12bc 	CALL _LCD_ReverseRect
                 ;    3665 		return;
                 _0x397:
002002 8118      	LDD  R17,Y+0
002003 c047      	RJMP _0x481
                 ;    3666 	}
                 ;    3667 	/*
                 ;    3668 	if(lbl->type == LBL_HZ24X32) {
                 ;    3669 		if(reverse & SW_NORMAL) {
                 ;    3670 			if((reverse & SW_OVERLAP) == 0)
                 ;    3671 				LCD_ClsBlock( lbl->x, lbl->y, lbl->x + len * 24, lbl->y + 32);
                 ;    3672 			LCD_Print24X32( lbl->x, lbl->y, lbl->param);
                 ;    3673 		}
                 ;    3674 		if(reverse & SW_REVERSE)
                 ;    3675 			LCD_ReverseRect(lbl->x, lbl->y, len * 3, 32);
                 ;    3676 		return;
                 ;    3677 	}
                 ;    3678 	*/
                 ;    3679 	if(lbl->type == LBL_HZ12) {
                 _0x394:
002004 940e 2dc8 	CALL SUBOPT_0x105
002006 9734      	SBIW R30,4
002007 f4f9      	BRNE _0x398
                 ;    3680 		if(reverse & SW_NORMAL) {
002008 81e9      	LDD  R30,Y+1
002009 70e1      	ANDI R30,LOW(0x1)
00200a f089      	BREQ _0x399
                 ;    3681 			if((reverse & SW_OVERLAP) == 0)
00200b 81e9      	LDD  R30,Y+1
00200c 70e4      	ANDI R30,LOW(0x4)
00200d f441      	BRNE _0x39A
                 ;    3682 				LCD_ClsBlock( lbl->x, lbl->y, lbl->x + (len<<4), lbl->y + 12);
00200e 940e 2dcd 	CALL SUBOPT_0x106
002010 940e 2dfe 	CALL SUBOPT_0x10A
002012 963c      	ADIW R30,12
002013 93ea      	ST   -Y,R30
002014 940e 12a6 	CALL _LCD_ClsBlock
                 ;    3683 			LCD_PrintHz12( lbl->x, lbl->y, lbl->param);
                 _0x39A:
002016 940e 2dcd 	CALL SUBOPT_0x106
002018 940e 2dec 	CALL SUBOPT_0x108
00201a 940e 12ef 	CALL _LCD_PrintHz12
                 ;    3684 		}
                 ;    3685 		if(reverse & SW_REVERSE)
                 _0x399:
00201c 81e9      	LDD  R30,Y+1
00201d 70e2      	ANDI R30,LOW(0x2)
00201e f031      	BREQ _0x39B
                 ;    3686 			LCD_ReverseRect(lbl->x, lbl->y, len * 2, 12);
00201f 940e 2e0f 	CALL SUBOPT_0x10B
002021 e0ec      	LDI  R30,LOW(12)
002022 93ea      	ST   -Y,R30
002023 940e 12bc 	CALL _LCD_ReverseRect
                 ;    3687 		return;
                 _0x39B:
002025 8118      	LDD  R17,Y+0
002026 c024      	RJMP _0x481
                 ;    3688 	}
                 ;    3689 	if(lbl->type == LBL_HZ16) {
                 _0x398:
002027 940e 2dc8 	CALL SUBOPT_0x105
002029 9735      	SBIW R30,5
00202a f4f9      	BRNE _0x39C
                 ;    3690 		if(reverse & SW_NORMAL) {
00202b 81e9      	LDD  R30,Y+1
00202c 70e1      	ANDI R30,LOW(0x1)
00202d f089      	BREQ _0x39D
                 ;    3691 			if((reverse & SW_OVERLAP) == 0)
00202e 81e9      	LDD  R30,Y+1
00202f 70e4      	ANDI R30,LOW(0x4)
002030 f441      	BRNE _0x39E
                 ;    3692 				LCD_ClsBlock( lbl->x, lbl->y, lbl->x + (len<<4), lbl->y + 16);
002031 940e 2dcd 	CALL SUBOPT_0x106
002033 940e 2dfe 	CALL SUBOPT_0x10A
002035 9670      	ADIW R30,16
002036 93ea      	ST   -Y,R30
002037 940e 12a6 	CALL _LCD_ClsBlock
                 ;    3693 			LCD_PrintHz16( lbl->x, lbl->y, lbl->param);
                 _0x39E:
002039 940e 2dcd 	CALL SUBOPT_0x106
00203b 940e 2dec 	CALL SUBOPT_0x108
00203d 940e 12f3 	CALL _LCD_PrintHz16
                 ;    3694 		}
                 ;    3695 		if(reverse & SW_REVERSE)
                 _0x39D:
00203f 81e9      	LDD  R30,Y+1
002040 70e2      	ANDI R30,LOW(0x2)
002041 f031      	BREQ _0x39F
                 ;    3696 			LCD_ReverseRect(lbl->x, lbl->y, len * 2, 16);
002042 940e 2e0f 	CALL SUBOPT_0x10B
002044 e1e0      	LDI  R30,LOW(16)
002045 93ea      	ST   -Y,R30
002046 940e 12bc 	CALL _LCD_ReverseRect
                 ;    3697 		return;
                 _0x39F:
002048 8118      	LDD  R17,Y+0
002049 c001      	RJMP _0x481
                 ;    3698 	}
                 ;    3699 }
                 _0x39C:
00204a 8118      	LDD  R17,Y+0
                 _0x481:
00204b 9624      	ADIW R28,4
00204c 9508      	RET
                 ;    3700 
                 ;    3701 
                 
                 _getchar:
00204d 9b5f           sbis usr,rxc
00204e cffe           rjmp _getchar
00204f b1ec           in   r30,udr
002050 9508      	RET
                 _putchar:
002051 9b5d           sbis usr,udre
002052 cffe           rjmp _putchar
002053 81e8           ld   r30,y
002054 b9ec           out  udr,r30
002055 9621      	ADIW R28,1
002056 9508      	RET
                 __put_GD:
002057 931a      	ST   -Y,R17
002058 930a      	ST   -Y,R16
002059 81ac      	LDD  R26,Y+4
00205a 81bd      	LDD  R27,Y+4+1
00205b 940e 3030 	CALL __GETW1P
00205d 9730      	SBIW R30,0
00205e f0b9      	BREQ _0x3A0
00205f 81aa      	LDD  R26,Y+2
002060 81bb      	LDD  R27,Y+2+1
002061 940e 3030 	CALL __GETW1P
002063 018f      	MOVW R16,R30
002064 9730      	SBIW R30,0
002065 f049      	BREQ _0x3A2
002066 3002
002067 e0e0
002068 071e      	__CPWRN 16,17,2
002069 f058      	BRLO _0x3A3
00206a 01f8      	MOVW R30,R16
00206b 9731      	SBIW R30,1
00206c 018f      	MOVW R16,R30
00206d 93ed      	ST   X+,R30
00206e 93fc      	ST   X,R31
                 _0x3A2:
00206f 81ac      	LDD  R26,Y+4
002070 81bd      	LDD  R27,Y+4+1
002071 940e 2e1d 	CALL SUBOPT_0x10C
002073 81ae      	LDD  R26,Y+6
002074 83a0      	STD  Z+0,R26
                 _0x3A3:
002075 c004      	RJMP _0x3A4
                 _0x3A0:
002076 81ee      	LDD  R30,Y+6
002077 93ea      	ST   -Y,R30
002078 940e 2051 	CALL _putchar
                 _0x3A4:
00207a 8119      	LDD  R17,Y+1
00207b 8108      	LDD  R16,Y+0
00207c 9627      	ADIW R28,7
00207d 9508      	RET
                 __ftoa_GD:
00207e 9724      	SBIW R28,4
00207f 931a      	ST   -Y,R17
002080 930a      	ST   -Y,R16
002081 85a8      	LDD  R26,Y+8
002082 30a7      	CPI  R26,LOW(0x7)
002083 f010      	BRLO _0x3A5
002084 e0e6      	LDI  R30,LOW(6)
002085 87e8      	STD  Y+8,R30
                 _0x3A5:
002086 85e8      	LDD  R30,Y+8
002087 eaa8      	LDI  R26,LOW(__fround_GD*2)
002088 e0b7      	LDI  R27,HIGH(__fround_GD*2)
002089 e0f0      	LDI  R31,0
00208a 940e 29fe 	CALL SUBOPT_0x7F
00208c 940e 3043 	CALL __GETD1PF
00208e 940e 2e24 	CALL SUBOPT_0x10D
002090 940e 3159 	CALL __ADDF12
002092 940e 2e29 	CALL SUBOPT_0x10E
002094 e010      	LDI  R17,LOW(0)
002095 940e 275e 	CALL SUBOPT_0x26
002097 940e 2998 	CALL SUBOPT_0x6F
                 _0x3A6:
002099 940e 28c8 	CALL SUBOPT_0x53
00209b 940e 2e24 	CALL SUBOPT_0x10D
00209d 940e 323a 	CALL __CMPF12
00209f f040      	BRLO _0x3A8
0020a0 940e 2e2e 	CALL SUBOPT_0x10F
0020a2 940e 31a7 	CALL __MULF12
0020a4 940e 2998 	CALL SUBOPT_0x6F
0020a6 5f1f      	SUBI R17,-LOW(1)
0020a7 cff1      	RJMP _0x3A6
                 _0x3A8:
0020a8 3010      	CPI  R17,0
0020a9 f429      	BRNE _0x3A9
0020aa 940e 2e34 	CALL SUBOPT_0x110
0020ac e3e0      	LDI  R30,LOW(48)
0020ad 93ec      	ST   X,R30
0020ae c022      	RJMP _0x3AA
                 _0x3A9:
                 _0x3AB:
0020af 2fe1      	MOV  R30,R17
0020b0 5011      	SUBI R17,1
0020b1 30e0      	CPI  R30,0
0020b2 f0f1      	BREQ _0x3AD
0020b3 940e 2e2e 	CALL SUBOPT_0x10F
0020b5 940e 2e3b 	CALL SUBOPT_0x111
0020b7 940e 2b6a 	CALL SUBOPT_0xAD
0020b9 940e 2e24 	CALL SUBOPT_0x10D
0020bb 940e 31f5 	CALL __DIVF21
0020bd 940e 30e8 	CALL __CFD1
0020bf 2f0e      	MOV  R16,R30
0020c0 940e 2e34 	CALL SUBOPT_0x110
0020c2 940e 2e47 	CALL SUBOPT_0x112
0020c4 940e 28b2 	CALL SUBOPT_0x4F
0020c6 940e 2e4c 	CALL SUBOPT_0x113
0020c8 940e 31a7 	CALL __MULF12
0020ca 940e 2e24 	CALL SUBOPT_0x10D
0020cc 940e 277b 	CALL SUBOPT_0x2B
0020ce 940e 2e29 	CALL SUBOPT_0x10E
0020d0 cfde      	RJMP _0x3AB
                 _0x3AD:
                 _0x3AA:
0020d1 85e8      	LDD  R30,Y+8
0020d2 30e0      	CPI  R30,0
0020d3 f429      	BRNE _0x3AE
0020d4 81ae      	LDD  R26,Y+6
0020d5 81bf      	LDD  R27,Y+6+1
0020d6 e0e0      	LDI  R30,LOW(0)
0020d7 93ec      	ST   X,R30
0020d8 c027      	RJMP _0x480
                 _0x3AE:
0020d9 940e 2e34 	CALL SUBOPT_0x110
0020db e2ee      	LDI  R30,LOW(46)
0020dc 93ec      	ST   X,R30
                 _0x3AF:
0020dd 85e8      	LDD  R30,Y+8
0020de 50e1      	SUBI R30,LOW(1)
0020df 87e8      	STD  Y+8,R30
0020e0 5fef      	SUBI R30,-LOW(1)
0020e1 f0d1      	BREQ _0x3B1
0020e2 940e 2e24 	CALL SUBOPT_0x10D
0020e4 940e 2e52 	CALL SUBOPT_0x114
0020e6 940e 2e29 	CALL SUBOPT_0x10E
0020e8 85e9
0020e9 85fa
0020ea 856b
0020eb 857c      	__GETD1S 9
0020ec 940e 30e6 	CALL __CFD1U
0020ee 2f0e      	MOV  R16,R30
0020ef 940e 2e34 	CALL SUBOPT_0x110
0020f1 940e 2e47 	CALL SUBOPT_0x112
0020f3 940e 2e24 	CALL SUBOPT_0x10D
0020f5 940e 2e4c 	CALL SUBOPT_0x113
0020f7 940e 277b 	CALL SUBOPT_0x2B
0020f9 940e 2e29 	CALL SUBOPT_0x10E
0020fb cfe1      	RJMP _0x3AF
                 _0x3B1:
0020fc 81ae      	LDD  R26,Y+6
0020fd 81bf      	LDD  R27,Y+6+1
0020fe e0e0      	LDI  R30,LOW(0)
0020ff 93ec      	ST   X,R30
                 _0x480:
002100 8119      	LDD  R17,Y+1
002101 8108      	LDD  R16,Y+0
002102 962d      	ADIW R28,13
002103 9508      	RET
                 __ftoe_GD:
002104 9724      	SBIW R28,4
002105 940e 3273 	CALL __SAVELOCR4
002107 940e 275e 	CALL SUBOPT_0x26
002109 940e 29f9 	CALL SUBOPT_0x7E
00210b 85ab      	LDD  R26,Y+11
00210c 30a7      	CPI  R26,LOW(0x7)
00210d f010      	BRLO _0x3B2
00210e e0e6      	LDI  R30,LOW(6)
00210f 87eb      	STD  Y+11,R30
                 _0x3B2:
002110 851b      	LDD  R17,Y+11
                 _0x3B3:
002111 2fe1      	MOV  R30,R17
002112 5011      	SUBI R17,1
002113 30e0      	CPI  R30,0
002114 f029      	BREQ _0x3B5
002115 940e 2e59 	CALL SUBOPT_0x115
002117 940e 29f9 	CALL SUBOPT_0x7E
002119 cff7      	RJMP _0x3B3
                 _0x3B5:
00211a 940e 2e5e 	CALL SUBOPT_0x116
00211c 940e 325a 	CALL __CPD10
00211e f431      	BRNE _0x3B6
00211f e030      	LDI  R19,LOW(0)
002120 940e 2e59 	CALL SUBOPT_0x115
002122 940e 29f9 	CALL SUBOPT_0x7E
002124 c032      	RJMP _0x3B7
                 _0x3B6:
002125 853b      	LDD  R19,Y+11
002126 940e 2e63 	CALL SUBOPT_0x117
002128 f009      	BREQ PC+2
002129 f410      	BRCC PC+3
00212a 940c 2139 	JMP  _0x3B8
00212c 940e 2e59 	CALL SUBOPT_0x115
00212e 940e 29f9 	CALL SUBOPT_0x7E
                 _0x3B9:
002130 940e 2e63 	CALL SUBOPT_0x117
002132 f028      	BRLO _0x3BB
002133 940e 2e6c 	CALL SUBOPT_0x118
002135 940e 2e71 	CALL SUBOPT_0x119
002137 cff8      	RJMP _0x3B9
                 _0x3BB:
002138 c00d      	RJMP _0x3BC
                 _0x3B8:
                 _0x3BD:
002139 940e 2e63 	CALL SUBOPT_0x117
00213b f430      	BRSH _0x3BF
00213c 940e 2e7d 	CALL SUBOPT_0x11A
00213e 940e 2e7f 	CALL SUBOPT_0x11B
002140 5031      	SUBI R19,LOW(1)
002141 cff7      	RJMP _0x3BD
                 _0x3BF:
002142 940e 2e59 	CALL SUBOPT_0x115
002144 940e 29f9 	CALL SUBOPT_0x7E
                 _0x3BC:
002146 940e 2e5e 	CALL SUBOPT_0x116
002148 e0a0
002149 e0b0
00214a e080
00214b e39f      	__GETD2N 0x3F000000
00214c 940e 3159 	CALL __ADDF12
00214e 940e 2e7f 	CALL SUBOPT_0x11B
002150 940e 2e63 	CALL SUBOPT_0x117
002152 f020      	BRLO _0x3C0
002153 940e 2e6c 	CALL SUBOPT_0x118
002155 940e 2e71 	CALL SUBOPT_0x119
                 _0x3C0:
                 _0x3B7:
002157 e010      	LDI  R17,LOW(0)
                 _0x3C1:
002158 85eb      	LDD  R30,Y+11
002159 17e1      	CP   R30,R17
00215a f160      	BRLO _0x3C3
00215b 940e 2e84 	CALL SUBOPT_0x11C
00215d e0e0
00215e e0f0
00215f e260
002160 e471      	__GETD1N 0x41200000
002161 940e 2e3b 	CALL SUBOPT_0x111
002163 940e 29f9 	CALL SUBOPT_0x7E
002165 940e 2640 	CALL SUBOPT_0x1
002167 940e 2e6c 	CALL SUBOPT_0x118
002169 940e 31f5 	CALL __DIVF21
00216b 940e 30e8 	CALL __CFD1
00216d 2f0e      	MOV  R16,R30
00216e 940e 2e89 	CALL SUBOPT_0x11D
002170 940e 2e47 	CALL SUBOPT_0x112
002172 940e 2e4c 	CALL SUBOPT_0x113
002174 940e 2e84 	CALL SUBOPT_0x11C
002176 940e 31a7 	CALL __MULF12
002178 940e 2e6c 	CALL SUBOPT_0x118
00217a 940e 277b 	CALL SUBOPT_0x2B
00217c 940e 2e7f 	CALL SUBOPT_0x11B
00217e 2fe1      	MOV  R30,R17
00217f 5f1f      	SUBI R17,-1
002180 30e0      	CPI  R30,0
002181 f6b1      	BRNE _0x3C1
002182 940e 2e89 	CALL SUBOPT_0x11D
002184 e2ee      	LDI  R30,LOW(46)
002185 93ec      	ST   X,R30
002186 cfd1      	RJMP _0x3C1
                 _0x3C3:
002187 940e 2c15 	CALL SUBOPT_0xC8
002189 9731      	SBIW R30,1
00218a 85aa      	LDD  R26,Y+10
00218b 83a0      	STD  Z+0,R26
00218c 3030      	CPI  R19,0
00218d f42c      	BRGE _0x3C5
00218e 940e 2e89 	CALL SUBOPT_0x11D
002190 e2ed      	LDI  R30,LOW(45)
002191 93ec      	ST   X,R30
002192 9531      	NEG  R19
                 _0x3C5:
002193 303a      	CPI  R19,10
002194 f05c      	BRLT _0x3C6
002195 940e 2c15 	CALL SUBOPT_0xC8
002197 9731      	SBIW R30,1
002198 01bf      	MOVW R22,R30
002199 2fa3      	MOV  R26,R19
00219a e0ea      	LDI  R30,LOW(10)
00219b 940e 2fb0 	CALL __DIVB21
00219d 5de0      	SUBI R30,-LOW(48)
00219e 01db      	MOVW R26,R22
00219f 93ec      	ST   X,R30
                 _0x3C6:
0021a0 940e 2c15 	CALL SUBOPT_0xC8
0021a2 9731      	SBIW R30,1
0021a3 01bf      	MOVW R22,R30
0021a4 2fa3      	MOV  R26,R19
0021a5 e0ea      	LDI  R30,LOW(10)
0021a6 940e 2fed 	CALL __MODB21
0021a8 5de0      	SUBI R30,-LOW(48)
0021a9 01db      	MOVW R26,R22
0021aa 93ec      	ST   X,R30
0021ab 85a8      	LDD  R26,Y+8
0021ac 85b9      	LDD  R27,Y+8+1
0021ad e0e0      	LDI  R30,LOW(0)
0021ae 93ec      	ST   X,R30
0021af 940e 327a 	CALL __LOADLOCR4
0021b1 9660      	ADIW R28,16
0021b2 9508      	RET
                 __print_GD:
0021b3 97ef      	SBIW R28,63
0021b4 972f      	SBIW R28,15
0021b5 940e 3271 	CALL __SAVELOCR6
0021b7 e010      	LDI  R17,0
0021b8 01fe
0021b9 5aec
0021ba 4fff
0021bb 9001
0021bc 81f0
0021bd 2de0      	__GETW1SX 84
0021be 8be8      	STD  Y+16,R30
0021bf 8bf9      	STD  Y+16+1,R31
                 _0x3C7:
0021c0 01de      	MOVW R26,R28
0021c1 5aa6      	SUBI R26,LOW(-(90))
0021c2 4fbf      	SBCI R27,HIGH(-(90))
0021c3 940e 2e1d 	CALL SUBOPT_0x10C
0021c5 91e4      	LPM  R30,Z
0021c6 2f2e      	MOV  R18,R30
0021c7 30e0      	CPI  R30,0
0021c8 f411      	BRNE PC+3
0021c9 940c 23bb 	JMP _0x3C9
0021cb 2fe1      	MOV  R30,R17
0021cc 30e0      	CPI  R30,0
0021cd f439      	BRNE _0x3CD
0021ce 3225      	CPI  R18,37
0021cf f411      	BRNE _0x3CE
0021d0 e011      	LDI  R17,LOW(1)
0021d1 c002      	RJMP _0x3CF
                 _0x3CE:
0021d2 940e 2e90 	CALL SUBOPT_0x11E
                 _0x3CF:
0021d4 c1e5      	RJMP _0x3CC
                 _0x3CD:
0021d5 30e1      	CPI  R30,LOW(0x1)
0021d6 f4c1      	BRNE _0x3D0
0021d7 3225      	CPI  R18,37
0021d8 f419      	BRNE _0x3D1
0021d9 940e 2e90 	CALL SUBOPT_0x11E
0021db c1dd      	RJMP _0x4BE
                 _0x3D1:
0021dc e012      	LDI  R17,LOW(2)
0021dd e0e0      	LDI  R30,LOW(0)
0021de 8beb      	STD  Y+19,R30
0021df e000      	LDI  R16,LOW(0)
0021e0 322d      	CPI  R18,45
0021e1 f411      	BRNE _0x3D2
0021e2 e001      	LDI  R16,LOW(1)
0021e3 c1d6      	RJMP _0x3CC
                 _0x3D2:
0021e4 322b      	CPI  R18,43
0021e5 f419      	BRNE _0x3D3
0021e6 e2eb      	LDI  R30,LOW(43)
0021e7 8beb      	STD  Y+19,R30
0021e8 c1d1      	RJMP _0x3CC
                 _0x3D3:
0021e9 3220      	CPI  R18,32
0021ea f419      	BRNE _0x3D4
0021eb e2e0      	LDI  R30,LOW(32)
0021ec 8beb      	STD  Y+19,R30
0021ed c1cc      	RJMP _0x3CC
                 _0x3D4:
0021ee c002      	RJMP _0x3D5
                 _0x3D0:
0021ef 30e2      	CPI  R30,LOW(0x2)
0021f0 f439      	BRNE _0x3D6
                 _0x3D5:
0021f1 e050      	LDI  R21,LOW(0)
0021f2 e013      	LDI  R17,LOW(3)
0021f3 3320      	CPI  R18,48
0021f4 f411      	BRNE _0x3D7
0021f5 6800      	ORI  R16,LOW(128)
0021f6 c1c3      	RJMP _0x3CC
                 _0x3D7:
0021f7 c002      	RJMP _0x3D8
                 _0x3D6:
0021f8 30e3      	CPI  R30,LOW(0x3)
0021f9 f4a1      	BRNE _0x3D9
                 _0x3D8:
0021fa 3320      	CPI  R18,48
0021fb f010      	BRLO _0x3DB
0021fc 332a      	CPI  R18,58
0021fd f008      	BRLO _0x3DC
                 _0x3DB:
0021fe c009      	RJMP _0x3DA
                 _0x3DC:
0021ff 2fa5      	MOV  R26,R21
002200 e0ea      	LDI  R30,LOW(10)
002201 9fea      	MUL  R30,R26
002202 01f0      	MOVW R30,R0
002203 2f5e      	MOV  R21,R30
002204 2fe2      	MOV  R30,R18
002205 53e0      	SUBI R30,LOW(48)
002206 0f5e      	ADD  R21,R30
002207 c1b2      	RJMP _0x3CC
                 _0x3DA:
002208 e040      	LDI  R20,LOW(0)
002209 322e      	CPI  R18,46
00220a f411      	BRNE _0x3DD
00220b e014      	LDI  R17,LOW(4)
00220c c1ad      	RJMP _0x3CC
                 _0x3DD:
00220d c011      	RJMP _0x3DE
                 _0x3D9:
00220e 30e4      	CPI  R30,LOW(0x4)
00220f f4a9      	BRNE _0x3E0
002210 3320      	CPI  R18,48
002211 f010      	BRLO _0x3E2
002212 332a      	CPI  R18,58
002213 f008      	BRLO _0x3E3
                 _0x3E2:
002214 c00a      	RJMP _0x3E1
                 _0x3E3:
002215 6200      	ORI  R16,LOW(32)
002216 2fa4      	MOV  R26,R20
002217 e0ea      	LDI  R30,LOW(10)
002218 9fea      	MUL  R30,R26
002219 01f0      	MOVW R30,R0
00221a 2f4e      	MOV  R20,R30
00221b 2fe2      	MOV  R30,R18
00221c 53e0      	SUBI R30,LOW(48)
00221d 0f4e      	ADD  R20,R30
00221e c19b      	RJMP _0x3CC
                 _0x3E1:
                 _0x3DE:
00221f 362c      	CPI  R18,108
002220 f419      	BRNE _0x3E4
002221 6002      	ORI  R16,LOW(2)
002222 e015      	LDI  R17,LOW(5)
002223 c196      	RJMP _0x3CC
                 _0x3E4:
002224 c004      	RJMP _0x3E5
                 _0x3E0:
002225 30e5      	CPI  R30,LOW(0x5)
002226 f011      	BREQ PC+3
002227 940c 23ba 	JMP _0x3CC
                 _0x3E5:
002229 2fe2      	MOV  R30,R18
00222a 36e3      	CPI  R30,LOW(0x63)
00222b f431      	BRNE _0x3EA
00222c 940e 2e9f 	CALL SUBOPT_0x11F
00222e 81e4      	LDD  R30,Z+4
00222f 940e 2ea8 	CALL SUBOPT_0x120
002231 c187      	RJMP _0x3EB
                 _0x3EA:
002232 34e5      	CPI  R30,LOW(0x45)
002233 f011      	BREQ _0x3EE
002234 36e5      	CPI  R30,LOW(0x65)
002235 f409      	BRNE _0x3EF
                 _0x3EE:
002236 c004      	RJMP _0x3F0
                 _0x3EF:
002237 36e6      	CPI  R30,LOW(0x66)
002238 f011      	BREQ PC+3
002239 940c 227f 	JMP _0x3F1
                 _0x3F0:
00223b 01fe      	MOVW R30,R28
00223c 9674      	ADIW R30,20
00223d 87ea      	STD  Y+10,R30
00223e 87fb      	STD  Y+10+1,R31
00223f 940e 2e9f 	CALL SUBOPT_0x11F
002241 9634      	ADIW R30,4
002242 01df      	MOVW R26,R30
002243 940e 3034 	CALL __GETD1P
002245 940e 291f 	CALL SUBOPT_0x5E
002247 01df      	MOVW R26,R30
002248 01cb      	MOVW R24,R22
002249 940e 3262 	CALL __CPD20
00224b f024      	BRLT _0x3F2
00224c 89ab      	LDD  R26,Y+19
00224d 32ab      	CPI  R26,LOW(0x2B)
00224e f049      	BREQ _0x3F4
00224f c012      	RJMP _0x3F5
                 _0x3F2:
002250 940e 28c3 	CALL SUBOPT_0x52
002252 940e 30b3 	CALL __ANEGF1
002254 940e 291f 	CALL SUBOPT_0x5E
002256 e2ed      	LDI  R30,LOW(45)
002257 8beb      	STD  Y+19,R30
                 _0x3F4:
002258 ff07      	SBRS R16,7
002259 c004      	RJMP _0x3F6
00225a 89eb      	LDD  R30,Y+19
00225b 940e 2ea8 	CALL SUBOPT_0x120
00225d c004      	RJMP _0x3F7
                 _0x3F6:
00225e 940e 2eb7 	CALL SUBOPT_0x121
002260 89ab      	LDD  R26,Y+19
002261 83a0      	STD  Z+0,R26
                 _0x3F7:
                 _0x3F5:
002262 ff05      	SBRS R16,5
002263 e046      	LDI  R20,LOW(6)
002264 3626      	CPI  R18,102
002265 f451      	BRNE _0x3F9
002266 940e 2938 	CALL SUBOPT_0x62
002268 934a      	ST   -Y,R20
002269 85ef      	LDD  R30,Y+15
00226a 89f8      	LDD  R31,Y+15+1
00226b 93fa      	ST   -Y,R31
00226c 93ea      	ST   -Y,R30
00226d 940e 207e 	CALL __ftoa_GD
00226f c00a      	RJMP _0x3FA
                 _0x3F9:
002270 940e 2938 	CALL SUBOPT_0x62
002272 934a      	ST   -Y,R20
002273 932a      	ST   -Y,R18
002274 89e8      	LDD  R30,Y+16
002275 89f9      	LDD  R31,Y+16+1
002276 93fa      	ST   -Y,R31
002277 93ea      	ST   -Y,R30
002278 940e 2104 	CALL __ftoe_GD
                 _0x3FA:
00227a 01fe      	MOVW R30,R28
00227b 9674      	ADIW R30,20
00227c 940e 2ebe 	CALL SUBOPT_0x122
00227e c01e      	RJMP _0x3FB
                 _0x3F1:
00227f 37e3      	CPI  R30,LOW(0x73)
002280 f439      	BRNE _0x3FD
002281 940e 2e9f 	CALL SUBOPT_0x11F
002283 940e 2ec6 	CALL SUBOPT_0x123
002285 940e 2ebe 	CALL SUBOPT_0x122
002287 c00e      	RJMP _0x3FE
                 _0x3FD:
002288 37e0      	CPI  R30,LOW(0x70)
002289 f4c1      	BRNE _0x400
00228a 940e 2e9f 	CALL SUBOPT_0x11F
00228c 940e 2ec6 	CALL SUBOPT_0x123
00228e 87ea      	STD  Y+10,R30
00228f 87fb      	STD  Y+10+1,R31
002290 93fa      	ST   -Y,R31
002291 93ea      	ST   -Y,R30
002292 940e 2f08 	CALL _strlenf
002294 2f1e      	MOV  R17,R30
002295 6008      	ORI  R16,LOW(8)
                 _0x3FE:
002296 770f      	ANDI R16,LOW(127)
002297 3040      	CPI  R20,0
002298 f011      	BREQ _0x402
002299 1741      	CP   R20,R17
00229a f008      	BRLO _0x403
                 _0x402:
00229b c001      	RJMP _0x401
                 _0x403:
00229c 2f14      	MOV  R17,R20
                 _0x401:
                 _0x3FB:
00229d e040      	LDI  R20,LOW(0)
00229e e0e0      	LDI  R30,LOW(0)
00229f 8bea      	STD  Y+18,R30
0022a0 e030      	LDI  R19,LOW(0)
0022a1 c06f      	RJMP _0x404
                 _0x400:
0022a2 36e4      	CPI  R30,LOW(0x64)
0022a3 f011      	BREQ _0x407
0022a4 36e9      	CPI  R30,LOW(0x69)
0022a5 f411      	BRNE _0x408
                 _0x407:
0022a6 6004      	ORI  R16,LOW(4)
0022a7 c002      	RJMP _0x409
                 _0x408:
0022a8 37e5      	CPI  R30,LOW(0x75)
0022a9 f4a1      	BRNE _0x40A
                 _0x409:
0022aa e0ea      	LDI  R30,LOW(10)
0022ab 8bea      	STD  Y+18,R30
0022ac ff01      	SBRS R16,1
0022ad c008      	RJMP _0x40B
0022ae e0e0
0022af ecfa
0022b0 e96a
0022b1 e37b      	__GETD1N 0x3B9ACA00
0022b2 940e 2e7f 	CALL SUBOPT_0x11B
0022b4 e01a      	LDI  R17,LOW(10)
0022b5 c023      	RJMP _0x40C
                 _0x40B:
0022b6 e1e0
0022b7 e2f7
0022b8 e060
0022b9 e070      	__GETD1N 0x2710
0022ba 940e 2e7f 	CALL SUBOPT_0x11B
0022bc e015      	LDI  R17,LOW(5)
0022bd c01b      	RJMP _0x40C
                 _0x40A:
0022be 35e8      	CPI  R30,LOW(0x58)
0022bf f411      	BRNE _0x40E
0022c0 6008      	ORI  R16,LOW(8)
0022c1 c004      	RJMP _0x40F
                 _0x40E:
0022c2 37e8      	CPI  R30,LOW(0x78)
0022c3 f011      	BREQ PC+3
0022c4 940c 23b9 	JMP _0x44D
                 _0x40F:
0022c6 e1e0      	LDI  R30,LOW(16)
0022c7 8bea      	STD  Y+18,R30
0022c8 ff01      	SBRS R16,1
0022c9 c008      	RJMP _0x411
0022ca e0e0
0022cb e0f0
0022cc e060
0022cd e170      	__GETD1N 0x10000000
0022ce 940e 2e7f 	CALL SUBOPT_0x11B
0022d0 e018      	LDI  R17,LOW(8)
0022d1 c007      	RJMP _0x40C
                 _0x411:
0022d2 e0e0
0022d3 e1f0
0022d4 e060
0022d5 e070      	__GETD1N 0x1000
0022d6 940e 2e7f 	CALL SUBOPT_0x11B
0022d8 e014      	LDI  R17,LOW(4)
                 _0x40C:
0022d9 3040      	CPI  R20,0
0022da f011      	BREQ _0x412
0022db 770f      	ANDI R16,LOW(127)
0022dc c001      	RJMP _0x413
                 _0x412:
0022dd e041      	LDI  R20,LOW(1)
                 _0x413:
0022de ff01      	SBRS R16,1
0022df c007      	RJMP _0x414
0022e0 940e 2e9f 	CALL SUBOPT_0x11F
0022e2 9634      	ADIW R30,4
0022e3 01df      	MOVW R26,R30
0022e4 940e 3034 	CALL __GETD1P
0022e6 c00f      	RJMP _0x4BF
                 _0x414:
0022e7 ff02      	SBRS R16,2
0022e8 c007      	RJMP _0x416
0022e9 940e 2e9f 	CALL SUBOPT_0x11F
0022eb 940e 2ec6 	CALL SUBOPT_0x123
0022ed 940e 2f6b 	CALL __CWD1
0022ef c006      	RJMP _0x4BF
                 _0x416:
0022f0 940e 2e9f 	CALL SUBOPT_0x11F
0022f2 940e 2ec6 	CALL SUBOPT_0x123
0022f4 2766      	CLR  R22
0022f5 2777      	CLR  R23
                 _0x4BF:
0022f6 83ee
0022f7 83ff
0022f8 8768
0022f9 8779      	__PUTD1S 6
0022fa ff02      	SBRS R16,2
0022fb c014      	RJMP _0x418
0022fc 940e 28be 	CALL SUBOPT_0x51
0022fe 940e 3262 	CALL __CPD20
002300 f444      	BRGE _0x419
002301 940e 28c3 	CALL SUBOPT_0x52
002303 940e 2f53 	CALL __ANEGD1
002305 940e 291f 	CALL SUBOPT_0x5E
002307 e2ed      	LDI  R30,LOW(45)
002308 8beb      	STD  Y+19,R30
                 _0x419:
002309 89eb      	LDD  R30,Y+19
00230a 30e0      	CPI  R30,0
00230b f019      	BREQ _0x41A
00230c 5f1f      	SUBI R17,-LOW(1)
00230d 5f4f      	SUBI R20,-LOW(1)
00230e c001      	RJMP _0x41B
                 _0x41A:
00230f 7f0b      	ANDI R16,LOW(251)
                 _0x41B:
                 _0x418:
002310 2f34      	MOV  R19,R20
                 _0x404:
002311 fd00      	SBRC R16,0
002312 c014      	RJMP _0x41C
                 _0x41D:
002313 1715      	CP   R17,R21
002314 f410      	BRSH _0x420
002315 1735      	CP   R19,R21
002316 f008      	BRLO _0x421
                 _0x420:
002317 c00f      	RJMP _0x41F
                 _0x421:
002318 ff07      	SBRS R16,7
002319 c008      	RJMP _0x422
00231a ff02      	SBRS R16,2
00231b c004      	RJMP _0x423
00231c 7f0b      	ANDI R16,LOW(251)
00231d 892b      	LDD  R18,Y+19
00231e 5011      	SUBI R17,LOW(1)
00231f c001      	RJMP _0x424
                 _0x423:
002320 e320      	LDI  R18,LOW(48)
                 _0x424:
002321 c001      	RJMP _0x425
                 _0x422:
002322 e220      	LDI  R18,LOW(32)
                 _0x425:
002323 940e 2e90 	CALL SUBOPT_0x11E
002325 5051      	SUBI R21,LOW(1)
002326 cfec      	RJMP _0x41D
                 _0x41F:
                 _0x41C:
                 _0x426:
002327 1714      	CP   R17,R20
002328 f488      	BRSH _0x428
002329 6100      	ORI  R16,LOW(16)
00232a ff02      	SBRS R16,2
00232b c006      	RJMP _0x429
00232c 940e 2ecb 	CALL SUBOPT_0x124
00232e f009      	BREQ _0x42A
00232f 5051      	SUBI R21,LOW(1)
                 _0x42A:
002330 5011      	SUBI R17,LOW(1)
002331 5041      	SUBI R20,LOW(1)
                 _0x429:
002332 e3e0      	LDI  R30,LOW(48)
002333 940e 2ea8 	CALL SUBOPT_0x120
002335 3050      	CPI  R21,0
002336 f009      	BREQ _0x42B
002337 5051      	SUBI R21,LOW(1)
                 _0x42B:
002338 5041      	SUBI R20,LOW(1)
002339 cfed      	RJMP _0x426
                 _0x428:
00233a 2f31      	MOV  R19,R17
00233b 89ea      	LDD  R30,Y+18
00233c 30e0      	CPI  R30,0
00233d f511      	BRNE _0x42C
                 _0x42D:
00233e 3030      	CPI  R19,0
00233f f0f9      	BREQ _0x42F
002340 ff03      	SBRS R16,3
002341 c004      	RJMP _0x430
002342 940e 2eb7 	CALL SUBOPT_0x121
002344 91e4      	LPM  R30,Z
002345 c005      	RJMP _0x4C0
                 _0x430:
002346 85aa      	LDD  R26,Y+10
002347 85bb      	LDD  R27,Y+10+1
002348 91ed      	LD   R30,X+
002349 87aa      	STD  Y+10,R26
00234a 87bb      	STD  Y+10+1,R27
                 _0x4C0:
00234b 93ea      	ST   -Y,R30
00234c 01fe
00234d 5ae9
00234e 4fff
00234f 9001
002350 81f0
002351 2de0      	__GETW1SX 87
002352 93fa      	ST   -Y,R31
002353 93ea      	ST   -Y,R30
002354 01fe      	MOVW R30,R28
002355 9673      	ADIW R30,19
002356 93fa      	ST   -Y,R31
002357 93ea      	ST   -Y,R30
002358 940e 2057 	CALL __put_GD
00235a 3050      	CPI  R21,0
00235b f009      	BREQ _0x432
00235c 5051      	SUBI R21,LOW(1)
                 _0x432:
00235d 5031      	SUBI R19,LOW(1)
00235e cfdf      	RJMP _0x42D
                 _0x42F:
00235f c050      	RJMP _0x433
                 _0x42C:
                 _0x435:
002360 940e 2e5e 	CALL SUBOPT_0x116
002362 940e 28be 	CALL SUBOPT_0x51
002364 940e 2fc8 	CALL __DIVD21U
002366 2f2e      	MOV  R18,R30
002367 302a      	CPI  R18,10
002368 f030      	BRLO _0x437
002369 ff03      	SBRS R16,3
00236a c002      	RJMP _0x438
00236b 5c29      	SUBI R18,-LOW(55)
00236c c001      	RJMP _0x439
                 _0x438:
00236d 5a29      	SUBI R18,-LOW(87)
                 _0x439:
00236e c001      	RJMP _0x43A
                 _0x437:
00236f 5d20      	SUBI R18,-LOW(48)
                 _0x43A:
002370 fd04      	SBRC R16,4
002371 c020      	RJMP _0x43C
002372 3321      	CPI  R18,49
002373 f450      	BRSH _0x43E
002374 940e 2e6c 	CALL SUBOPT_0x118
002376 30a1
002377 e0e0
002378 07be
002379 e0e0
00237a 078e
00237b e0e0
00237c 079e      	__CPD2N 0x1
00237d f409      	BRNE _0x43D
                 _0x43E:
00237e c00c      	RJMP _0x440
                 _0x43D:
00237f 1743      	CP   R20,R19
002380 f008      	BRLO _0x441
002381 c008      	RJMP _0x4C1
                 _0x441:
002382 1753      	CP   R21,R19
002383 f010      	BRLO _0x443
002384 ff00      	SBRS R16,0
002385 c001      	RJMP _0x444
                 _0x443:
002386 c010      	RJMP _0x442
                 _0x444:
002387 e220      	LDI  R18,LOW(32)
002388 ff07      	SBRS R16,7
002389 c008      	RJMP _0x445
                 _0x4C1:
00238a e320      	LDI  R18,LOW(48)
                 _0x440:
00238b 6100      	ORI  R16,LOW(16)
00238c ff02      	SBRS R16,2
00238d c004      	RJMP _0x446
00238e 940e 2ecb 	CALL SUBOPT_0x124
002390 f009      	BREQ _0x447
002391 5051      	SUBI R21,LOW(1)
                 _0x447:
                 _0x446:
                 _0x445:
                 _0x43C:
002392 940e 2e90 	CALL SUBOPT_0x11E
002394 3050      	CPI  R21,0
002395 f009      	BREQ _0x448
002396 5051      	SUBI R21,LOW(1)
                 _0x448:
                 _0x442:
002397 5031      	SUBI R19,LOW(1)
002398 940e 2e5e 	CALL SUBOPT_0x116
00239a 940e 28be 	CALL SUBOPT_0x51
00239c 940e 300d 	CALL __MODD21U
00239e 940e 291f 	CALL SUBOPT_0x5E
0023a0 89ea      	LDD  R30,Y+18
0023a1 940e 2e6c 	CALL SUBOPT_0x118
0023a3 27ff      	CLR  R31
0023a4 2766      	CLR  R22
0023a5 2777      	CLR  R23
0023a6 940e 2fc8 	CALL __DIVD21U
0023a8 940e 2e7f 	CALL SUBOPT_0x11B
0023aa 940e 2e5e 	CALL SUBOPT_0x116
0023ac 940e 325a 	CALL __CPD10
0023ae f009      	BREQ _0x436
0023af cfb0      	RJMP _0x435
                 _0x436:
                 _0x433:
0023b0 ff00      	SBRS R16,0
0023b1 c007      	RJMP _0x449
                 _0x44A:
0023b2 3050      	CPI  R21,0
0023b3 f029      	BREQ _0x44C
0023b4 5051      	SUBI R21,LOW(1)
0023b5 e2e0      	LDI  R30,LOW(32)
0023b6 940e 2ea8 	CALL SUBOPT_0x120
0023b8 cff9      	RJMP _0x44A
                 _0x44C:
                 _0x449:
                 _0x44D:
                 _0x3EB:
                 _0x4BE:
0023b9 e010      	LDI  R17,LOW(0)
                 _0x3CC:
0023ba ce05      	RJMP _0x3C7
                 _0x3C9:
0023bb 940e 3278 	CALL __LOADLOCR6
0023bd 96ef      	ADIW R28,63
0023be 966d      	ADIW R28,29
0023bf 9508      	RET
                 _sprintf:
0023c0 92ff      	PUSH R15
0023c1 2ef8      	MOV  R15,R24
0023c2 9722      	SBIW R28,2
0023c3 931a      	ST   -Y,R17
0023c4 930a      	ST   -Y,R16
0023c5 01de      	MOVW R26,R28
0023c6 940e 2f4b 	CALL __ADDW2R15
0023c8 018d      	MOVW R16,R26
0023c9 01de      	MOVW R26,R28
0023ca 9616      	ADIW R26,6
0023cb 940e 2f4b 	CALL __ADDW2R15
0023cd 940e 3030 	CALL __GETW1P
0023cf 83ea      	STD  Y+2,R30
0023d0 83fb      	STD  Y+2+1,R31
0023d1 01de      	MOVW R26,R28
0023d2 9614      	ADIW R26,4
0023d3 940e 2f4b 	CALL __ADDW2R15
0023d5 940e 3030 	CALL __GETW1P
0023d7 93fa      	ST   -Y,R31
0023d8 93ea      	ST   -Y,R30
0023d9 931a      	ST   -Y,R17
0023da 930a      	ST   -Y,R16
0023db 01fe      	MOVW R30,R28
0023dc 9636      	ADIW R30,6
0023dd 93fa      	ST   -Y,R31
0023de 93ea      	ST   -Y,R30
0023df e0e0      	LDI  R30,LOW(0)
0023e0 e0f0      	LDI  R31,HIGH(0)
0023e1 93fa      	ST   -Y,R31
0023e2 93ea      	ST   -Y,R30
0023e3 940e 21b3 	CALL __print_GD
0023e5 81aa      	LDD  R26,Y+2
0023e6 81bb      	LDD  R27,Y+2+1
0023e7 e0e0      	LDI  R30,LOW(0)
0023e8 93ec      	ST   X,R30
0023e9 8119      	LDD  R17,Y+1
0023ea 8108      	LDD  R16,Y+0
0023eb 9624      	ADIW R28,4
0023ec 90ff      	POP  R15
0023ed 9508      	RET
                 _atoi:
0023ee 81b9         	ldd  r27,y+1
0023ef 81a8         	ld   r26,y
                 __atoi0:
0023f0 91ec         	ld   r30,x
0023f1 93ea      	ST   -Y,R30
0023f2 940e 2ef4 	CALL _isspace
0023f4 23ee         	tst  r30
0023f5 f011         	breq __atoi1
0023f6 9611         	adiw r26,1
0023f7 cff8         	rjmp __atoi0
                 __atoi1:
0023f8 94e8         	clt
0023f9 91ec         	ld   r30,x
0023fa 32ed         	cpi  r30,'-'
0023fb f411         	brne __atoi2
0023fc 9468         	set
0023fd c002         	rjmp __atoi3
                 __atoi2:
0023fe 32eb         	cpi  r30,'+'
0023ff f409         	brne __atoi4
                 __atoi3:
002400 9611         	adiw r26,1
                 __atoi4:
002401 2766         	clr  r22
002402 2777         	clr  r23
                 __atoi5:
002403 91ec         	ld   r30,x
002404 93ea      	ST   -Y,R30
002405 940e 2eec 	CALL _isdigit
002407 23ee         	tst  r30
002408 f081         	breq __atoi6
002409 2fe6         	mov  r30,r22
00240a 2ff7         	mov  r31,r23
00240b 0f66         	lsl  r22
00240c 1f77         	rol  r23
00240d 0f66         	lsl  r22
00240e 1f77         	rol  r23
00240f 0f6e         	add  r22,r30
002410 1f7f         	adc  r23,r31
002411 0f66         	lsl  r22
002412 1f77         	rol  r23
002413 91ed         	ld   r30,x+
002414 27ff         	clr  r31
002415 53e0         	subi r30,'0'
002416 0f6e         	add  r22,r30
002417 1f7f         	adc  r23,r31
002418 cfea         	rjmp __atoi5
                 __atoi6:
002419 2fe6         	mov  r30,r22
00241a 2ff7         	mov  r31,r23
00241b f41e         	brtc __atoi7
00241c 95e0         	com  r30
00241d 95f0         	com  r31
00241e 9631         	adiw r30,1
                 __atoi7:
00241f 9622         	adiw r28,2
002420 9508         	ret
                 _atof:
002421 972a      	SBIW R28,10
002422 940e 3271 	CALL __SAVELOCR6
002424 e0e0
002425 87e8
002426 87e9
002427 87ea
002428 87eb      	__CLRD1S 8
                 _0x44E:
002429 89a8      	LDD  R26,Y+16
00242a 89b9      	LDD  R27,Y+16+1
00242b 91ec      	LD   R30,X
00242c 2f5e      	MOV  R21,R30
00242d 93ea      	ST   -Y,R30
00242e 940e 2ef4 	CALL _isspace
002430 30e0      	CPI  R30,0
002431 f031      	BREQ _0x450
002432 89e8      	LDD  R30,Y+16
002433 89f9      	LDD  R31,Y+16+1
002434 9631      	ADIW R30,1
002435 8be8      	STD  Y+16,R30
002436 8bf9      	STD  Y+16+1,R31
002437 cff1      	RJMP _0x44E
                 _0x450:
002438 e0e0      	LDI  R30,LOW(0)
002439 83ef      	STD  Y+7,R30
00243a 325b      	CPI  R21,43
00243b f409      	BRNE _0x451
00243c c004      	RJMP _0x4C2
                 _0x451:
00243d 325d      	CPI  R21,45
00243e f439      	BRNE _0x453
00243f e0e1      	LDI  R30,LOW(1)
002440 83ef      	STD  Y+7,R30
                 _0x4C2:
002441 89e8      	LDD  R30,Y+16
002442 89f9      	LDD  R31,Y+16+1
002443 9631      	ADIW R30,1
002444 8be8      	STD  Y+16,R30
002445 8bf9      	STD  Y+16+1,R31
                 _0x453:
002446 e0e0      	LDI  R30,LOW(0)
002447 2f4e      	MOV  R20,R30
002448 2f5e      	MOV  R21,R30
002449 8908
00244a 8919      	__GETWRS 16,17,16
                 _0x454:
00244b 89a8      	LDD  R26,Y+16
00244c 89b9      	LDD  R27,Y+16+1
00244d 91ec      	LD   R30,X
00244e 93ea      	ST   -Y,R30
00244f 940e 2eec 	CALL _isdigit
002451 30e0      	CPI  R30,0
002452 f449      	BRNE _0x457
002453 89a8      	LDD  R26,Y+16
002454 89b9      	LDD  R27,Y+16+1
002455 91ac      	LD   R26,X
002456 e2ee      	LDI  R30,LOW(46)
002457 940e 2f70 	CALL __EQB12
002459 2f5e      	MOV  R21,R30
00245a 30e0      	CPI  R30,0
00245b f039      	BREQ _0x456
                 _0x457:
00245c 2b45      	OR   R20,R21
00245d 89e8      	LDD  R30,Y+16
00245e 89f9      	LDD  R31,Y+16+1
00245f 9631      	ADIW R30,1
002460 8be8      	STD  Y+16,R30
002461 8bf9      	STD  Y+16+1,R31
002462 cfe8      	RJMP _0x454
                 _0x456:
002463 8928
002464 8939      	__GETWRS 18,19,16
002465 3040      	CPI  R20,0
002466 f111      	BREQ _0x459
002467 89e8      	LDD  R30,Y+16
002468 89f9      	LDD  R31,Y+16+1
002469 9731      	SBIW R30,1
00246a 8be8      	STD  Y+16,R30
00246b 8bf9      	STD  Y+16+1,R31
                 _0x45A:
00246c 89a8      	LDD  R26,Y+16
00246d 89b9      	LDD  R27,Y+16+1
00246e 91ac      	LD   R26,X
00246f 32ae      	CPI  R26,LOW(0x2E)
002470 f0c1      	BREQ _0x45C
002471 89a8      	LDD  R26,Y+16
002472 89b9      	LDD  R27,Y+16+1
002473 91ec      	LD   R30,X
002474 53e0      	SUBI R30,LOW(48)
002475 940e 2edf 	CALL SUBOPT_0x125
002477 940e 2e4c 	CALL SUBOPT_0x113
002479 940e 2948 	CALL SUBOPT_0x65
00247b e0e0
00247c e0f0
00247d e260
00247e e471      	__GETD1N 0x41200000
00247f 940e 31f5 	CALL __DIVF21
002481 940e 29e0 	CALL SUBOPT_0x7A
002483 89e8      	LDD  R30,Y+16
002484 89f9      	LDD  R31,Y+16+1
002485 9731      	SBIW R30,1
002486 8be8      	STD  Y+16,R30
002487 8bf9      	STD  Y+16+1,R31
002488 cfe3      	RJMP _0x45A
                 _0x45C:
                 _0x459:
002489 940e 275e 	CALL SUBOPT_0x26
00248b 940e 2e7f 	CALL SUBOPT_0x11B
                 _0x45D:
00248d 89a8      	LDD  R26,Y+16
00248e 89b9      	LDD  R27,Y+16+1
00248f 9711      	SBIW R26,1
002490 8ba8      	STD  Y+16,R26
002491 8bb9      	STD  Y+16+1,R27
002492 17a0      	CP   R26,R16
002493 07b1      	CPC  R27,R17
002494 f068      	BRLO _0x45F
002495 91ec      	LD   R30,X
002496 53e0      	SUBI R30,LOW(48)
002497 940e 2e6c 	CALL SUBOPT_0x118
002499 940e 2e4c 	CALL SUBOPT_0x113
00249b 940e 29f0 	CALL SUBOPT_0x7D
00249d 940e 2e7d 	CALL SUBOPT_0x11A
00249f 940e 2e7f 	CALL SUBOPT_0x11B
0024a1 cfeb      	RJMP _0x45D
                 _0x45F:
0024a2 01d9      	MOVW R26,R18
0024a3 5f2f
0024a4 4f3f      	__ADDWRN 18,19,1
0024a5 915c      	LD   R21,X
0024a6 3655      	CPI  R21,101
0024a7 f019      	BREQ _0x461
0024a8 3455      	CPI  R21,69
0024a9 f009      	BREQ _0x461
0024aa c05b      	RJMP _0x460
                 _0x461:
0024ab e0e0      	LDI  R30,LOW(0)
0024ac 2f4e      	MOV  R20,R30
0024ad 83ee      	STD  Y+6,R30
0024ae 01d9      	MOVW R26,R18
0024af 915c      	LD   R21,X
0024b0 325b      	CPI  R21,43
0024b1 f409      	BRNE _0x463
0024b2 c004      	RJMP _0x4C3
                 _0x463:
0024b3 325d      	CPI  R21,45
0024b4 f421      	BRNE _0x465
0024b5 e0e1      	LDI  R30,LOW(1)
0024b6 83ee      	STD  Y+6,R30
                 _0x4C3:
0024b7 5f2f
0024b8 4f3f      	__ADDWRN 18,19,1
                 _0x465:
                 _0x466:
0024b9 01d9      	MOVW R26,R18
0024ba 5f2f
0024bb 4f3f      	__ADDWRN 18,19,1
0024bc 91ec      	LD   R30,X
0024bd 2f5e      	MOV  R21,R30
0024be 93ea      	ST   -Y,R30
0024bf 940e 2eec 	CALL _isdigit
0024c1 30e0      	CPI  R30,0
0024c2 f041      	BREQ _0x468
0024c3 2fa4      	MOV  R26,R20
0024c4 e0ea      	LDI  R30,LOW(10)
0024c5 9fea      	MUL  R30,R26
0024c6 01f0      	MOVW R30,R0
0024c7 0fe5      	ADD  R30,R21
0024c8 53e0      	SUBI R30,LOW(48)
0024c9 2f4e      	MOV  R20,R30
0024ca cfee      	RJMP _0x466
                 _0x468:
0024cb 3247      	CPI  R20,39
0024cc f068      	BRLO _0x469
0024cd 81ef      	LDD  R30,Y+7
0024ce 30e0      	CPI  R30,0
0024cf f029      	BREQ _0x46A
0024d0 efef
0024d1 efff
0024d2 e76f
0024d3 ef7f      	__GETD1N 0xFF7FFFFF
0024d4 c03a      	RJMP _0x47F
                 _0x46A:
0024d5 efef
0024d6 efff
0024d7 e76f
0024d8 e77f      	__GETD1N 0x7F7FFFFF
0024d9 c035      	RJMP _0x47F
                 _0x469:
0024da e250      	LDI  R21,LOW(32)
0024db 940e 275e 	CALL SUBOPT_0x26
0024dd 940e 2e7f 	CALL SUBOPT_0x11B
                 _0x46B:
0024df 3050      	CPI  R21,0
0024e0 f089      	BREQ _0x46D
0024e1 940e 2e5e 	CALL SUBOPT_0x116
0024e3 940e 2e6c 	CALL SUBOPT_0x118
0024e5 940e 31a7 	CALL __MULF12
0024e7 940e 2e7f 	CALL SUBOPT_0x11B
0024e9 2fe4      	MOV  R30,R20
0024ea 23e5      	AND  R30,R21
0024eb f021      	BREQ _0x46E
0024ec 940e 2e7d 	CALL SUBOPT_0x11A
0024ee 940e 2e7f 	CALL SUBOPT_0x11B
                 _0x46E:
0024f0 9556      	LSR  R21
0024f1 cfed      	RJMP _0x46B
                 _0x46D:
0024f2 81ee      	LDD  R30,Y+6
0024f3 30e0      	CPI  R30,0
0024f4 f039      	BREQ _0x46F
0024f5 940e 2e5e 	CALL SUBOPT_0x116
0024f7 940e 2edf 	CALL SUBOPT_0x125
0024f9 940e 31f5 	CALL __DIVF21
0024fb c006      	RJMP _0x4C4
                 _0x46F:
0024fc 940e 2e5e 	CALL SUBOPT_0x116
0024fe 940e 2edf 	CALL SUBOPT_0x125
002500 940e 31a7 	CALL __MULF12
                 _0x4C4:
002502 87e8
002503 87f9
002504 876a
002505 877b      	__PUTD1S 8
                 _0x460:
002506 81ef      	LDD  R30,Y+7
002507 30e0      	CPI  R30,0
002508 f021      	BREQ _0x471
002509 940e 2ee4 	CALL SUBOPT_0x126
00250b 940e 29e0 	CALL SUBOPT_0x7A
                 _0x471:
00250d 940e 2a03 	CALL SUBOPT_0x80
                 _0x47F:
00250f 940e 3278 	CALL __LOADLOCR6
002511 9662      	ADIW R28,18
002512 9508      	RET
                 _log:
002513 9724      	SBIW R28,4
002514 931a      	ST   -Y,R17
002515 930a      	ST   -Y,R16
002516 d3a7      	RCALL SUBOPT_0x51
002517 940e 3266 	CALL __CPD02
002519 f02c      	BRLT _0x472
00251a efef
00251b efff
00251c e76f
00251d ef7f      	__GETD1N 0xFF7FFFFF
00251e c061      	RJMP _0x47E
                 _0x472:
00251f d418      	RCALL SUBOPT_0x62
002520 b7ed      	IN   R30,SPL
002521 b7fe      	IN   R31,SPH
002522 9731      	SBIW R30,1
002523 93fa      	ST   -Y,R31
002524 93ea      	ST   -Y,R30
002525 931f      	PUSH R17
002526 930f      	PUSH R16
002527 940e 3092 	CALL _frexp
002529 910f      	POP  R16
00252a 911f      	POP  R17
00252b d3f3      	RCALL SUBOPT_0x5E
00252c d391      	RCALL SUBOPT_0x51
00252d efe3
00252e e0f4
00252f e365
002530 e37f      	__GETD1N 0x3F3504F3
002531 940e 323a 	CALL __CMPF12
002533 f428      	BRSH _0x473
002534 d38e      	RCALL SUBOPT_0x52
002535 d388      	RCALL SUBOPT_0x51
002536 d380      	RCALL SUBOPT_0x50
002537 5001
002538 4010      	__SUBWRN 16,17,1
                 _0x473:
002539 d3ea      	RCALL SUBOPT_0x5F
00253a 937f      	PUSH R23
00253b 936f      	PUSH R22
00253c 93ff      	PUSH R31
00253d 93ef      	PUSH R30
00253e d384      	RCALL SUBOPT_0x52
00253f e0a0
002540 e0b0
002541 e880
002542 e39f      	__GETD2N 0x3F800000
002543 940e 3159 	CALL __ADDF12
002545 91af      	POP  R26
002546 91bf      	POP  R27
002547 918f      	POP  R24
002548 919f      	POP  R25
002549 940e 31f5 	CALL __DIVF21
00254b d4cb      	RCALL SUBOPT_0x83
00254c 940e 2ee8 	CALL SUBOPT_0x127
00254e d61b      	RCALL SUBOPT_0xAD
00254f e2a6
002550 e4b2
002551 e685
002552 e39f      	__GETD2N 0x3F654226
002553 d21d      	RCALL SUBOPT_0x29
002554 e4ee
002555 e1f1
002556 e564
002557 e470      	__GETD1N 0x4054114E
002558 d222      	RCALL SUBOPT_0x2B
002559 940e 2ee8 	CALL SUBOPT_0x127
00255b 937f      	PUSH R23
00255c 936f      	PUSH R22
00255d 93ff      	PUSH R31
00255e 93ef      	PUSH R30
00255f d352      	RCALL SUBOPT_0x4F
002560 e4ed
002561 e1f1
002562 ed64
002563 e37f      	__GETD1N 0x3FD4114D
002564 d216      	RCALL SUBOPT_0x2B
002565 91af      	POP  R26
002566 91bf      	POP  R27
002567 918f      	POP  R24
002568 919f      	POP  R25
002569 940e 31f5 	CALL __DIVF21
00256b 937f      	PUSH R23
00256c 936f      	PUSH R22
00256d 93ff      	PUSH R31
00256e 93ef      	PUSH R30
00256f 01f8      	MOVW R30,R16
002570 e1a8
002571 e7b2
002572 e381
002573 e39f      	__GETD2N 0x3F317218
002574 940e 2f6b 	CALL __CWD1
002576 940e 311f 	CALL __CDF1
002578 940e 31a7 	CALL __MULF12
00257a 91af      	POP  R26
00257b 91bf      	POP  R27
00257c 918f      	POP  R24
00257d 919f      	POP  R25
00257e 940e 3159 	CALL __ADDF12
                 _0x47E:
002580 8119      	LDD  R17,Y+1
002581 8108      	LDD  R16,Y+0
002582 962a      	ADIW R28,10
002583 9508      	RET
                 _exp:
002584 9728      	SBIW R28,8
002585 931a      	ST   -Y,R17
002586 930a      	ST   -Y,R16
002587 d3e8      	RCALL SUBOPT_0x6B
002588 e5e0
002589 eafc
00258a ea6e
00258b ec72      	__GETD1N 0xC2AEAC50
00258c 940e 323a 	CALL __CMPF12
00258e f410      	BRSH _0x474
00258f d44b      	RCALL SUBOPT_0x79
002590 c06d      	RJMP _0x47D
                 _0x474:
002591 d2ed      	RCALL SUBOPT_0x49
002592 940e 325a 	CALL __CPD10
002594 f411      	BRNE _0x475
002595 d1c8      	RCALL SUBOPT_0x26
002596 c067      	RJMP _0x47D
                 _0x475:
002597 d3d8      	RCALL SUBOPT_0x6B
002598 e1e8
002599 e7f2
00259a eb61
00259b e472      	__GETD1N 0x42B17218
00259c 940e 323a 	CALL __CMPF12
00259e f009      	BREQ PC+2
00259f f410      	BRCC PC+3
0025a0 940c 25a7 	JMP  _0x476
0025a2 efef
0025a3 efff
0025a4 e76f
0025a5 e77f      	__GETD1N 0x7F7FFFFF
0025a6 c057      	RJMP _0x47D
                 _0x476:
0025a7 d3c8      	RCALL SUBOPT_0x6B
0025a8 e3eb
0025a9 eafa
0025aa eb68
0025ab e37f      	__GETD1N 0x3FB8AA3B
0025ac 940e 31a7 	CALL __MULF12
0025ae d2c6      	RCALL SUBOPT_0x47
0025af d2cf      	RCALL SUBOPT_0x49
0025b0 940e 3049 	CALL __PUTPARD1
0025b2 940e 2f42 	CALL _floor
0025b4 940e 30e8 	CALL __CFD1
0025b6 018f      	MOVW R16,R30
0025b7 01f8      	MOVW R30,R16
0025b8 d3b7      	RCALL SUBOPT_0x6B
0025b9 940e 2f6b 	CALL __CWD1
0025bb 940e 311f 	CALL __CDF1
0025bd d1bd      	RCALL SUBOPT_0x2B
0025be 01df      	MOVW R26,R30
0025bf 01cb      	MOVW R24,R22
0025c0 e0e0
0025c1 e0f0
0025c2 e060
0025c3 e37f      	__GETD1N 0x3F000000
0025c4 d1b6      	RCALL SUBOPT_0x2B
0025c5 d451      	RCALL SUBOPT_0x83
0025c6 940e 2ee8 	CALL SUBOPT_0x127
0025c8 d5a1      	RCALL SUBOPT_0xAD
0025c9 e6ad
0025ca e4bc
0025cb e68c
0025cc e39d      	__GETD2N 0x3D6C4C6D
0025cd 940e 31a7 	CALL __MULF12
0025cf eaa6
0025d0 eeb3
0025d1 ee86
0025d2 e490      	__GETD2N 0x40E6E3A6
0025d3 940e 3159 	CALL __ADDF12
0025d5 940e 2ee8 	CALL SUBOPT_0x127
0025d7 d347      	RCALL SUBOPT_0x5E
0025d8 d2ef      	RCALL SUBOPT_0x53
0025d9 e2a8
0025da e8bd
0025db ea86
0025dc e491      	__GETD2N 0x41A68D28
0025dd 940e 3159 	CALL __ADDF12
0025df d3b8      	RCALL SUBOPT_0x6F
0025e0 d2e2      	RCALL SUBOPT_0x52
0025e1 d2d0      	RCALL SUBOPT_0x4F
0025e2 940e 3159 	CALL __ADDF12
0025e4 efa3
0025e5 e0b4
0025e6 eb85
0025e7 e39f      	__GETD2N 0x3FB504F3
0025e8 940e 31a7 	CALL __MULF12
0025ea 937f      	PUSH R23
0025eb 936f      	PUSH R22
0025ec 93ff      	PUSH R31
0025ed 93ef      	PUSH R30
0025ee d2cf      	RCALL SUBOPT_0x51
0025ef d2d8      	RCALL SUBOPT_0x53
0025f0 940e 3152 	CALL __SUBF12
0025f2 91af      	POP  R26
0025f3 91bf      	POP  R27
0025f4 918f      	POP  R24
0025f5 919f      	POP  R25
0025f6 940e 31f5 	CALL __DIVF21
0025f8 940e 3049 	CALL __PUTPARD1
0025fa 931a      	ST   -Y,R17
0025fb 930a      	ST   -Y,R16
0025fc 940e 30a5 	CALL _ldexp
                 _0x47D:
0025fe 8119      	LDD  R17,Y+1
0025ff 8108      	LDD  R16,Y+0
002600 962e      	ADIW R28,14
002601 9508      	RET
                 _pow:
002602 9724      	SBIW R28,4
002603 d3ff      	RCALL SUBOPT_0x80
002604 940e 325a 	CALL __CPD10
002606 f411      	BRNE _0x477
002607 d3d3      	RCALL SUBOPT_0x79
002608 c030      	RJMP _0x47C
                 _0x477:
002609 940e 2edf 	CALL SUBOPT_0x125
00260b 940e 3266 	CALL __CPD02
00260d f464      	BRGE _0x478
00260e d031      	RCALL SUBOPT_0x1
00260f 940e 325a 	CALL __CPD10
002611 f411      	BRNE _0x479
002612 d14b      	RCALL SUBOPT_0x26
002613 c025      	RJMP _0x47C
                 _0x479:
002614 d3ee      	RCALL SUBOPT_0x80
002615 d337      	RCALL SUBOPT_0x66
002616 940e 2e84 	CALL SUBOPT_0x11C
002618 d3d2      	RCALL SUBOPT_0x7C
002619 c01f      	RJMP _0x47C
                 _0x478:
00261a d025      	RCALL SUBOPT_0x1
00261b 01de      	MOVW R26,R28
00261c 940e 30e8 	CALL __CFD1
00261e 940e 303a 	CALL __PUTDP1
002620 d03f      	RCALL SUBOPT_0x6
002621 940e 311f 	CALL __CDF1
002623 01df      	MOVW R26,R30
002624 01cb      	MOVW R24,R22
002625 d01a      	RCALL SUBOPT_0x1
002626 940e 326c 	CALL __CPD12
002628 f011      	BREQ _0x47A
002629 d3b1      	RCALL SUBOPT_0x79
00262a c00e      	RJMP _0x47C
                 _0x47A:
00262b 940e 2ee4 	CALL SUBOPT_0x126
00262d d31f      	RCALL SUBOPT_0x66
00262e 940e 2e84 	CALL SUBOPT_0x11C
002630 d3ba      	RCALL SUBOPT_0x7C
002631 d3ae      	RCALL SUBOPT_0x7A
002632 81e8      	LD   R30,Y
002633 70e1      	ANDI R30,LOW(0x1)
002634 f411      	BRNE _0x47B
002635 d3cd      	RCALL SUBOPT_0x80
002636 c002      	RJMP _0x47C
                 _0x47B:
002637 940e 2ee4 	CALL SUBOPT_0x126
                 _0x47C:
002639 962c      	ADIW R28,12
00263a 9508      	RET
                 
                 ;OPTIMIZER ADDED SUBROUTINE, CALLED 65 TIMES, CODE SIZE REDUCTION:125 WORDS
                 SUBOPT_0x0:
00263b ece8      	LDI  R30,LOW(_strbuf)
00263c e0f5      	LDI  R31,HIGH(_strbuf)
00263d 93fa      	ST   -Y,R31
00263e 93ea      	ST   -Y,R30
00263f 9508      	RET
                 
                 ;OPTIMIZER ADDED SUBROUTINE, CALLED 10 TIMES, CODE SIZE REDUCTION:15 WORDS
                 SUBOPT_0x1:
002640 81ec
002641 81fd
002642 816e
002643 817f      	__GETD1S 4
002644 9508      	RET
                 
                 ;OPTIMIZER ADDED SUBROUTINE, CALLED 3 TIMES, CODE SIZE REDUCTION:9 WORDS
                 SUBOPT_0x2:
002645 940e 3049 	CALL __PUTPARD1
002647 e084      	LDI  R24,4
002648 940e 23c0 	CALL _sprintf
00264a 9628      	ADIW R28,8
00264b cfef      	RJMP SUBOPT_0x0
                 
                 ;OPTIMIZER ADDED SUBROUTINE, CALLED 5 TIMES, CODE SIZE REDUCTION:17 WORDS
                 SUBOPT_0x3:
00264c 940e 2efe 	CALL _strlen
00264e 93ea      	ST   -Y,R30
00264f e0e3      	LDI  R30,LOW(3)
002650 93ea      	ST   -Y,R30
002651 940c 0cdd 	JMP  _prints
                 
                 ;OPTIMIZER ADDED SUBROUTINE, CALLED 3 TIMES, CODE SIZE REDUCTION:1 WORDS
                 SUBOPT_0x4:
002653 940e 3049 	CALL __PUTPARD1
002655 940c 06be 	JMP  _dbgout
                 
                 ;OPTIMIZER ADDED SUBROUTINE, CALLED 9 TIMES, CODE SIZE REDUCTION:53 WORDS
                 SUBOPT_0x5:
002657 93ea      	ST   -Y,R30
002658 940e 134c 	CALL _nav_command
00265a e2e0      	LDI  R30,LOW(20000)
00265b e4fe      	LDI  R31,HIGH(20000)
00265c 93fa      	ST   -Y,R31
00265d 93ea      	ST   -Y,R30
00265e 940c 075f 	JMP  _sleepms
                 
                 ;OPTIMIZER ADDED SUBROUTINE, CALLED 4 TIMES, CODE SIZE REDUCTION:3 WORDS
                 SUBOPT_0x6:
002660 81e8
002661 81f9
002662 816a
002663 817b      	__GETD1S 0
002664 9508      	RET
                 
                 ;OPTIMIZER ADDED SUBROUTINE, CALLED 12 TIMES, CODE SIZE REDUCTION:41 WORDS
                 SUBOPT_0x7:
002665 2fe1      	MOV  R30,R17
002666 e0f0      	LDI  R31,0
002667 5fe8      	SUBI R30,LOW(-_namebuf)
002668 4ff9      	SBCI R31,HIGH(-_namebuf)
002669 9508      	RET
                 
                 ;OPTIMIZER ADDED SUBROUTINE, CALLED 2 TIMES, CODE SIZE REDUCTION:13 WORDS
                 SUBOPT_0x8:
00266a 81e9      	LDD  R30,Y+1
00266b e0f0      	LDI  R31,0
00266c 940e 2f5e 	CALL __LSLW3
00266e 0fae      	ADD  R26,R30
00266f 1fbf      	ADC  R27,R31
002670 27ee      	CLR  R30
002671 0fa1      	ADD  R26,R17
002672 1fbe      	ADC  R27,R30
002673 940e 3064 	CALL __EEPROMRDB
002675 01d0      	MOVW R26,R0
002676 93ec      	ST   X,R30
002677 cfed      	RJMP SUBOPT_0x7
                 
                 ;OPTIMIZER ADDED SUBROUTINE, CALLED 2 TIMES, CODE SIZE REDUCTION:2 WORDS
                 SUBOPT_0x9:
002678 0dec      	ADD  R30,R12
002679 1dfd      	ADC  R31,R13
00267a 01df      	MOVW R26,R30
00267b 940e 3064 	CALL __EEPROMRDB
00267d 2f1e      	MOV  R17,R30
00267e 3f1f      	CPI  R17,255
00267f 9508      	RET
                 
                 ;OPTIMIZER ADDED SUBROUTINE, CALLED 2 TIMES, CODE SIZE REDUCTION:12 WORDS
                 SUBOPT_0xA:
002680 e6a0
002681 e0b5      	__POINTW2MN _rundata,96
002682 01f6      	MOVW R30,R12
002683 940e 2f60 	CALL __LSLW2
002685 0fae      	ADD  R26,R30
002686 1fbf      	ADC  R27,R31
002687 e0e0
002688 e3fc
002689 e16c
00268a ec76      	__GETD1N 0xC61C3C00
00268b 940e 303a 	CALL __PUTDP1
00268d e0e2      	LDI  R30,LOW(2)
00268e 93e0 0602 	STS  _phase,R30
002690 9508      	RET
                 
                 ;OPTIMIZER ADDED SUBROUTINE, CALLED 3 TIMES, CODE SIZE REDUCTION:7 WORDS
                 SUBOPT_0xB:
002691 e2a0
002692 e0b2      	__POINTW2MN _tprbdata,480
002693 27ee      	CLR  R30
002694 0fa1      	ADD  R26,R17
002695 1fbe      	ADC  R27,R30
002696 940e 3064 	CALL __EEPROMRDB
002698 9508      	RET
                 
                 ;OPTIMIZER ADDED SUBROUTINE, CALLED 2 TIMES, CODE SIZE REDUCTION:1 WORDS
                 SUBOPT_0xC:
002699 01f6      	MOVW R30,R12
00269a 9631      	ADIW R30,1
00269b 93ea      	ST   -Y,R30
00269c 940c 1314 	JMP  _scanner_set_channel
                 
                 ;OPTIMIZER ADDED SUBROUTINE, CALLED 3 TIMES, CODE SIZE REDUCTION:1 WORDS
                 SUBOPT_0xD:
00269e eae0
00269f e8f6
0026a0 e061
0026a1 e070      	__GETD1N 0x186A0
0026a2 9508      	RET
                 
                 ;OPTIMIZER ADDED SUBROUTINE, CALLED 5 TIMES, CODE SIZE REDUCTION:57 WORDS
                 SUBOPT_0xE:
0026a3 93e0 05fa 	STS  _dlg_cnt,R30
0026a5 93f0 05fb 	STS  _dlg_cnt+1,R31
0026a7 9360 05fc 	STS  _dlg_cnt+2,R22
0026a9 9370 05fd 	STS  _dlg_cnt+3,R23
0026ab e0e0      	LDI  R30,0
0026ac 93e0 05fe 	STS  _onesec_cnt,R30
0026ae 93e0 05ff 	STS  _onesec_cnt+1,R30
0026b0 93e0 0600 	STS  _onesec_cnt+2,R30
0026b2 93e0 0601 	STS  _onesec_cnt+3,R30
0026b4 9508      	RET
                 
                 ;OPTIMIZER ADDED SUBROUTINE, CALLED 7 TIMES, CODE SIZE REDUCTION:21 WORDS
                 SUBOPT_0xF:
0026b5 01f6      	MOVW R30,R12
0026b6 e0a0      	LDI  R26,LOW(_rundata)
0026b7 e0b5      	LDI  R27,HIGH(_rundata)
0026b8 940e 2f60 	CALL __LSLW2
0026ba 9508      	RET
                 
                 ;OPTIMIZER ADDED SUBROUTINE, CALLED 2 TIMES, CODE SIZE REDUCTION:6 WORDS
                 SUBOPT_0x10:
0026bb eee5
0026bc e0f7      	__POINTW1FN _0,33
0026bd 93fa      	ST   -Y,R31
0026be 93ea      	ST   -Y,R30
0026bf 01f6      	MOVW R30,R12
0026c0 9631      	ADIW R30,1
0026c1 940e 2f6b 	CALL __CWD1
0026c3 940e 3049 	CALL __PUTPARD1
0026c5 9508      	RET
                 
                 ;OPTIMIZER ADDED SUBROUTINE, CALLED 9 TIMES, CODE SIZE REDUCTION:29 WORDS
                 SUBOPT_0x11:
0026c6 0fae      	ADD  R26,R30
0026c7 1fbf      	ADC  R27,R31
0026c8 940e 3034 	CALL __GETD1P
0026ca 940e 3049 	CALL __PUTPARD1
0026cc 9508      	RET
                 
                 ;OPTIMIZER ADDED SUBROUTINE, CALLED 2 TIMES, CODE SIZE REDUCTION:1 WORDS
                 SUBOPT_0x12:
0026cd e088      	LDI  R24,8
0026ce 940e 23c0 	CALL _sprintf
0026d0 962c      	ADIW R28,12
0026d1 cf69      	RJMP SUBOPT_0x0
                 
                 ;OPTIMIZER ADDED SUBROUTINE, CALLED 7 TIMES, CODE SIZE REDUCTION:21 WORDS
                 SUBOPT_0x13:
0026d2 e6a0
0026d3 e0b5      	__POINTW2MN _rundata,96
0026d4 01f6      	MOVW R30,R12
0026d5 940e 2f60 	CALL __LSLW2
0026d7 9508      	RET
                 
                 ;OPTIMIZER ADDED SUBROUTINE, CALLED 2 TIMES, CODE SIZE REDUCTION:1 WORDS
                 SUBOPT_0x14:
0026d8 eeed
0026d9 e0f7      	__POINTW1FN _0,41
0026da 93fa      	ST   -Y,R31
0026db 93ea      	ST   -Y,R30
0026dc cff5      	RJMP SUBOPT_0x13
                 
                 ;OPTIMIZER ADDED SUBROUTINE, CALLED 9 TIMES, CODE SIZE REDUCTION:13 WORDS
                 SUBOPT_0x15:
0026dd 0fae      	ADD  R26,R30
0026de 1fbf      	ADC  R27,R31
0026df 940e 3034 	CALL __GETD1P
0026e1 9508      	RET
                 
                 ;OPTIMIZER ADDED SUBROUTINE, CALLED 2 TIMES, CODE SIZE REDUCTION:2 WORDS
                 SUBOPT_0x16:
0026e2 efee      	LDI  R30,LOW(254)
0026e3 93ea      	ST   -Y,R30
0026e4 940e 1453 	CALL _pgmain_handler
0026e6 e0e0      	LDI  R30,LOW(0)
0026e7 93e0 0602 	STS  _phase,R30
0026e9 9508      	RET
                 
                 ;OPTIMIZER ADDED SUBROUTINE, CALLED 2 TIMES, CODE SIZE REDUCTION:6 WORDS
                 SUBOPT_0x17:
0026ea 0fae      	ADD  R26,R30
0026eb 1fbf      	ADC  R27,R31
0026ec e0e0
0026ed e3fc
0026ee e16c
0026ef ec76      	__GETD1N 0xC61C3C00
0026f0 940e 303a 	CALL __PUTDP1
0026f2 e0e5      	LDI  R30,LOW(5)
0026f3 93e0 0602 	STS  _phase,R30
0026f5 9508      	RET
                 
                 ;OPTIMIZER ADDED SUBROUTINE, CALLED 2 TIMES, CODE SIZE REDUCTION:2 WORDS
                 SUBOPT_0x18:
0026f6 e1a8
0026f7 e0b4      	__POINTW2MN _rprbdata,480
0026f8 27ee      	CLR  R30
0026f9 0fa1      	ADD  R26,R17
0026fa 1fbe      	ADC  R27,R30
0026fb 940e 3064 	CALL __EEPROMRDB
0026fd 9508      	RET
                 
                 ;OPTIMIZER ADDED SUBROUTINE, CALLED 7 TIMES, CODE SIZE REDUCTION:21 WORDS
                 SUBOPT_0x19:
0026fe e6e9      	LDI  R30,LOW(105)
0026ff 93ea      	ST   -Y,R30
002700 e0e1      	LDI  R30,LOW(1)
002701 93ea      	ST   -Y,R30
002702 940c 12aa 	JMP  _display_buttons
                 
                 ;OPTIMIZER ADDED SUBROUTINE, CALLED 5 TIMES, CODE SIZE REDUCTION:13 WORDS
                 SUBOPT_0x1A:
002704 e6ea      	LDI  R30,LOW(106)
002705 93ea      	ST   -Y,R30
002706 e0e0      	LDI  R30,LOW(0)
002707 93ea      	ST   -Y,R30
002708 940c 12aa 	JMP  _display_buttons
                 
                 ;OPTIMIZER ADDED SUBROUTINE, CALLED 4 TIMES, CODE SIZE REDUCTION:33 WORDS
                 SUBOPT_0x1B:
00270a e0ac
00270b e0b0      	__POINTW2MN _sysdata,12
00270c 940e 3060 	CALL __EEPROMRDW
00270e eaa0
00270f e8b6
002710 e081
002711 e090      	__GETD2N 0x186A0
002712 940e 2f6b 	CALL __CWD1
002714 940e 2f9d 	CALL __MULD12
002716 cf8c      	RJMP SUBOPT_0xE
                 
                 ;OPTIMIZER ADDED SUBROUTINE, CALLED 5 TIMES, CODE SIZE REDUCTION:9 WORDS
                 SUBOPT_0x1C:
002717 e3af
002718 e0b0      	__POINTW2MN _sysdata,63
002719 940e 3064 	CALL __EEPROMRDB
00271b 30e1      	CPI  R30,LOW(0x1)
00271c 9508      	RET
                 
                 ;OPTIMIZER ADDED SUBROUTINE, CALLED 6 TIMES, CODE SIZE REDUCTION:17 WORDS
                 SUBOPT_0x1D:
00271d 940e 13a9 	CALL _nav_read
00271f 940e 3049 	CALL __PUTPARD1
002721 940c 06f1 	JMP  _mabs
                 
                 ;OPTIMIZER ADDED SUBROUTINE, CALLED 3 TIMES, CODE SIZE REDUCTION:9 WORDS
                 SUBOPT_0x1E:
002723 93e0 05c4
002725 93f0 05c5
002727 9360 05c6
002729 9370 05c7 	__PUTD1MN _rundata,196
00272b 9508      	RET
                 
                 ;OPTIMIZER ADDED SUBROUTINE, CALLED 10 TIMES, CODE SIZE REDUCTION:24 WORDS
                 SUBOPT_0x1F:
00272c 93ea      	ST   -Y,R30
00272d e0e0      	LDI  R30,LOW(0)
00272e 93ea      	ST   -Y,R30
00272f 940c 12aa 	JMP  _display_buttons
                 
                 ;OPTIMIZER ADDED SUBROUTINE, CALLED 4 TIMES, CODE SIZE REDUCTION:9 WORDS
                 SUBOPT_0x20:
002731 e6ea      	LDI  R30,LOW(106)
002732 93ea      	ST   -Y,R30
002733 e0e1      	LDI  R30,LOW(1)
002734 93ea      	ST   -Y,R30
002735 940c 12aa 	JMP  _display_buttons
                 
                 ;OPTIMIZER ADDED SUBROUTINE, CALLED 3 TIMES, CODE SIZE REDUCTION:9 WORDS
                 SUBOPT_0x21:
002737 93e0 0603 	STS  _valuep,R30
002739 93f0 0604 	STS  _valuep+1,R31
00273b 9360 0605 	STS  _valuep+2,R22
00273d 9370 0606 	STS  _valuep+3,R23
00273f 9508      	RET
                 
                 ;OPTIMIZER ADDED SUBROUTINE, CALLED 10 TIMES, CODE SIZE REDUCTION:51 WORDS
                 SUBOPT_0x22:
002740 91a0 0603 	LDS  R26,_valuep
002742 91b0 0604 	LDS  R27,_valuep+1
002744 9180 0605 	LDS  R24,_valuep+2
002746 9190 0606 	LDS  R25,_valuep+3
002748 9508      	RET
                 
                 ;OPTIMIZER ADDED SUBROUTINE, CALLED 2 TIMES, CODE SIZE REDUCTION:3 WORDS
                 SUBOPT_0x23:
002749 dff6      	RCALL SUBOPT_0x22
00274a e3ed
00274b e0fa
00274c e567
00274d e37e      	__GETD1N 0x3E570A3D
00274e 940e 323a 	CALL __CMPF12
002750 9508      	RET
                 
                 ;OPTIMIZER ADDED SUBROUTINE, CALLED 7 TIMES, CODE SIZE REDUCTION:9 WORDS
                 SUBOPT_0x24:
002751 e0e0
002752 e0f0
002753 e060
002754 e470      	__GETD1N 0x40000000
002755 9508      	RET
                 
                 ;OPTIMIZER ADDED SUBROUTINE, CALLED 2 TIMES, CODE SIZE REDUCTION:3 WORDS
                 SUBOPT_0x25:
002756 dfe9      	RCALL SUBOPT_0x22
002757 e3ed
002758 e0fa
002759 ed67
00275a e37d      	__GETD1N 0x3DD70A3D
00275b 940e 323a 	CALL __CMPF12
00275d 9508      	RET
                 
                 ;OPTIMIZER ADDED SUBROUTINE, CALLED 19 TIMES, CODE SIZE REDUCTION:33 WORDS
                 SUBOPT_0x26:
00275e e0e0
00275f e0f0
002760 e860
002761 e37f      	__GETD1N 0x3F800000
002762 9508      	RET
                 
                 ;OPTIMIZER ADDED SUBROUTINE, CALLED 2 TIMES, CODE SIZE REDUCTION:3 WORDS
                 SUBOPT_0x27:
002763 91e0 05c4
002765 91f0 05c5
002767 9160 05c6
002769 9170 05c7 	__GETD1MN _rundata,196
00276b 9508      	RET
                 
                 ;OPTIMIZER ADDED SUBROUTINE, CALLED 3 TIMES, CODE SIZE REDUCTION:1 WORDS
                 SUBOPT_0x28:
00276c e0a8
00276d e0b0      	__POINTW2MN _sysdata,8
00276e 940e 305b 	CALL __EEPROMRDD
002770 9508      	RET
                 
                 ;OPTIMIZER ADDED SUBROUTINE, CALLED 3 TIMES, CODE SIZE REDUCTION:1 WORDS
                 SUBOPT_0x29:
002771 940e 31a7 	CALL __MULF12
002773 01df      	MOVW R26,R30
002774 01cb      	MOVW R24,R22
002775 9508      	RET
                 
                 ;OPTIMIZER ADDED SUBROUTINE, CALLED 4 TIMES, CODE SIZE REDUCTION:3 WORDS
                 SUBOPT_0x2A:
002776 e0a0      	LDI  R26,LOW(_sysdata)
002777 e0b0      	LDI  R27,HIGH(_sysdata)
002778 940e 305b 	CALL __EEPROMRDD
00277a 9508      	RET
                 
                 ;OPTIMIZER ADDED SUBROUTINE, CALLED 25 TIMES, CODE SIZE REDUCTION:45 WORDS
                 SUBOPT_0x2B:
00277b 940e 304e 	CALL __SWAPD12
00277d 940e 3152 	CALL __SUBF12
00277f 9508      	RET
                 
                 ;OPTIMIZER ADDED SUBROUTINE, CALLED 2 TIMES, CODE SIZE REDUCTION:3 WORDS
                 SUBOPT_0x2C:
002780 91e0 05c0
002782 91f0 05c1
002784 9160 05c2
002786 9170 05c3 	__GETD1MN _rundata,192
002788 9508      	RET
                 
                 ;OPTIMIZER ADDED SUBROUTINE, CALLED 5 TIMES, CODE SIZE REDUCTION:5 WORDS
                 SUBOPT_0x2D:
002789 01fe      	MOVW R30,R28
00278a 93fa      	ST   -Y,R31
00278b 93ea      	ST   -Y,R30
00278c 9508      	RET
                 
                 ;OPTIMIZER ADDED SUBROUTINE, CALLED 40 TIMES, CODE SIZE REDUCTION:153 WORDS
                 SUBOPT_0x2E:
00278d 93fa      	ST   -Y,R31
00278e 93ea      	ST   -Y,R30
00278f e080      	LDI  R24,0
002790 940e 23c0 	CALL _sprintf
002792 9624      	ADIW R28,4
002793 9508      	RET
                 
                 ;OPTIMIZER ADDED SUBROUTINE, CALLED 11 TIMES, CODE SIZE REDUCTION:27 WORDS
                 SUBOPT_0x2F:
002794 e3ae
002795 e0b0      	__POINTW2MN _sysdata,62
002796 940e 3064 	CALL __EEPROMRDB
002798 30e1      	CPI  R30,LOW(0x1)
002799 9508      	RET
                 
                 ;OPTIMIZER ADDED SUBROUTINE, CALLED 2 TIMES, CODE SIZE REDUCTION:28 WORDS
                 SUBOPT_0x30:
00279a 93fa      	ST   -Y,R31
00279b 93ea      	ST   -Y,R30
00279c 01f6      	MOVW R30,R12
00279d 9631      	ADIW R30,1
00279e 940e 2f6b 	CALL __CWD1
0027a0 940e 3049 	CALL __PUTPARD1
0027a2 91a0 05fa 	LDS  R26,_dlg_cnt
0027a4 91b0 05fb 	LDS  R27,_dlg_cnt+1
0027a6 9180 05fc 	LDS  R24,_dlg_cnt+2
0027a8 9190 05fd 	LDS  R25,_dlg_cnt+3
0027aa def3      	RCALL SUBOPT_0xD
0027ab 940e 2fc8 	CALL __DIVD21U
0027ad 940e 3049 	CALL __PUTPARD1
0027af 01fe      	MOVW R30,R28
0027b0 963c      	ADIW R30,12
0027b1 2766      	CLR  R22
0027b2 2777      	CLR  R23
0027b3 940e 3049 	CALL __PUTPARD1
0027b5 e08c      	LDI  R24,12
0027b6 940e 23c0 	CALL _sprintf
0027b8 9660      	ADIW R28,16
0027b9 9508      	RET
                 
                 ;OPTIMIZER ADDED SUBROUTINE, CALLED 48 TIMES, CODE SIZE REDUCTION:185 WORDS
                 SUBOPT_0x31:
0027ba 93fa      	ST   -Y,R31
0027bb 93ea      	ST   -Y,R30
0027bc e0e1      	LDI  R30,LOW(1)
0027bd 93ea      	ST   -Y,R30
0027be 940c 1fb3 	JMP  _draw_label
                 
                 ;OPTIMIZER ADDED SUBROUTINE, CALLED 7 TIMES, CODE SIZE REDUCTION:9 WORDS
                 SUBOPT_0x32:
0027c0 93fa      	ST   -Y,R31
0027c1 93ea      	ST   -Y,R30
0027c2 940c 075f 	JMP  _sleepms
                 
                 ;OPTIMIZER ADDED SUBROUTINE, CALLED 3 TIMES, CODE SIZE REDUCTION:1 WORDS
                 SUBOPT_0x33:
0027c4 93fa      	ST   -Y,R31
0027c5 93ea      	ST   -Y,R30
0027c6 940c 1f6a 	JMP  _wnd_msgbox
                 
                 ;OPTIMIZER ADDED SUBROUTINE, CALLED 5 TIMES, CODE SIZE REDUCTION:29 WORDS
                 SUBOPT_0x34:
0027c8 e3ae
0027c9 e0b0      	__POINTW2MN _sysdata,62
0027ca e0e1      	LDI  R30,LOW(1)
0027cb 940e 3083 	CALL __EEPROMWRB
0027cd 940e 1300 	CALL _scanner_set_mode
0027cf e6e1      	LDI  R30,LOW(97)
0027d0 cf5b      	RJMP SUBOPT_0x1F
                 
                 ;OPTIMIZER ADDED SUBROUTINE, CALLED 4 TIMES, CODE SIZE REDUCTION:3 WORDS
                 SUBOPT_0x35:
0027d1 e0e1      	LDI  R30,LOW(1)
0027d2 e0f0      	LDI  R31,HIGH(1)
0027d3 015f      	MOVW R10,R30
0027d4 9508      	RET
                 
                 ;OPTIMIZER ADDED SUBROUTINE, CALLED 3 TIMES, CODE SIZE REDUCTION:9 WORDS
                 SUBOPT_0x36:
0027d5 e5e3      	LDI  R30,LOW(_pgmain_handler)
0027d6 e1f4      	LDI  R31,HIGH(_pgmain_handler)
0027d7 91a0 07b4 	LDS  R26,_curr_window
0027d9 91b0 07b5 	LDS  R27,_curr_window+1
0027db 17ea      	CP   R30,R26
0027dc 07fb      	CPC  R31,R27
0027dd 9508      	RET
                 
                 ;OPTIMIZER ADDED SUBROUTINE, CALLED 4 TIMES, CODE SIZE REDUCTION:30 WORDS
                 SUBOPT_0x37:
0027de e3ae
0027df e0b0      	__POINTW2MN _sysdata,62
0027e0 e0e0      	LDI  R30,LOW(0)
0027e1 940e 3083 	CALL __EEPROMWRB
0027e3 940e 1300 	CALL _scanner_set_mode
0027e5 e6e1      	LDI  R30,LOW(97)
0027e6 93ea      	ST   -Y,R30
0027e7 e0e1      	LDI  R30,LOW(1)
0027e8 93ea      	ST   -Y,R30
0027e9 940c 12aa 	JMP  _display_buttons
                 
                 ;OPTIMIZER ADDED SUBROUTINE, CALLED 2 TIMES, CODE SIZE REDUCTION:4 WORDS
                 SUBOPT_0x38:
0027eb e0e0      	LDI  R30,0
0027ec 93e0 05fe 	STS  _onesec_cnt,R30
0027ee 93e0 05ff 	STS  _onesec_cnt+1,R30
0027f0 93e0 0600 	STS  _onesec_cnt+2,R30
0027f2 93e0 0601 	STS  _onesec_cnt+3,R30
0027f4 9508      	RET
                 
                 ;OPTIMIZER ADDED SUBROUTINE, CALLED 16 TIMES, CODE SIZE REDUCTION:42 WORDS
                 SUBOPT_0x39:
0027f5 e3ae
0027f6 e0b0      	__POINTW2MN _sysdata,62
0027f7 940e 3064 	CALL __EEPROMRDB
0027f9 30e0      	CPI  R30,0
0027fa 9508      	RET
                 
                 ;OPTIMIZER ADDED SUBROUTINE, CALLED 3 TIMES, CODE SIZE REDUCTION:11 WORDS
                 SUBOPT_0x3A:
0027fb e0ae
0027fc e0b0      	__POINTW2MN _sysdata,14
0027fd 01f5      	MOVW R30,R10
0027fe 9731      	SBIW R30,1
0027ff 0fae      	ADD  R26,R30
002800 1fbf      	ADC  R27,R31
002801 940e 3064 	CALL __EEPROMRDB
002803 9508      	RET
                 
                 ;OPTIMIZER ADDED SUBROUTINE, CALLED 6 TIMES, CODE SIZE REDUCTION:22 WORDS
                 SUBOPT_0x3B:
002804 e2e0
002805 e0f2      	__POINTW1MN _tprbdata,480
002806 0fe0      	ADD  R30,R16
002807 1ff1      	ADC  R31,R17
002808 01df      	MOVW R26,R30
002809 940e 3064 	CALL __EEPROMRDB
00280b 9508      	RET
                 
                 ;OPTIMIZER ADDED SUBROUTINE, CALLED 3 TIMES, CODE SIZE REDUCTION:1 WORDS
                 SUBOPT_0x3C:
00280c 5fef
00280d 4fff
00280e 4f6f
00280f 4f7f      	__SUBD1N -1
002810 9508      	RET
                 
                 ;OPTIMIZER ADDED SUBROUTINE, CALLED 2 TIMES, CODE SIZE REDUCTION:3 WORDS
                 SUBOPT_0x3D:
002811 91a0 05fe 	LDS  R26,_onesec_cnt
002813 91b0 05ff 	LDS  R27,_onesec_cnt+1
002815 9180 0600 	LDS  R24,_onesec_cnt+2
002817 9190 0601 	LDS  R25,_onesec_cnt+3
002819 9508      	RET
                 
                 ;OPTIMIZER ADDED SUBROUTINE, CALLED 2 TIMES, CODE SIZE REDUCTION:2 WORDS
                 SUBOPT_0x3E:
00281a e1e8
00281b e0f4      	__POINTW1MN _rprbdata,480
00281c 0fe0      	ADD  R30,R16
00281d 1ff1      	ADC  R31,R17
00281e 01df      	MOVW R26,R30
00281f 940e 3064 	CALL __EEPROMRDB
002821 9508      	RET
                 
                 ;OPTIMIZER ADDED SUBROUTINE, CALLED 9 TIMES, CODE SIZE REDUCTION:29 WORDS
                 SUBOPT_0x3F:
002822 940e 2f75 	CALL __MULW12U
002824 0fe6      	ADD  R30,R22
002825 1ff7      	ADC  R31,R23
002826 940e 303f 	CALL __GETW1PF
002828 9508      	RET
                 
                 ;OPTIMIZER ADDED SUBROUTINE, CALLED 2 TIMES, CODE SIZE REDUCTION:10 WORDS
                 SUBOPT_0x40:
002829 920a      	ST   -Y,R0
00282a 921a      	ST   -Y,R1
00282b 92fa      	ST   -Y,R15
00282c 936a      	ST   -Y,R22
00282d 937a      	ST   -Y,R23
00282e 938a      	ST   -Y,R24
00282f 939a      	ST   -Y,R25
002830 93aa      	ST   -Y,R26
002831 93ba      	ST   -Y,R27
002832 93ea      	ST   -Y,R30
002833 93fa      	ST   -Y,R31
002834 b7ef      	IN   R30,SREG
002835 93ea      	ST   -Y,R30
002836 931a      	ST   -Y,R17
002837 930a      	ST   -Y,R16
002838 9508      	RET
                 
                 ;OPTIMIZER ADDED SUBROUTINE, CALLED 2 TIMES, CODE SIZE REDUCTION:10 WORDS
                 SUBOPT_0x41:
002839 9109      	LD   R16,Y+
00283a 9119      	LD   R17,Y+
00283b 91e9      	LD   R30,Y+
00283c bfef      	OUT  SREG,R30
00283d 91f9      	LD   R31,Y+
00283e 91e9      	LD   R30,Y+
00283f 91b9      	LD   R27,Y+
002840 91a9      	LD   R26,Y+
002841 9199      	LD   R25,Y+
002842 9189      	LD   R24,Y+
002843 9179      	LD   R23,Y+
002844 9169      	LD   R22,Y+
002845 90f9      	LD   R15,Y+
002846 9019      	LD   R1,Y+
002847 9009      	LD   R0,Y+
002848 9508      	RET
                 
                 ;OPTIMIZER ADDED SUBROUTINE, CALLED 28 TIMES, CODE SIZE REDUCTION:51 WORDS
                 SUBOPT_0x42:
002849 50e1      	SUBI R30,LOW(1)
00284a e0f0      	LDI  R31,0
00284b 9508      	RET
                 
                 ;OPTIMIZER ADDED SUBROUTINE, CALLED 4 TIMES, CODE SIZE REDUCTION:33 WORDS
                 SUBOPT_0x43:
00284c 920a      	ST   -Y,R0
00284d 921a      	ST   -Y,R1
00284e 92fa      	ST   -Y,R15
00284f 936a      	ST   -Y,R22
002850 937a      	ST   -Y,R23
002851 938a      	ST   -Y,R24
002852 939a      	ST   -Y,R25
002853 93aa      	ST   -Y,R26
002854 93ba      	ST   -Y,R27
002855 93ea      	ST   -Y,R30
002856 93fa      	ST   -Y,R31
002857 b7ef      	IN   R30,SREG
002858 93ea      	ST   -Y,R30
002859 931a      	ST   -Y,R17
00285a 9508      	RET
                 
                 ;OPTIMIZER ADDED SUBROUTINE, CALLED 8 TIMES, CODE SIZE REDUCTION:81 WORDS
                 SUBOPT_0x44:
00285b 9119      	LD   R17,Y+
00285c 91e9      	LD   R30,Y+
00285d bfef      	OUT  SREG,R30
00285e 91f9      	LD   R31,Y+
00285f 91e9      	LD   R30,Y+
002860 91b9      	LD   R27,Y+
002861 91a9      	LD   R26,Y+
002862 9199      	LD   R25,Y+
002863 9189      	LD   R24,Y+
002864 9179      	LD   R23,Y+
002865 9169      	LD   R22,Y+
002866 90f9      	LD   R15,Y+
002867 9019      	LD   R1,Y+
002868 9009      	LD   R0,Y+
002869 9508      	RET
                 
                 ;OPTIMIZER ADDED SUBROUTINE, CALLED 6 TIMES, CODE SIZE REDUCTION:12 WORDS
                 SUBOPT_0x45:
00286a 81ac      	LDD  R26,Y+4
00286b 81bd      	LDD  R27,Y+4+1
00286c 91ed      	LD   R30,X+
00286d 83ac      	STD  Y+4,R26
00286e 83bd      	STD  Y+4+1,R27
00286f 9508      	RET
                 
                 ;OPTIMIZER ADDED SUBROUTINE, CALLED 12 TIMES, CODE SIZE REDUCTION:19 WORDS
                 SUBOPT_0x46:
002870 87ee
002871 87ff
002872 8b68
002873 8b79      	__PUTD1S 14
002874 9508      	RET
                 
                 ;OPTIMIZER ADDED SUBROUTINE, CALLED 22 TIMES, CODE SIZE REDUCTION:39 WORDS
                 SUBOPT_0x47:
002875 87ea
002876 87fb
002877 876c
002878 877d      	__PUTD1S 10
002879 9508      	RET
                 
                 ;OPTIMIZER ADDED SUBROUTINE, CALLED 9 TIMES, CODE SIZE REDUCTION:13 WORDS
                 SUBOPT_0x48:
00287a 85ae
00287b 85bf
00287c 8988
00287d 8999      	__GETD2S 14
00287e 9508      	RET
                 
                 ;OPTIMIZER ADDED SUBROUTINE, CALLED 10 TIMES, CODE SIZE REDUCTION:15 WORDS
                 SUBOPT_0x49:
00287f 85ea
002880 85fb
002881 856c
002882 857d      	__GETD1S 10
002883 9508      	RET
                 
                 ;OPTIMIZER ADDED SUBROUTINE, CALLED 3 TIMES, CODE SIZE REDUCTION:13 WORDS
                 SUBOPT_0x4A:
002884 940e 3152 	CALL __SUBF12
002886 01df      	MOVW R26,R30
002887 01cb      	MOVW R24,R22
002888 e1e7
002889 ebf7
00288a e561
00288b e378      	__GETD1N 0x3851B717
00288c 940e 323a 	CALL __CMPF12
00288e 9508      	RET
                 
                 ;OPTIMIZER ADDED SUBROUTINE, CALLED 3 TIMES, CODE SIZE REDUCTION:7 WORDS
                 SUBOPT_0x4B:
00288f 01d8      	MOVW R26,R16
002890 5f0f
002891 4f1f      	__ADDWRN 16,17,1
002892 36a4      	CPI  R26,LOW(0x64)
002893 e0e0      	LDI  R30,HIGH(0x64)
002894 07be      	CPC  R27,R30
002895 9508      	RET
                 
                 ;OPTIMIZER ADDED SUBROUTINE, CALLED 3 TIMES, CODE SIZE REDUCTION:25 WORDS
                 SUBOPT_0x4C:
002896 dfe8      	RCALL SUBOPT_0x49
002897 dfe2      	RCALL SUBOPT_0x48
002898 940e 3159 	CALL __ADDF12
00289a 01df      	MOVW R26,R30
00289b 01cb      	MOVW R24,R22
00289c deb4      	RCALL SUBOPT_0x24
00289d 940e 31f5 	CALL __DIVF21
00289f 83ea
0028a0 83fb
0028a1 836c
0028a2 837d      	__PUTD1S 2
0028a3 9508      	RET
                 
                 ;OPTIMIZER ADDED SUBROUTINE, CALLED 4 TIMES, CODE SIZE REDUCTION:3 WORDS
                 SUBOPT_0x4D:
0028a4 8dae
0028a5 8dbf
0028a6 a188
0028a7 a199      	__GETD2S 30
0028a8 9508      	RET
                 
                 ;OPTIMIZER ADDED SUBROUTINE, CALLED 4 TIMES, CODE SIZE REDUCTION:15 WORDS
                 SUBOPT_0x4E:
0028a9 940e 31a7 	CALL __MULF12
0028ab 81aa
0028ac 81bb
0028ad 818c
0028ae 819d      	__GETD2S 2
0028af 940e 31a7 	CALL __MULF12
0028b1 9508      	RET
                 
                 ;OPTIMIZER ADDED SUBROUTINE, CALLED 14 TIMES, CODE SIZE REDUCTION:23 WORDS
                 SUBOPT_0x4F:
0028b2 81aa
0028b3 81bb
0028b4 818c
0028b5 819d      	__GETD2S 2
0028b6 9508      	RET
                 
                 ;OPTIMIZER ADDED SUBROUTINE, CALLED 5 TIMES, CODE SIZE REDUCTION:13 WORDS
                 SUBOPT_0x50:
0028b7 940e 3159 	CALL __ADDF12
0028b9 83ee
0028ba 83ff
0028bb 8768
0028bc 8779      	__PUTD1S 6
0028bd 9508      	RET
                 
                 ;OPTIMIZER ADDED SUBROUTINE, CALLED 25 TIMES, CODE SIZE REDUCTION:45 WORDS
                 SUBOPT_0x51:
0028be 81ae
0028bf 81bf
0028c0 8588
0028c1 8599      	__GETD2S 6
0028c2 9508      	RET
                 
                 ;OPTIMIZER ADDED SUBROUTINE, CALLED 20 TIMES, CODE SIZE REDUCTION:35 WORDS
                 SUBOPT_0x52:
0028c3 81ee
0028c4 81ff
0028c5 8568
0028c6 8579      	__GETD1S 6
0028c7 9508      	RET
                 
                 ;OPTIMIZER ADDED SUBROUTINE, CALLED 22 TIMES, CODE SIZE REDUCTION:39 WORDS
                 SUBOPT_0x53:
0028c8 81ea
0028c9 81fb
0028ca 816c
0028cb 817d      	__GETD1S 2
0028cc 9508      	RET
                 
                 ;OPTIMIZER ADDED SUBROUTINE, CALLED 3 TIMES, CODE SIZE REDUCTION:1 WORDS
                 SUBOPT_0x54:
0028cd dffa      	RCALL SUBOPT_0x53
0028ce cfa1      	RJMP SUBOPT_0x46
                 
                 ;OPTIMIZER ADDED SUBROUTINE, CALLED 3 TIMES, CODE SIZE REDUCTION:9 WORDS
                 SUBOPT_0x55:
0028cf dfaa      	RCALL SUBOPT_0x48
0028d0 e0e0
0028d1 e4f0
0028d2 e16c
0028d3 e476      	__GETD1N 0x461C4000
0028d4 940e 31a7 	CALL __MULF12
0028d6 9508      	RET
                 
                 ;OPTIMIZER ADDED SUBROUTINE, CALLED 3 TIMES, CODE SIZE REDUCTION:13 WORDS
                 SUBOPT_0x56:
0028d7 85aa
0028d8 85bb
0028d9 858c
0028da 859d      	__GETD2S 10
0028db e0e0
0028dc e4f0
0028dd e16c
0028de e476      	__GETD1N 0x461C4000
0028df 940e 31a7 	CALL __MULF12
0028e1 9508      	RET
                 
                 ;OPTIMIZER ADDED SUBROUTINE, CALLED 3 TIMES, CODE SIZE REDUCTION:45 WORDS
                 SUBOPT_0x57:
0028e2 940e 3159 	CALL __ADDF12
0028e4 01df      	MOVW R26,R30
0028e5 01cb      	MOVW R24,R22
0028e6 de6a      	RCALL SUBOPT_0x24
0028e7 940e 31f5 	CALL __DIVF21
0028e9 e0a0
0028ea e0b0
0028eb e080
0028ec e39f      	__GETD2N 0x3F000000
0028ed 940e 3159 	CALL __ADDF12
0028ef 940e 3049 	CALL __PUTPARD1
0028f1 940e 2f42 	CALL _floor
0028f3 01df      	MOVW R26,R30
0028f4 01cb      	MOVW R24,R22
0028f5 e0e0
0028f6 e4f0
0028f7 e16c
0028f8 e476      	__GETD1N 0x461C4000
0028f9 940e 31f5 	CALL __DIVF21
0028fb 9508      	RET
                 
                 ;OPTIMIZER ADDED SUBROUTINE, CALLED 3 TIMES, CODE SIZE REDUCTION:11 WORDS
                 SUBOPT_0x58:
0028fc e0f0      	LDI  R31,0
0028fd 940e 2f60 	CALL __LSLW2
0028ff 0fae      	ADD  R26,R30
002900 1fbf      	ADC  R27,R31
002901 940e 305b 	CALL __EEPROMRDD
002903 9508      	RET
                 
                 ;OPTIMIZER ADDED SUBROUTINE, CALLED 2 TIMES, CODE SIZE REDUCTION:5 WORDS
                 SUBOPT_0x59:
002904 e1a8
002905 e0b4      	__POINTW2MN _rprbdata,480
002906 8dee      	LDD  R30,Y+30
002907 e0f0      	LDI  R31,0
002908 0fae      	ADD  R26,R30
002909 1fbf      	ADC  R27,R31
00290a 940e 3064 	CALL __EEPROMRDB
00290c 9508      	RET
                 
                 ;OPTIMIZER ADDED SUBROUTINE, CALLED 2 TIMES, CODE SIZE REDUCTION:1 WORDS
                 SUBOPT_0x5A:
00290d 8def
00290e a1f8
00290f a169
002910 a17a      	__GETD1S 31
002911 940e 3049 	CALL __PUTPARD1
002913 9508      	RET
                 
                 ;OPTIMIZER ADDED SUBROUTINE, CALLED 2 TIMES, CODE SIZE REDUCTION:1 WORDS
                 SUBOPT_0x5B:
002914 01df      	MOVW R26,R30
002915 01cb      	MOVW R24,R22
002916 de47      	RCALL SUBOPT_0x26
002917 ce63      	RJMP SUBOPT_0x2B
                 
                 ;OPTIMIZER ADDED SUBROUTINE, CALLED 2 TIMES, CODE SIZE REDUCTION:1 WORDS
                 SUBOPT_0x5C:
002918 df61      	RCALL SUBOPT_0x48
002919 df65      	RCALL SUBOPT_0x49
00291a cf69      	RJMP SUBOPT_0x4A
                 
                 ;OPTIMIZER ADDED SUBROUTINE, CALLED 3 TIMES, CODE SIZE REDUCTION:1 WORDS
                 SUBOPT_0x5D:
00291b dfac      	RCALL SUBOPT_0x53
00291c 940e 3049 	CALL __PUTPARD1
00291e 9508      	RET
                 
                 ;OPTIMIZER ADDED SUBROUTINE, CALLED 16 TIMES, CODE SIZE REDUCTION:27 WORDS
                 SUBOPT_0x5E:
00291f 83ee
002920 83ff
002921 8768
002922 8779      	__PUTD1S 6
002923 9508      	RET
                 
                 ;OPTIMIZER ADDED SUBROUTINE, CALLED 9 TIMES, CODE SIZE REDUCTION:29 WORDS
                 SUBOPT_0x5F:
002924 df99      	RCALL SUBOPT_0x51
002925 de38      	RCALL SUBOPT_0x26
002926 ce54      	RJMP SUBOPT_0x2B
                 
                 ;OPTIMIZER ADDED SUBROUTINE, CALLED 2 TIMES, CODE SIZE REDUCTION:5 WORDS
                 SUBOPT_0x60:
002927 8daa
002928 8dbb
002929 8d8c
00292a 8d9d      	__GETD2S 26
00292b 940e 31a7 	CALL __MULF12
00292d df90      	RCALL SUBOPT_0x51
00292e 940e 3159 	CALL __ADDF12
002930 9508      	RET
                 
                 ;OPTIMIZER ADDED SUBROUTINE, CALLED 2 TIMES, CODE SIZE REDUCTION:1 WORDS
                 SUBOPT_0x61:
002931 89ae
002932 89bf
002933 8d88
002934 8d99      	__GETD2S 22
002935 940e 31a7 	CALL __MULF12
002937 9508      	RET
                 
                 ;OPTIMIZER ADDED SUBROUTINE, CALLED 5 TIMES, CODE SIZE REDUCTION:5 WORDS
                 SUBOPT_0x62:
002938 df8a      	RCALL SUBOPT_0x52
002939 940e 3049 	CALL __PUTPARD1
00293b 9508      	RET
                 
                 ;OPTIMIZER ADDED SUBROUTINE, CALLED 4 TIMES, CODE SIZE REDUCTION:3 WORDS
                 SUBOPT_0x63:
00293c df8b      	RCALL SUBOPT_0x53
00293d cf37      	RJMP SUBOPT_0x47
                 
                 ;OPTIMIZER ADDED SUBROUTINE, CALLED 2 TIMES, CODE SIZE REDUCTION:4 WORDS
                 SUBOPT_0x64:
00293e 9728      	SBIW R28,8
00293f 931a      	ST   -Y,R17
002940 930a      	ST   -Y,R16
002941 85aa
002942 85bb
002943 858c
002944 859d      	__GETD2S 10
002945 940e 3262 	CALL __CPD20
002947 9508      	RET
                 
                 ;OPTIMIZER ADDED SUBROUTINE, CALLED 3 TIMES, CODE SIZE REDUCTION:1 WORDS
                 SUBOPT_0x65:
002948 940e 3159 	CALL __ADDF12
00294a 01df      	MOVW R26,R30
00294b 01cb      	MOVW R24,R22
00294c 9508      	RET
                 
                 ;OPTIMIZER ADDED SUBROUTINE, CALLED 3 TIMES, CODE SIZE REDUCTION:1 WORDS
                 SUBOPT_0x66:
00294d 940e 3049 	CALL __PUTPARD1
00294f cbc3      	RJMP _log
                 
                 ;OPTIMIZER ADDED SUBROUTINE, CALLED 2 TIMES, CODE SIZE REDUCTION:1 WORDS
                 SUBOPT_0x67:
002950 83ea
002951 83fb
002952 836c
002953 837d      	__PUTD1S 2
002954 cfe7      	RJMP SUBOPT_0x63
                 
                 ;OPTIMIZER ADDED SUBROUTINE, CALLED 4 TIMES, CODE SIZE REDUCTION:12 WORDS
                 SUBOPT_0x68:
002955 01d8      	MOVW R26,R16
002956 e0f0      	LDI  R31,0
002957 17ae      	CP   R26,R30
002958 07bf      	CPC  R27,R31
002959 9508      	RET
                 
                 ;OPTIMIZER ADDED SUBROUTINE, CALLED 2 TIMES, CODE SIZE REDUCTION:11 WORDS
                 SUBOPT_0x69:
00295a 940e 2f60 	CALL __LSLW2
00295c 0fea      	ADD  R30,R26
00295d 1ffb      	ADC  R31,R27
00295e 940e 3043 	CALL __GETD1PF
002960 85aa
002961 85bb
002962 858c
002963 859d      	__GETD2S 10
002964 940e 31a7 	CALL __MULF12
002966 df57      	RCALL SUBOPT_0x51
002967 cf4f      	RJMP SUBOPT_0x50
                 
                 ;OPTIMIZER ADDED SUBROUTINE, CALLED 2 TIMES, CODE SIZE REDUCTION:5 WORDS
                 SUBOPT_0x6A:
002968 df5f      	RCALL SUBOPT_0x53
002969 85aa
00296a 85bb
00296b 858c
00296c 859d      	__GETD2S 10
00296d 940e 31a7 	CALL __MULF12
00296f cf05      	RJMP SUBOPT_0x47
                 
                 ;OPTIMIZER ADDED SUBROUTINE, CALLED 10 TIMES, CODE SIZE REDUCTION:15 WORDS
                 SUBOPT_0x6B:
002970 85aa
002971 85bb
002972 858c
002973 859d      	__GETD2S 10
002974 9508      	RET
                 
                 ;OPTIMIZER ADDED SUBROUTINE, CALLED 2 TIMES, CODE SIZE REDUCTION:3 WORDS
                 SUBOPT_0x6C:
002975 940e 31f5 	CALL __DIVF21
002977 dfa7      	RCALL SUBOPT_0x5E
002978 df4a      	RCALL SUBOPT_0x52
002979 cefb      	RJMP SUBOPT_0x47
                 
                 ;OPTIMIZER ADDED SUBROUTINE, CALLED 2 TIMES, CODE SIZE REDUCTION:3 WORDS
                 SUBOPT_0x6D:
00297a 940e 3043 	CALL __GETD1PF
00297c 83ea
00297d 83fb
00297e 836c
00297f 837d      	__PUTD1S 2
002980 e001
002981 e010      	__GETWRN 16,17,1
002982 9508      	RET
                 
                 ;OPTIMIZER ADDED SUBROUTINE, CALLED 2 TIMES, CODE SIZE REDUCTION:21 WORDS
                 SUBOPT_0x6E:
002983 940e 2f60 	CALL __LSLW2
002985 0fea      	ADD  R30,R26
002986 1ffb      	ADC  R31,R27
002987 940e 3043 	CALL __GETD1PF
002989 dfe6      	RCALL SUBOPT_0x6B
00298a 940e 31a7 	CALL __MULF12
00298c df25      	RCALL SUBOPT_0x4F
00298d 940e 3159 	CALL __ADDF12
00298f 83ea
002990 83fb
002991 836c
002992 837d      	__PUTD1S 2
002993 df2f      	RCALL SUBOPT_0x52
002994 dfdb      	RCALL SUBOPT_0x6B
002995 940e 31a7 	CALL __MULF12
002997 cedd      	RJMP SUBOPT_0x47
                 
                 ;OPTIMIZER ADDED SUBROUTINE, CALLED 8 TIMES, CODE SIZE REDUCTION:11 WORDS
                 SUBOPT_0x6F:
002998 83ea
002999 83fb
00299a 836c
00299b 837d      	__PUTD1S 2
00299c 9508      	RET
                 
                 ;OPTIMIZER ADDED SUBROUTINE, CALLED 8 TIMES, CODE SIZE REDUCTION:25 WORDS
                 SUBOPT_0x70:
00299d 85ad
00299e 85be
00299f 858f
0029a0 8998      	__GETD2S 13
0029a1 940e 3262 	CALL __CPD20
0029a3 9508      	RET
                 
                 ;OPTIMIZER ADDED SUBROUTINE, CALLED 4 TIMES, CODE SIZE REDUCTION:9 WORDS
                 SUBOPT_0x71:
0029a4 93e0 0718 	STS  _coef,R30
0029a6 93f0 0719 	STS  _coef+1,R31
0029a8 cff4      	RJMP SUBOPT_0x70
                 
                 ;OPTIMIZER ADDED SUBROUTINE, CALLED 2 TIMES, CODE SIZE REDUCTION:5 WORDS
                 SUBOPT_0x72:
0029a9 85ad
0029aa 85be
0029ab 858f
0029ac 8998      	__GETD2S 13
0029ad e5ec
0029ae eaf7
0029af e16d
0029b0 e474      	__GETD1N 0x441DA75C
0029b1 940e 323a 	CALL __CMPF12
0029b3 9508      	RET
                 
                 ;OPTIMIZER ADDED SUBROUTINE, CALLED 4 TIMES, CODE SIZE REDUCTION:3 WORDS
                 SUBOPT_0x73:
0029b4 93e0 0718 	STS  _coef,R30
0029b6 93f0 0719 	STS  _coef+1,R31
0029b8 9508      	RET
                 
                 ;OPTIMIZER ADDED SUBROUTINE, CALLED 2 TIMES, CODE SIZE REDUCTION:5 WORDS
                 SUBOPT_0x74:
0029b9 85ad
0029ba 85be
0029bb 858f
0029bc 8998      	__GETD2S 13
0029bd e0e0
0029be e0f0
0029bf e36e
0029c0 e474      	__GETD1N 0x443E0000
0029c1 940e 323a 	CALL __CMPF12
0029c3 9508      	RET
                 
                 ;OPTIMIZER ADDED SUBROUTINE, CALLED 12 TIMES, CODE SIZE REDUCTION:19 WORDS
                 SUBOPT_0x75:
0029c4 85ad
0029c5 85be
0029c6 858f
0029c7 8998      	__GETD2S 13
0029c8 9508      	RET
                 
                 ;OPTIMIZER ADDED SUBROUTINE, CALLED 4 TIMES, CODE SIZE REDUCTION:9 WORDS
                 SUBOPT_0x76:
0029c9 ece3
0029ca e0f5
0029cb e865
0029cc e474      	__GETD1N 0x448505C3
0029cd 940e 323a 	CALL __CMPF12
0029cf 9508      	RET
                 
                 ;OPTIMIZER ADDED SUBROUTINE, CALLED 4 TIMES, CODE SIZE REDUCTION:15 WORDS
                 SUBOPT_0x77:
0029d0 dff3      	RCALL SUBOPT_0x75
0029d1 e0e0
0029d2 e1f0
0029d3 ed60
0029d4 e474      	__GETD1N 0x44D01000
0029d5 940e 323a 	CALL __CMPF12
0029d7 9508      	RET
                 
                 ;OPTIMIZER ADDED SUBROUTINE, CALLED 2 TIMES, CODE SIZE REDUCTION:1 WORDS
                 SUBOPT_0x78:
0029d8 dfdb      	RCALL SUBOPT_0x73
0029d9 dfea      	RCALL SUBOPT_0x75
0029da cfee      	RJMP SUBOPT_0x76
                 
                 ;OPTIMIZER ADDED SUBROUTINE, CALLED 5 TIMES, CODE SIZE REDUCTION:5 WORDS
                 SUBOPT_0x79:
0029db e0e0
0029dc e0f0
0029dd e060
0029de e070      	__GETD1N 0x0
0029df 9508      	RET
                 
                 ;OPTIMIZER ADDED SUBROUTINE, CALLED 7 TIMES, CODE SIZE REDUCTION:9 WORDS
                 SUBOPT_0x7A:
0029e0 87e8
0029e1 87f9
0029e2 876a
0029e3 877b      	__PUTD1S 8
0029e4 9508      	RET
                 
                 ;OPTIMIZER ADDED SUBROUTINE, CALLED 2 TIMES, CODE SIZE REDUCTION:3 WORDS
                 SUBOPT_0x7B:
0029e5 dfde      	RCALL SUBOPT_0x75
0029e6 eeec
0029e7 eeff
0029e8 ef6d
0029e9 e472      	__GETD1N 0x42FDEFEC
0029ea cd90      	RJMP SUBOPT_0x2B
                 
                 ;OPTIMIZER ADDED SUBROUTINE, CALLED 3 TIMES, CODE SIZE REDUCTION:5 WORDS
                 SUBOPT_0x7C:
0029eb 940e 31a7 	CALL __MULF12
0029ed 940e 3049 	CALL __PUTPARD1
0029ef cb94      	RJMP _exp
                 
                 ;OPTIMIZER ADDED SUBROUTINE, CALLED 3 TIMES, CODE SIZE REDUCTION:13 WORDS
                 SUBOPT_0x7D:
0029f0 940e 31a7 	CALL __MULF12
0029f2 85a8
0029f3 85b9
0029f4 858a
0029f5 859b      	__GETD2S 8
0029f6 940e 3159 	CALL __ADDF12
0029f8 cfe7      	RJMP SUBOPT_0x7A
                 
                 ;OPTIMIZER ADDED SUBROUTINE, CALLED 7 TIMES, CODE SIZE REDUCTION:9 WORDS
                 SUBOPT_0x7E:
0029f9 83ec
0029fa 83fd
0029fb 836e
0029fc 837f      	__PUTD1S 4
0029fd 9508      	RET
                 
                 ;OPTIMIZER ADDED SUBROUTINE, CALLED 6 TIMES, CODE SIZE REDUCTION:7 WORDS
                 SUBOPT_0x7F:
0029fe 940e 2f60 	CALL __LSLW2
002a00 0fea      	ADD  R30,R26
002a01 1ffb      	ADC  R31,R27
002a02 9508      	RET
                 
                 ;OPTIMIZER ADDED SUBROUTINE, CALLED 8 TIMES, CODE SIZE REDUCTION:11 WORDS
                 SUBOPT_0x80:
002a03 85e8
002a04 85f9
002a05 856a
002a06 857b      	__GETD1S 8
002a07 9508      	RET
                 
                 ;OPTIMIZER ADDED SUBROUTINE, CALLED 4 TIMES, CODE SIZE REDUCTION:9 WORDS
                 SUBOPT_0x81:
002a08 e0e0
002a09 e0f0
002a0a e867
002a0b ec73      	__GETD1N 0xC3870000
002a0c ce63      	RJMP SUBOPT_0x46
                 
                 ;OPTIMIZER ADDED SUBROUTINE, CALLED 2 TIMES, CODE SIZE REDUCTION:7 WORDS
                 SUBOPT_0x82:
002a0d e0e0
002a0e e0f0
002a0f e468
002a10 ec72      	__GETD1N 0xC2480000
002a11 de5e      	RCALL SUBOPT_0x46
002a12 e0e0
002a13 e0f0
002a14 ed6d
002a15 e474      	__GETD1N 0x44DD0000
002a16 ce5e      	RJMP SUBOPT_0x47
                 
                 ;OPTIMIZER ADDED SUBROUTINE, CALLED 3 TIMES, CODE SIZE REDUCTION:1 WORDS
                 SUBOPT_0x83:
002a17 df07      	RCALL SUBOPT_0x5E
002a18 ceaa      	RJMP SUBOPT_0x52
                 
                 ;OPTIMIZER ADDED SUBROUTINE, CALLED 2 TIMES, CODE SIZE REDUCTION:3 WORDS
                 SUBOPT_0x84:
002a19 93fa      	ST   -Y,R31
002a1a 93ea      	ST   -Y,R30
002a1b e0e3      	LDI  R30,LOW(3)
002a1c 93ea      	ST   -Y,R30
002a1d e0e4      	LDI  R30,LOW(4)
002a1e 93ea      	ST   -Y,R30
002a1f 940c 0cdd 	JMP  _prints
                 
                 ;OPTIMIZER ADDED SUBROUTINE, CALLED 3 TIMES, CODE SIZE REDUCTION:7 WORDS
                 SUBOPT_0x85:
002a21 2fe1      	MOV  R30,R17
002a22 e0f0      	LDI  R31,0
002a23 5ee5      	SUBI R30,LOW(-_lcdcmd_G8)
002a24 4ff8      	SBCI R31,HIGH(-_lcdcmd_G8)
002a25 81e0      	LD   R30,Z
002a26 9508      	RET
                 
                 ;OPTIMIZER ADDED SUBROUTINE, CALLED 2 TIMES, CODE SIZE REDUCTION:8 WORDS
                 SUBOPT_0x86:
002a27 93ea      	ST   -Y,R30
002a28 940e 120d 	CALL _hex2char
002a2a e4e9      	LDI  R30,LOW(_hex2ch_G8)
002a2b e0f7      	LDI  R31,HIGH(_hex2ch_G8)
002a2c 93fa      	ST   -Y,R31
002a2d 93ea      	ST   -Y,R30
002a2e e0e2      	LDI  R30,LOW(2)
002a2f 93ea      	ST   -Y,R30
002a30 e0e4      	LDI  R30,LOW(4)
002a31 93ea      	ST   -Y,R30
002a32 940c 0cdd 	JMP  _prints
                 
                 ;OPTIMIZER ADDED SUBROUTINE, CALLED 3 TIMES, CODE SIZE REDUCTION:11 WORDS
                 SUBOPT_0x87:
002a34 81ec      	LDD  R30,Y+4
002a35 93ea      	ST   -Y,R30
002a36 940e 122c 	CALL _onecmd
002a38 e0e0
002a39 83e8
002a3a 83e9
002a3b 83ea
002a3c 83eb      	__CLRD1S 0
002a3d 9508      	RET
                 
                 ;OPTIMIZER ADDED SUBROUTINE, CALLED 2 TIMES, CODE SIZE REDUCTION:2 WORDS
                 SUBOPT_0x88:
002a3e e0e3      	LDI  R30,LOW(3)
002a3f 93e0 071b 	STS  _lcdcmd_G8,R30
002a41 e0e1      	LDI  R30,LOW(1)
002a42 93ea      	ST   -Y,R30
002a43 940c 1254 	JMP  _sendcmd
                 
                 ;OPTIMIZER ADDED SUBROUTINE, CALLED 3 TIMES, CODE SIZE REDUCTION:29 WORDS
                 SUBOPT_0x89:
002a45 93e0 071b 	STS  _lcdcmd_G8,R30
002a47 81eb      	LDD  R30,Y+3
002a48 93e0 071c 	__PUTB1MN _lcdcmd_G8,1
002a4a 81ea      	LDD  R30,Y+2
002a4b 93e0 071d 	__PUTB1MN _lcdcmd_G8,2
002a4d 81e9      	LDD  R30,Y+1
002a4e 93e0 071e 	__PUTB1MN _lcdcmd_G8,3
002a50 81e8      	LD   R30,Y
002a51 93e0 071f 	__PUTB1MN _lcdcmd_G8,4
002a53 e0e5      	LDI  R30,LOW(5)
002a54 93ea      	ST   -Y,R30
002a55 940c 1254 	JMP  _sendcmd
                 
                 ;OPTIMIZER ADDED SUBROUTINE, CALLED 2 TIMES, CODE SIZE REDUCTION:1 WORDS
                 SUBOPT_0x8A:
002a57 2fe1      	MOV  R30,R17
002a58 e0f0      	LDI  R31,0
002a59 5ee2
002a5a 4ff8      	__ADDW1MN _lcdcmd_G8,3
002a5b 9508      	RET
                 
                 ;OPTIMIZER ADDED SUBROUTINE, CALLED 4 TIMES, CODE SIZE REDUCTION:24 WORDS
                 SUBOPT_0x8B:
002a5c 93ea      	ST   -Y,R30
002a5d 81ec      	LDD  R30,Y+4
002a5e 93ea      	ST   -Y,R30
002a5f 81ec      	LDD  R30,Y+4
002a60 93ea      	ST   -Y,R30
002a61 81eb      	LDD  R30,Y+3
002a62 81fc      	LDD  R31,Y+3+1
002a63 93fa      	ST   -Y,R31
002a64 93ea      	ST   -Y,R30
002a65 940c 12c4 	JMP  _LCD_PrintChar
                 
                 ;OPTIMIZER ADDED SUBROUTINE, CALLED 3 TIMES, CODE SIZE REDUCTION:5 WORDS
                 SUBOPT_0x8C:
002a67 e0aa      	LDI  R26,LOW(10)
002a68 83a0      	STD  Z+0,R26
002a69 e8e2      	LDI  R30,LOW(_scancmd)
002a6a e0f7      	LDI  R31,HIGH(_scancmd)
002a6b 93fa      	ST   -Y,R31
002a6c 93ea      	ST   -Y,R30
002a6d 9508      	RET
                 
                 ;OPTIMIZER ADDED SUBROUTINE, CALLED 3 TIMES, CODE SIZE REDUCTION:3 WORDS
                 SUBOPT_0x8D:
002a6e 93ea      	ST   -Y,R30
002a6f e0e2      	LDI  R30,LOW(2)
002a70 93ea      	ST   -Y,R30
002a71 940c 0cdd 	JMP  _prints
                 
                 ;OPTIMIZER ADDED SUBROUTINE, CALLED 11 TIMES, CODE SIZE REDUCTION:17 WORDS
                 SUBOPT_0x8E:
002a73 e8e7      	LDI  R30,LOW(_navcmd_G9)
002a74 e0f7      	LDI  R31,HIGH(_navcmd_G9)
002a75 93fa      	ST   -Y,R31
002a76 93ea      	ST   -Y,R30
002a77 9508      	RET
                 
                 ;OPTIMIZER ADDED SUBROUTINE, CALLED 2 TIMES, CODE SIZE REDUCTION:12 WORDS
                 SUBOPT_0x8F:
002a78 e0e0      	LDI  R30,LOW(0)
002a79 93e0 0755 	STS  _navlen_G9,R30
002a7b e0e0
002a7c e0f0
002a7d e76a
002a7e ec74      	__GETD1N 0xC47A0000
002a7f 93e0 0756 	STS  _reading_G9,R30
002a81 93f0 0757 	STS  _reading_G9+1,R31
002a83 9360 0758 	STS  _reading_G9+2,R22
002a85 9370 0759 	STS  _reading_G9+3,R23
002a87 cfeb      	RJMP SUBOPT_0x8E
                 
                 ;OPTIMIZER ADDED SUBROUTINE, CALLED 2 TIMES, CODE SIZE REDUCTION:8 WORDS
                 SUBOPT_0x90:
002a88 e0e9      	LDI  R30,LOW(9)
002a89 93ea      	ST   -Y,R30
002a8a 940e 134c 	CALL _nav_command
002a8c e0e0      	LDI  R30,0
002a8d 93e0 0793 	STS  _navtime,R30
002a8f 93e0 0794 	STS  _navtime+1,R30
002a91 93e0 0795 	STS  _navtime+2,R30
002a93 93e0 0796 	STS  _navtime+3,R30
002a95 9508      	RET
                 
                 ;OPTIMIZER ADDED SUBROUTINE, CALLED 4 TIMES, CODE SIZE REDUCTION:3 WORDS
                 SUBOPT_0x91:
002a96 e0e0
002a97 e0f0
002a98 e76a
002a99 ec74      	__GETD1N 0xC47A0000
002a9a 9508      	RET
                 
                 ;OPTIMIZER ADDED SUBROUTINE, CALLED 5 TIMES, CODE SIZE REDUCTION:21 WORDS
                 SUBOPT_0x92:
002a9b 93e0 0756 	STS  _reading_G9,R30
002a9d 93f0 0757 	STS  _reading_G9+1,R31
002a9f 9360 0758 	STS  _reading_G9+2,R22
002aa1 9370 0759 	STS  _reading_G9+3,R23
002aa3 9508      	RET
                 
                 ;OPTIMIZER ADDED SUBROUTINE, CALLED 2 TIMES, CODE SIZE REDUCTION:2 WORDS
                 SUBOPT_0x93:
002aa4 e0e0      	LDI  R30,LOW(0)
002aa5 93e0 0755 	STS  _navlen_G9,R30
002aa7 dfee      	RCALL SUBOPT_0x91
002aa8 cff2      	RJMP SUBOPT_0x92
                 
                 ;OPTIMIZER ADDED SUBROUTINE, CALLED 2 TIMES, CODE SIZE REDUCTION:2 WORDS
                 SUBOPT_0x94:
002aa9 91e0 0755 	LDS  R30,_navlen_G9
002aab e0f0      	LDI  R31,0
002aac 5ae6      	SUBI R30,LOW(-_navread_G9)
002aad 4ff8      	SBCI R31,HIGH(-_navread_G9)
002aae 9508      	RET
                 
                 ;OPTIMIZER ADDED SUBROUTINE, CALLED 6 TIMES, CODE SIZE REDUCTION:7 WORDS
                 SUBOPT_0x95:
002aaf 940e 3049 	CALL __PUTPARD1
002ab1 940c 1ea1 	JMP  _wnd_floatinput
                 
                 ;OPTIMIZER ADDED SUBROUTINE, CALLED 4 TIMES, CODE SIZE REDUCTION:6 WORDS
                 SUBOPT_0x96:
002ab3 e0ea      	LDI  R30,LOW(10)
002ab4 93e0 07c3 	STS  _max_databuf,R30
002ab6 cb84      	RJMP SUBOPT_0x0
                 
                 ;OPTIMIZER ADDED SUBROUTINE, CALLED 3 TIMES, CODE SIZE REDUCTION:11 WORDS
                 SUBOPT_0x97:
002ab7 01f5      	MOVW R30,R10
002ab8 9631      	ADIW R30,1
002ab9 015f      	MOVW R10,R30
002aba e1e8      	LDI  R30,LOW(24)
002abb e0f0      	LDI  R31,HIGH(24)
002abc 15ea      	CP   R30,R10
002abd 05fb      	CPC  R31,R11
002abe 9508      	RET
                 
                 ;OPTIMIZER ADDED SUBROUTINE, CALLED 2 TIMES, CODE SIZE REDUCTION:8 WORDS
                 SUBOPT_0x98:
002abf 01f5      	MOVW R30,R10
002ac0 2f2e      	MOV  R18,R30
002ac1 01d5      	MOVW R26,R10
002ac2 9711      	SBIW R26,1
002ac3 01f8      	MOVW R30,R16
002ac4 940e 2fff 	CALL __MODW21
002ac6 1aae
002ac7 0abf      	__SUBWRR 10,11,30,31
002ac8 e030      	LDI  R19,LOW(0)
002ac9 9508      	RET
                 
                 ;OPTIMIZER ADDED SUBROUTINE, CALLED 11 TIMES, CODE SIZE REDUCTION:27 WORDS
                 SUBOPT_0x99:
002aca e0f0      	LDI  R31,0
002acb 17ea      	CP   R30,R26
002acc 07fb      	CPC  R31,R27
002acd 9508      	RET
                 
                 ;OPTIMIZER ADDED SUBROUTINE, CALLED 2 TIMES, CODE SIZE REDUCTION:14 WORDS
                 SUBOPT_0x9A:
002ace eaeb
002acf e0f8      	__POINTW1FN _0,231
002ad0 93fa      	ST   -Y,R31
002ad1 93ea      	ST   -Y,R30
002ad2 01f5      	MOVW R30,R10
002ad3 940e 2f6b 	CALL __CWD1
002ad5 940e 3049 	CALL __PUTPARD1
002ad7 e084      	LDI  R24,4
002ad8 940e 23c0 	CALL _sprintf
002ada 9628      	ADIW R28,8
002adb e0ea      	LDI  R30,LOW(10)
002adc 9fe3      	MUL  R30,R19
002add 01f0      	MOVW R30,R0
002ade 58ea      	SUBI R30,LOW(-_pgmain_chs*2)
002adf 4ffb      	SBCI R31,HIGH(-_pgmain_chs*2)
002ae0 9508      	RET
                 
                 ;OPTIMIZER ADDED SUBROUTINE, CALLED 2 TIMES, CODE SIZE REDUCTION:7 WORDS
                 SUBOPT_0x9B:
002ae1 e0f0      	LDI  R31,0
002ae2 0fae      	ADD  R26,R30
002ae3 1fbf      	ADC  R27,R31
002ae4 940e 3064 	CALL __EEPROMRDB
002ae6 93ea      	ST   -Y,R30
002ae7 940e 1b47 	CALL _getprbtype
002ae9 83ee      	STD  Y+6,R30
002aea 83ff      	STD  Y+6+1,R31
002aeb 9508      	RET
                 
                 ;OPTIMIZER ADDED SUBROUTINE, CALLED 3 TIMES, CODE SIZE REDUCTION:1 WORDS
                 SUBOPT_0x9C:
002aec ebe3
002aed e0f8      	__POINTW1FN _0,239
002aee cc9e      	RJMP SUBOPT_0x2E
                 
                 ;OPTIMIZER ADDED SUBROUTINE, CALLED 6 TIMES, CODE SIZE REDUCTION:12 WORDS
                 SUBOPT_0x9D:
002aef 01d5      	MOVW R26,R10
002af0 9711      	SBIW R26,1
002af1 16ca      	CP   R12,R26
002af2 06db      	CPC  R13,R27
002af3 9508      	RET
                 
                 ;OPTIMIZER ADDED SUBROUTINE, CALLED 8 TIMES, CODE SIZE REDUCTION:18 WORDS
                 SUBOPT_0x9E:
002af4 e0ea      	LDI  R30,LOW(10)
002af5 9fe3      	MUL  R30,R19
002af6 01f0      	MOVW R30,R0
002af7 56e2      	SUBI R30,LOW(-_pgmain_values*2)
002af8 4ffb      	SBCI R31,HIGH(-_pgmain_values*2)
002af9 9508      	RET
                 
                 ;OPTIMIZER ADDED SUBROUTINE, CALLED 8 TIMES, CODE SIZE REDUCTION:32 WORDS
                 SUBOPT_0x9F:
002afa e0ea      	LDI  R30,LOW(10)
002afb 9fe3      	MUL  R30,R19
002afc 01f0      	MOVW R30,R0
002afd 53ea      	SUBI R30,LOW(-_pgmain_temps*2)
002afe 4ffb      	SBCI R31,HIGH(-_pgmain_temps*2)
002aff 93fa      	ST   -Y,R31
002b00 93ea      	ST   -Y,R30
002b01 9508      	RET
                 
                 ;OPTIMIZER ADDED SUBROUTINE, CALLED 4 TIMES, CODE SIZE REDUCTION:9 WORDS
                 SUBOPT_0xA0:
002b02 93fa      	ST   -Y,R31
002b03 93ea      	ST   -Y,R30
002b04 e0e5      	LDI  R30,LOW(5)
002b05 93ea      	ST   -Y,R30
002b06 940c 1fb3 	JMP  _draw_label
                 
                 ;OPTIMIZER ADDED SUBROUTINE, CALLED 2 TIMES, CODE SIZE REDUCTION:8 WORDS
                 SUBOPT_0xA1:
002b08 ebee
002b09 e0f8      	__POINTW1FN _0,250
002b0a 93fa      	ST   -Y,R31
002b0b 93ea      	ST   -Y,R30
002b0c 01f5      	MOVW R30,R10
002b0d 9731      	SBIW R30,1
002b0e e0a0      	LDI  R26,LOW(_rundata)
002b0f e0b5      	LDI  R27,HIGH(_rundata)
002b10 940e 2f60 	CALL __LSLW2
002b12 cbb3      	RJMP SUBOPT_0x11
                 
                 ;OPTIMIZER ADDED SUBROUTINE, CALLED 29 TIMES, CODE SIZE REDUCTION:53 WORDS
                 SUBOPT_0xA2:
002b13 e084      	LDI  R24,4
002b14 940e 23c0 	CALL _sprintf
002b16 9628      	ADIW R28,8
002b17 9508      	RET
                 
                 ;OPTIMIZER ADDED SUBROUTINE, CALLED 8 TIMES, CODE SIZE REDUCTION:11 WORDS
                 SUBOPT_0xA3:
002b18 ede0
002b19 e0f5      	__POINTW1MN _strbuf,8
002b1a 93fa      	ST   -Y,R31
002b1b 93ea      	ST   -Y,R30
002b1c 9508      	RET
                 
                 ;OPTIMIZER ADDED SUBROUTINE, CALLED 3 TIMES, CODE SIZE REDUCTION:1 WORDS
                 SUBOPT_0xA4:
002b1d e080      	LDI  R24,0
002b1e 940e 23c0 	CALL _sprintf
002b20 9624      	ADIW R28,4
002b21 9508      	RET
                 
                 ;OPTIMIZER ADDED SUBROUTINE, CALLED 8 TIMES, CODE SIZE REDUCTION:32 WORDS
                 SUBOPT_0xA5:
002b22 e6a0
002b23 e0b5      	__POINTW2MN _rundata,96
002b24 01f5      	MOVW R30,R10
002b25 9731      	SBIW R30,1
002b26 940e 2f60 	CALL __LSLW2
002b28 9508      	RET
                 
                 ;OPTIMIZER ADDED SUBROUTINE, CALLED 4 TIMES, CODE SIZE REDUCTION:15 WORDS
                 SUBOPT_0xA6:
002b29 01df      	MOVW R26,R30
002b2a 01cb      	MOVW R24,R22
002b2b e0e0
002b2c eaf0
002b2d e06c
002b2e ec76      	__GETD1N 0xC60CA000
002b2f 940e 323a 	CALL __CMPF12
002b31 9508      	RET
                 
                 ;OPTIMIZER ADDED SUBROUTINE, CALLED 4 TIMES, CODE SIZE REDUCTION:9 WORDS
                 SUBOPT_0xA7:
002b32 ede4
002b33 e0f8      	__POINTW1FN _0,272
002b34 93fa      	ST   -Y,R31
002b35 93ea      	ST   -Y,R30
002b36 cfeb      	RJMP SUBOPT_0xA5
                 
                 ;OPTIMIZER ADDED SUBROUTINE, CALLED 4 TIMES, CODE SIZE REDUCTION:33 WORDS
                 SUBOPT_0xA8:
002b37 ede9
002b38 e0f8      	__POINTW1FN _0,277
002b39 93fa      	ST   -Y,R31
002b3a 93ea      	ST   -Y,R30
002b3b 85aa      	LDD  R26,Y+10
002b3c 85bb      	LDD  R27,Y+10+1
002b3d 91ec      	LD   R30,X
002b3e 27ff      	CLR  R31
002b3f 2766      	CLR  R22
002b40 2777      	CLR  R23
002b41 940e 3049 	CALL __PUTPARD1
002b43 cfcf      	RJMP SUBOPT_0xA2
                 
                 ;OPTIMIZER ADDED SUBROUTINE, CALLED 2 TIMES, CODE SIZE REDUCTION:3 WORDS
                 SUBOPT_0xA9:
002b44 e0ea      	LDI  R30,LOW(10)
002b45 9fe3      	MUL  R30,R19
002b46 01f0      	MOVW R30,R0
002b47 53ea      	SUBI R30,LOW(-_pgmain_temps*2)
002b48 4ffb      	SBCI R31,HIGH(-_pgmain_temps*2)
002b49 940e 303f 	CALL __GETW1PF
002b4b 9731      	SBIW R30,1
002b4c 9508      	RET
                 
                 ;OPTIMIZER ADDED SUBROUTINE, CALLED 4 TIMES, CODE SIZE REDUCTION:21 WORDS
                 SUBOPT_0xAA:
002b4d eded      	LDI  R30,LOW(221)
002b4e 93ea      	ST   -Y,R30
002b4f 2fa3      	MOV  R26,R19
002b50 27bb      	CLR  R27
002b51 ec6a
002b52 e074      	__POINTWRFN 22,23,_pgmain_temps,4
002b53 e0ea      	LDI  R30,LOW(10)
002b54 e0f0      	LDI  R31,HIGH(10)
002b55 cccc      	RJMP SUBOPT_0x3F
                 
                 ;OPTIMIZER ADDED SUBROUTINE, CALLED 4 TIMES, CODE SIZE REDUCTION:27 WORDS
                 SUBOPT_0xAB:
002b56 9732      	SBIW R30,2
002b57 93ea      	ST   -Y,R30
002b58 eee9      	LDI  R30,LOW(233)
002b59 93ea      	ST   -Y,R30
002b5a 2fa3      	MOV  R26,R19
002b5b 27bb      	CLR  R27
002b5c ec6a
002b5d e074      	__POINTWRFN 22,23,_pgmain_temps,4
002b5e e0ea      	LDI  R30,LOW(10)
002b5f e0f0      	LDI  R31,HIGH(10)
002b60 ccc1      	RJMP SUBOPT_0x3F
                 
                 ;OPTIMIZER ADDED SUBROUTINE, CALLED 3 TIMES, CODE SIZE REDUCTION:11 WORDS
                 SUBOPT_0xAC:
002b61 e2a6
002b62 e0b0      	__POINTW2MN _sysdata,38
002b63 01f5      	MOVW R30,R10
002b64 9731      	SBIW R30,1
002b65 0fae      	ADD  R26,R30
002b66 1fbf      	ADC  R27,R31
002b67 940e 3064 	CALL __EEPROMRDB
002b69 9508      	RET
                 
                 ;OPTIMIZER ADDED SUBROUTINE, CALLED 4 TIMES, CODE SIZE REDUCTION:3 WORDS
                 SUBOPT_0xAD:
002b6a de2d      	RCALL SUBOPT_0x6F
002b6b cd5c      	RJMP SUBOPT_0x53
                 
                 ;OPTIMIZER ADDED SUBROUTINE, CALLED 3 TIMES, CODE SIZE REDUCTION:7 WORDS
                 SUBOPT_0xAE:
002b6c 2fe1      	MOV  R30,R17
002b6d 50e1      	SUBI R30,LOW(1)
002b6e e0aa      	LDI  R26,LOW(10)
002b6f 9fea      	MUL  R30,R26
002b70 01f0      	MOVW R30,R0
002b71 5fe4      	SUBI R30,LOW(-_pgr_options*2)
002b72 4ffa      	SBCI R31,HIGH(-_pgr_options*2)
002b73 9508      	RET
                 
                 ;OPTIMIZER ADDED SUBROUTINE, CALLED 7 TIMES, CODE SIZE REDUCTION:21 WORDS
                 SUBOPT_0xAF:
002b74 940e 2f6b 	CALL __CWD1
002b76 940e 3049 	CALL __PUTPARD1
002b78 cf9a      	RJMP SUBOPT_0xA2
                 
                 ;OPTIMIZER ADDED SUBROUTINE, CALLED 17 TIMES, CODE SIZE REDUCTION:61 WORDS
                 SUBOPT_0xB0:
002b79 93fa      	ST   -Y,R31
002b7a 93ea      	ST   -Y,R30
002b7b e0e2      	LDI  R30,LOW(2)
002b7c 93ea      	ST   -Y,R30
002b7d 940c 1fb3 	JMP  _draw_label
                 
                 ;OPTIMIZER ADDED SUBROUTINE, CALLED 3 TIMES, CODE SIZE REDUCTION:7 WORDS
                 SUBOPT_0xB1:
002b7f 2fe1      	MOV  R30,R17
002b80 50e1      	SUBI R30,LOW(1)
002b81 e0aa      	LDI  R26,LOW(10)
002b82 9fea      	MUL  R30,R26
002b83 01f0      	MOVW R30,R0
002b84 5bea      	SUBI R30,LOW(-_pgt_options*2)
002b85 4ffa      	SBCI R31,HIGH(-_pgt_options*2)
002b86 9508      	RET
                 
                 ;OPTIMIZER ADDED SUBROUTINE, CALLED 3 TIMES, CODE SIZE REDUCTION:5 WORDS
                 SUBOPT_0xB2:
002b87 940e 3271 	CALL __SAVELOCR6
002b89 e006      	LDI  R16,6
002b8a e011      	LDI  R17,1
002b8b e128      	LDI  R18,24
002b8c e031      	LDI  R19,1
002b8d 9508      	RET
                 
                 ;OPTIMIZER ADDED SUBROUTINE, CALLED 7 TIMES, CODE SIZE REDUCTION:9 WORDS
                 SUBOPT_0xB3:
002b8e 91e0 079b 	LDS  R30,_curr_pos_S4D
002b90 91f0 079c 	LDS  R31,_curr_pos_S4D+1
002b92 9508      	RET
                 
                 ;OPTIMIZER ADDED SUBROUTINE, CALLED 2 TIMES, CODE SIZE REDUCTION:1 WORDS
                 SUBOPT_0xB4:
002b93 93e0 079d 	STS  _last_pos_S4D,R30
002b95 93f0 079e 	STS  _last_pos_S4D+1,R31
002b97 cff6      	RJMP SUBOPT_0xB3
                 
                 ;OPTIMIZER ADDED SUBROUTINE, CALLED 5 TIMES, CODE SIZE REDUCTION:5 WORDS
                 SUBOPT_0xB5:
002b98 93e0 079b 	STS  _curr_pos_S4D,R30
002b9a 93f0 079c 	STS  _curr_pos_S4D+1,R31
002b9c 9508      	RET
                 
                 ;OPTIMIZER ADDED SUBROUTINE, CALLED 3 TIMES, CODE SIZE REDUCTION:7 WORDS
                 SUBOPT_0xB6:
002b9d 91a0 079b 	LDS  R26,_curr_pos_S4D
002b9f 91b0 079c 	LDS  R27,_curr_pos_S4D+1
002ba1 e0f0      	LDI  R31,0
002ba2 9508      	RET
                 
                 ;OPTIMIZER ADDED SUBROUTINE, CALLED 3 TIMES, CODE SIZE REDUCTION:1 WORDS
                 SUBOPT_0xB7:
002ba3 2fe2      	MOV  R30,R18
002ba4 e0f0      	LDI  R31,0
002ba5 9508      	RET
                 
                 ;OPTIMIZER ADDED SUBROUTINE, CALLED 2 TIMES, CODE SIZE REDUCTION:3 WORDS
                 SUBOPT_0xB8:
002ba6 dfe7      	RCALL SUBOPT_0xB3
002ba7 91a0 079d 	LDS  R26,_last_pos_S4D
002ba9 91b0 079e 	LDS  R27,_last_pos_S4D+1
002bab 17ea      	CP   R30,R26
002bac 07fb      	CPC  R31,R27
002bad 9508      	RET
                 
                 ;OPTIMIZER ADDED SUBROUTINE, CALLED 4 TIMES, CODE SIZE REDUCTION:3 WORDS
                 SUBOPT_0xB9:
002bae 91a0 079b 	LDS  R26,_curr_pos_S4D
002bb0 91b0 079c 	LDS  R27,_curr_pos_S4D+1
002bb2 9508      	RET
                 
                 ;OPTIMIZER ADDED SUBROUTINE, CALLED 3 TIMES, CODE SIZE REDUCTION:1 WORDS
                 SUBOPT_0xBA:
002bb3 2fe3      	MOV  R30,R19
002bb4 e0f0      	LDI  R31,0
002bb5 9508      	RET
                 
                 ;OPTIMIZER ADDED SUBROUTINE, CALLED 2 TIMES, CODE SIZE REDUCTION:1 WORDS
                 SUBOPT_0xBB:
002bb6 9731      	SBIW R30,1
002bb7 0fae      	ADD  R26,R30
002bb8 1fbf      	ADC  R27,R31
002bb9 efef      	LDI  R30,LOW(255)
002bba 940e 3083 	CALL __EEPROMWRB
002bbc 9508      	RET
                 
                 ;OPTIMIZER ADDED SUBROUTINE, CALLED 3 TIMES, CODE SIZE REDUCTION:1 WORDS
                 SUBOPT_0xBC:
002bbd ecee
002bbe e0f9      	__POINTW1FN _0,522
002bbf 93fa      	ST   -Y,R31
002bc0 93ea      	ST   -Y,R30
002bc1 9508      	RET
                 
                 ;OPTIMIZER ADDED SUBROUTINE, CALLED 9 TIMES, CODE SIZE REDUCTION:13 WORDS
                 SUBOPT_0xBD:
002bc2 2766      	CLR  R22
002bc3 2777      	CLR  R23
002bc4 940e 3049 	CALL __PUTPARD1
002bc6 9508      	RET
                 
                 ;OPTIMIZER ADDED SUBROUTINE, CALLED 2 TIMES, CODE SIZE REDUCTION:1 WORDS
                 SUBOPT_0xBE:
002bc7 2fe1      	MOV  R30,R17
002bc8 e0f0      	LDI  R31,0
002bc9 87e8      	STD  Y+8,R30
002bca 87f9      	STD  Y+8+1,R31
002bcb 9508      	RET
                 
                 ;OPTIMIZER ADDED SUBROUTINE, CALLED 3 TIMES, CODE SIZE REDUCTION:7 WORDS
                 SUBOPT_0xBF:
002bcc dfe1      	RCALL SUBOPT_0xB9
002bcd 9711      	SBIW R26,1
002bce 2fe0      	MOV  R30,R16
002bcf e0f0      	LDI  R31,0
002bd0 9508      	RET
                 
                 ;OPTIMIZER ADDED SUBROUTINE, CALLED 3 TIMES, CODE SIZE REDUCTION:11 WORDS
                 SUBOPT_0xC0:
002bd1 940e 2fb5 	CALL __DIVW21U
002bd3 01df      	MOVW R26,R30
002bd4 2fe0      	MOV  R30,R16
002bd5 e0f0      	LDI  R31,0
002bd6 940e 2f75 	CALL __MULW12U
002bd8 9508      	RET
                 
                 ;OPTIMIZER ADDED SUBROUTINE, CALLED 2 TIMES, CODE SIZE REDUCTION:3 WORDS
                 SUBOPT_0xC1:
002bd9 81ee      	LDD  R30,Y+6
002bda 81ff      	LDD  R31,Y+6+1
002bdb 9731      	SBIW R30,1
002bdc 0fae      	ADD  R26,R30
002bdd 1fbf      	ADC  R27,R31
002bde 940e 3064 	CALL __EEPROMRDB
002be0 3fef      	CPI  R30,LOW(0xFF)
002be1 9508      	RET
                 
                 ;OPTIMIZER ADDED SUBROUTINE, CALLED 2 TIMES, CODE SIZE REDUCTION:3 WORDS
                 SUBOPT_0xC2:
002be2 ede1
002be3 e0f9      	__POINTW1FN _0,525
002be4 93fa      	ST   -Y,R31
002be5 93ea      	ST   -Y,R30
002be6 85ea      	LDD  R30,Y+10
002be7 85fb      	LDD  R31,Y+10+1
002be8 cf8b      	RJMP SUBOPT_0xAF
                 
                 ;OPTIMIZER ADDED SUBROUTINE, CALLED 2 TIMES, CODE SIZE REDUCTION:5 WORDS
                 SUBOPT_0xC3:
002be9 ede8
002bea e0f9      	__POINTW1FN _0,532
002beb 93fa      	ST   -Y,R31
002bec 93ea      	ST   -Y,R30
002bed 85ea      	LDD  R30,Y+10
002bee 85fb      	LDD  R31,Y+10+1
002bef 940e 2f6b 	CALL __CWD1
002bf1 940e 3049 	CALL __PUTPARD1
002bf3 9508      	RET
                 
                 ;OPTIMIZER ADDED SUBROUTINE, CALLED 2 TIMES, CODE SIZE REDUCTION:3 WORDS
                 SUBOPT_0xC4:
002bf4 85ee      	LDD  R30,Y+14
002bf5 85ff      	LDD  R31,Y+14+1
002bf6 9731      	SBIW R30,1
002bf7 0fae      	ADD  R26,R30
002bf8 1fbf      	ADC  R27,R31
002bf9 940e 3064 	CALL __EEPROMRDB
002bfb 93ea      	ST   -Y,R30
002bfc 9508      	RET
                 
                 ;OPTIMIZER ADDED SUBROUTINE, CALLED 3 TIMES, CODE SIZE REDUCTION:1 WORDS
                 SUBOPT_0xC5:
002bfd e088      	LDI  R24,8
002bfe 940e 23c0 	CALL _sprintf
002c00 962c      	ADIW R28,12
002c01 9508      	RET
                 
                 ;OPTIMIZER ADDED SUBROUTINE, CALLED 4 TIMES, CODE SIZE REDUCTION:18 WORDS
                 SUBOPT_0xC6:
002c02 85a8      	LDD  R26,Y+8
002c03 85b9      	LDD  R27,Y+8+1
002c04 9711      	SBIW R26,1
002c05 e0ea      	LDI  R30,LOW(10)
002c06 e0f0      	LDI  R31,HIGH(10)
002c07 940e 2f75 	CALL __MULW12U
002c09 58ee      	SUBI R30,LOW(-_pgch_items*2)
002c0a 4ffa      	SBCI R31,HIGH(-_pgch_items*2)
002c0b 9508      	RET
                 
                 ;OPTIMIZER ADDED SUBROUTINE, CALLED 3 TIMES, CODE SIZE REDUCTION:9 WORDS
                 SUBOPT_0xC7:
002c0c 940e 2ffc 	CALL __MODW21U
002c0e 01df      	MOVW R26,R30
002c0f 85e8      	LDD  R30,Y+8
002c10 85f9      	LDD  R31,Y+8+1
002c11 9731      	SBIW R30,1
002c12 17ea      	CP   R30,R26
002c13 07fb      	CPC  R31,R27
002c14 9508      	RET
                 
                 ;OPTIMIZER ADDED SUBROUTINE, CALLED 5 TIMES, CODE SIZE REDUCTION:9 WORDS
                 SUBOPT_0xC8:
002c15 85e8      	LDD  R30,Y+8
002c16 85f9      	LDD  R31,Y+8+1
002c17 9631      	ADIW R30,1
002c18 87e8      	STD  Y+8,R30
002c19 87f9      	STD  Y+8+1,R31
002c1a 9508      	RET
                 
                 ;OPTIMIZER ADDED SUBROUTINE, CALLED 9 TIMES, CODE SIZE REDUCTION:21 WORDS
                 SUBOPT_0xC9:
002c1b 9711      	SBIW R26,1
002c1c 2fe0      	MOV  R30,R16
002c1d e0f0      	LDI  R31,0
002c1e 9508      	RET
                 
                 ;OPTIMIZER ADDED SUBROUTINE, CALLED 5 TIMES, CODE SIZE REDUCTION:5 WORDS
                 SUBOPT_0xCA:
002c1f 93e0 079f 	STS  _curr_pos_S4E,R30
002c21 93f0 07a0 	STS  _curr_pos_S4E+1,R31
002c23 9508      	RET
                 
                 ;OPTIMIZER ADDED SUBROUTINE, CALLED 7 TIMES, CODE SIZE REDUCTION:9 WORDS
                 SUBOPT_0xCB:
002c24 91e0 079f 	LDS  R30,_curr_pos_S4E
002c26 91f0 07a0 	LDS  R31,_curr_pos_S4E+1
002c28 9508      	RET
                 
                 ;OPTIMIZER ADDED SUBROUTINE, CALLED 2 TIMES, CODE SIZE REDUCTION:1 WORDS
                 SUBOPT_0xCC:
002c29 93e0 07a1 	STS  _last_pos_S4E,R30
002c2b 93f0 07a2 	STS  _last_pos_S4E+1,R31
002c2d cff6      	RJMP SUBOPT_0xCB
                 
                 ;OPTIMIZER ADDED SUBROUTINE, CALLED 3 TIMES, CODE SIZE REDUCTION:7 WORDS
                 SUBOPT_0xCD:
002c2e 91a0 079f 	LDS  R26,_curr_pos_S4E
002c30 91b0 07a0 	LDS  R27,_curr_pos_S4E+1
002c32 e0f0      	LDI  R31,0
002c33 9508      	RET
                 
                 ;OPTIMIZER ADDED SUBROUTINE, CALLED 2 TIMES, CODE SIZE REDUCTION:3 WORDS
                 SUBOPT_0xCE:
002c34 dfef      	RCALL SUBOPT_0xCB
002c35 91a0 07a1 	LDS  R26,_last_pos_S4E
002c37 91b0 07a2 	LDS  R27,_last_pos_S4E+1
002c39 17ea      	CP   R30,R26
002c3a 07fb      	CPC  R31,R27
002c3b 9508      	RET
                 
                 ;OPTIMIZER ADDED SUBROUTINE, CALLED 4 TIMES, CODE SIZE REDUCTION:3 WORDS
                 SUBOPT_0xCF:
002c3c 91a0 079f 	LDS  R26,_curr_pos_S4E
002c3e 91b0 07a0 	LDS  R27,_curr_pos_S4E+1
002c40 9508      	RET
                 
                 ;OPTIMIZER ADDED SUBROUTINE, CALLED 3 TIMES, CODE SIZE REDUCTION:1 WORDS
                 SUBOPT_0xD0:
002c41 dffa      	RCALL SUBOPT_0xCF
002c42 cfd8      	RJMP SUBOPT_0xC9
                 
                 ;OPTIMIZER ADDED SUBROUTINE, CALLED 2 TIMES, CODE SIZE REDUCTION:9 WORDS
                 SUBOPT_0xD1:
002c43 efe3
002c44 e0f9      	__POINTW1FN _0,559
002c45 93fa      	ST   -Y,R31
002c46 93ea      	ST   -Y,R30
002c47 85eb      	LDD  R30,Y+11
002c48 85fc      	LDD  R31,Y+11+1
002c49 940e 2f6b 	CALL __CWD1
002c4b 940e 3049 	CALL __PUTPARD1
002c4d 85ef      	LDD  R30,Y+15
002c4e 89f8      	LDD  R31,Y+15+1
002c4f 9731      	SBIW R30,1
002c50 93ea      	ST   -Y,R30
002c51 9508      	RET
                 
                 ;OPTIMIZER ADDED SUBROUTINE, CALLED 2 TIMES, CODE SIZE REDUCTION:6 WORDS
                 SUBOPT_0xD2:
002c52 01da      	MOVW R26,R20
002c53 9711      	SBIW R26,1
002c54 e0ea      	LDI  R30,LOW(10)
002c55 e0f0      	LDI  R31,HIGH(10)
002c56 940e 2f75 	CALL __MULW12U
002c58 53ea      	SUBI R30,LOW(-_pgprbset_items*2)
002c59 4ffa      	SBCI R31,HIGH(-_pgprbset_items*2)
002c5a cb5f      	RJMP SUBOPT_0x31
                 
                 ;OPTIMIZER ADDED SUBROUTINE, CALLED 3 TIMES, CODE SIZE REDUCTION:9 WORDS
                 SUBOPT_0xD3:
002c5b 940e 2ffc 	CALL __MODW21U
002c5d 01df      	MOVW R26,R30
002c5e 01fa      	MOVW R30,R20
002c5f 9731      	SBIW R30,1
002c60 17ea      	CP   R30,R26
002c61 07fb      	CPC  R31,R27
002c62 9508      	RET
                 
                 ;OPTIMIZER ADDED SUBROUTINE, CALLED 3 TIMES, CODE SIZE REDUCTION:15 WORDS
                 SUBOPT_0xD4:
002c63 01da      	MOVW R26,R20
002c64 9711      	SBIW R26,1
002c65 e0ea      	LDI  R30,LOW(10)
002c66 e0f0      	LDI  R31,HIGH(10)
002c67 940e 2f75 	CALL __MULW12U
002c69 53ea      	SUBI R30,LOW(-_pgprbset_items*2)
002c6a 4ffa      	SBCI R31,HIGH(-_pgprbset_items*2)
002c6b cf0d      	RJMP SUBOPT_0xB0
                 
                 ;OPTIMIZER ADDED SUBROUTINE, CALLED 5 TIMES, CODE SIZE REDUCTION:9 WORDS
                 SUBOPT_0xD5:
002c6c 91e0 07a3 	LDS  R30,_curr_pos_S4F
002c6e 91f0 07a4 	LDS  R31,_curr_pos_S4F+1
002c70 9731      	SBIW R30,1
002c71 9508      	RET
                 
                 ;OPTIMIZER ADDED SUBROUTINE, CALLED 2 TIMES, CODE SIZE REDUCTION:2 WORDS
                 SUBOPT_0xD6:
002c72 940e 2f5e 	CALL __LSLW3
002c74 0fae      	ADD  R26,R30
002c75 1fbf      	ADC  R27,R31
002c76 940e 3064 	CALL __EEPROMRDB
002c78 30e0      	CPI  R30,0
002c79 9508      	RET
                 
                 ;OPTIMIZER ADDED SUBROUTINE, CALLED 2 TIMES, CODE SIZE REDUCTION:2 WORDS
                 SUBOPT_0xD7:
002c7a 01f3      	MOVW R30,R6
002c7b 9731      	SBIW R30,1
002c7c 0fae      	ADD  R26,R30
002c7d 1fbf      	ADC  R27,R31
002c7e cfed      	RJMP SUBOPT_0xD5
                 
                 ;OPTIMIZER ADDED SUBROUTINE, CALLED 5 TIMES, CODE SIZE REDUCTION:5 WORDS
                 SUBOPT_0xD8:
002c7f 93e0 07a3 	STS  _curr_pos_S4F,R30
002c81 93f0 07a4 	STS  _curr_pos_S4F+1,R31
002c83 9508      	RET
                 
                 ;OPTIMIZER ADDED SUBROUTINE, CALLED 6 TIMES, CODE SIZE REDUCTION:7 WORDS
                 SUBOPT_0xD9:
002c84 91e0 07a3 	LDS  R30,_curr_pos_S4F
002c86 91f0 07a4 	LDS  R31,_curr_pos_S4F+1
002c88 9508      	RET
                 
                 ;OPTIMIZER ADDED SUBROUTINE, CALLED 3 TIMES, CODE SIZE REDUCTION:7 WORDS
                 SUBOPT_0xDA:
002c89 91a0 07a3 	LDS  R26,_curr_pos_S4F
002c8b 91b0 07a4 	LDS  R27,_curr_pos_S4F+1
002c8d e0f0      	LDI  R31,0
002c8e 9508      	RET
                 
                 ;OPTIMIZER ADDED SUBROUTINE, CALLED 2 TIMES, CODE SIZE REDUCTION:3 WORDS
                 SUBOPT_0xDB:
002c8f dff4      	RCALL SUBOPT_0xD9
002c90 91a0 07a5 	LDS  R26,_last_pos_S4F
002c92 91b0 07a6 	LDS  R27,_last_pos_S4F+1
002c94 17ea      	CP   R30,R26
002c95 07fb      	CPC  R31,R27
002c96 9508      	RET
                 
                 ;OPTIMIZER ADDED SUBROUTINE, CALLED 4 TIMES, CODE SIZE REDUCTION:3 WORDS
                 SUBOPT_0xDC:
002c97 91a0 07a3 	LDS  R26,_curr_pos_S4F
002c99 91b0 07a4 	LDS  R27,_curr_pos_S4F+1
002c9b 9508      	RET
                 
                 ;OPTIMIZER ADDED SUBROUTINE, CALLED 3 TIMES, CODE SIZE REDUCTION:1 WORDS
                 SUBOPT_0xDD:
002c9c dffa      	RCALL SUBOPT_0xDC
002c9d cf7d      	RJMP SUBOPT_0xC9
                 
                 ;OPTIMIZER ADDED SUBROUTINE, CALLED 2 TIMES, CODE SIZE REDUCTION:2 WORDS
                 SUBOPT_0xDE:
002c9e eded
002c9f e0f9      	__POINTW1FN _0,537
002ca0 93fa      	ST   -Y,R31
002ca1 93ea      	ST   -Y,R30
002ca2 2fe4      	MOV  R30,R20
002ca3 50e1      	SUBI R30,LOW(1)
002ca4 93ea      	ST   -Y,R30
002ca5 9508      	RET
                 
                 ;OPTIMIZER ADDED SUBROUTINE, CALLED 5 TIMES, CODE SIZE REDUCTION:5 WORDS
                 SUBOPT_0xDF:
002ca6 940e 3049 	CALL __PUTPARD1
002ca8 ce6a      	RJMP SUBOPT_0xA2
                 
                 ;OPTIMIZER ADDED SUBROUTINE, CALLED 2 TIMES, CODE SIZE REDUCTION:4 WORDS
                 SUBOPT_0xE0:
002ca9 2fe5      	MOV  R30,R21
002caa 50e1      	SUBI R30,LOW(1)
002cab e0aa      	LDI  R26,LOW(10)
002cac 9fea      	MUL  R30,R26
002cad 01f0      	MOVW R30,R0
002cae 5ee4      	SUBI R30,LOW(-_prblist_items*2)
002caf 4ff9      	SBCI R31,HIGH(-_prblist_items*2)
002cb0 cb09      	RJMP SUBOPT_0x31
                 
                 ;OPTIMIZER ADDED SUBROUTINE, CALLED 3 TIMES, CODE SIZE REDUCTION:5 WORDS
                 SUBOPT_0xE1:
002cb1 940e 2ffc 	CALL __MODW21U
002cb3 01df      	MOVW R26,R30
002cb4 2fe5      	MOV  R30,R21
002cb5 cb93      	RJMP SUBOPT_0x42
                 
                 ;OPTIMIZER ADDED SUBROUTINE, CALLED 3 TIMES, CODE SIZE REDUCTION:11 WORDS
                 SUBOPT_0xE2:
002cb6 2fe5      	MOV  R30,R21
002cb7 50e1      	SUBI R30,LOW(1)
002cb8 e0aa      	LDI  R26,LOW(10)
002cb9 9fea      	MUL  R30,R26
002cba 01f0      	MOVW R30,R0
002cbb 5ee4      	SUBI R30,LOW(-_prblist_items*2)
002cbc 4ff9      	SBCI R31,HIGH(-_prblist_items*2)
002cbd cebb      	RJMP SUBOPT_0xB0
                 
                 ;OPTIMIZER ADDED SUBROUTINE, CALLED 2 TIMES, CODE SIZE REDUCTION:2 WORDS
                 SUBOPT_0xE3:
002cbe e2a0
002cbf e0b2      	__POINTW2MN _tprbdata,480
002cc0 01f4      	MOVW R30,R8
002cc1 9731      	SBIW R30,1
002cc2 0fae      	ADD  R26,R30
002cc3 1fbf      	ADC  R27,R31
002cc4 9508      	RET
                 
                 ;OPTIMIZER ADDED SUBROUTINE, CALLED 7 TIMES, CODE SIZE REDUCTION:27 WORDS
                 SUBOPT_0xE4:
002cc5 e1a8
002cc6 e0b4      	__POINTW2MN _rprbdata,480
002cc7 01f4      	MOVW R30,R8
002cc8 9731      	SBIW R30,1
002cc9 0fae      	ADD  R26,R30
002cca 1fbf      	ADC  R27,R31
002ccb 9508      	RET
                 
                 ;OPTIMIZER ADDED SUBROUTINE, CALLED 3 TIMES, CODE SIZE REDUCTION:5 WORDS
                 SUBOPT_0xE5:
002ccc 93fa      	ST   -Y,R31
002ccd 93ea      	ST   -Y,R30
002cce 01f4      	MOVW R30,R8
002ccf cea4      	RJMP SUBOPT_0xAF
                 
                 ;OPTIMIZER ADDED SUBROUTINE, CALLED 3 TIMES, CODE SIZE REDUCTION:7 WORDS
                 SUBOPT_0xE6:
002cd0 2fe3      	MOV  R30,R19
002cd1 50e1      	SUBI R30,LOW(1)
002cd2 e0aa      	LDI  R26,LOW(10)
002cd3 9fea      	MUL  R30,R26
002cd4 01f0      	MOVW R30,R0
002cd5 59e8      	SUBI R30,LOW(-_tplist_options*2)
002cd6 4ff9      	SBCI R31,HIGH(-_tplist_options*2)
002cd7 9508      	RET
                 
                 ;OPTIMIZER ADDED SUBROUTINE, CALLED 5 TIMES, CODE SIZE REDUCTION:5 WORDS
                 SUBOPT_0xE7:
002cd8 91e0 07a7 	LDS  R30,_curr_sel_S50
002cda 91f0 07a8 	LDS  R31,_curr_sel_S50+1
002cdc 9508      	RET
                 
                 ;OPTIMIZER ADDED SUBROUTINE, CALLED 2 TIMES, CODE SIZE REDUCTION:1 WORDS
                 SUBOPT_0xE8:
002cdd 93e0 07a9 	STS  _last_sel_S50,R30
002cdf 93f0 07aa 	STS  _last_sel_S50+1,R31
002ce1 cff6      	RJMP SUBOPT_0xE7
                 
                 ;OPTIMIZER ADDED SUBROUTINE, CALLED 4 TIMES, CODE SIZE REDUCTION:3 WORDS
                 SUBOPT_0xE9:
002ce2 93e0 07a7 	STS  _curr_sel_S50,R30
002ce4 93f0 07a8 	STS  _curr_sel_S50+1,R31
002ce6 9508      	RET
                 
                 ;OPTIMIZER ADDED SUBROUTINE, CALLED 3 TIMES, CODE SIZE REDUCTION:1 WORDS
                 SUBOPT_0xEA:
002ce7 91a0 07a7 	LDS  R26,_curr_sel_S50
002ce9 91b0 07a8 	LDS  R27,_curr_sel_S50+1
002ceb 9508      	RET
                 
                 ;OPTIMIZER ADDED SUBROUTINE, CALLED 3 TIMES, CODE SIZE REDUCTION:1 WORDS
                 SUBOPT_0xEB:
002cec 2fe0      	MOV  R30,R16
002ced e0f0      	LDI  R31,0
002cee 9508      	RET
                 
                 ;OPTIMIZER ADDED SUBROUTINE, CALLED 10 TIMES, CODE SIZE REDUCTION:15 WORDS
                 SUBOPT_0xEC:
002cef eaeb      	LDI  R30,LOW(_PRBSTR)
002cf0 e0f7      	LDI  R31,HIGH(_PRBSTR)
002cf1 93fa      	ST   -Y,R31
002cf2 93ea      	ST   -Y,R30
002cf3 9508      	RET
                 
                 ;OPTIMIZER ADDED SUBROUTINE, CALLED 4 TIMES, CODE SIZE REDUCTION:3 WORDS
                 SUBOPT_0xED:
002cf4 edec
002cf5 e0f9      	__POINTW1FN _0,536
002cf6 93fa      	ST   -Y,R31
002cf7 93ea      	ST   -Y,R30
002cf8 9508      	RET
                 
                 ;OPTIMIZER ADDED SUBROUTINE, CALLED 2 TIMES, CODE SIZE REDUCTION:2 WORDS
                 SUBOPT_0xEE:
002cf9 940e 3064 	CALL __EEPROMRDB
002cfb 93ea      	ST   -Y,R30
002cfc 940e 1b47 	CALL _getprbtype
002cfe cec3      	RJMP SUBOPT_0xBD
                 
                 ;OPTIMIZER ADDED SUBROUTINE, CALLED 2 TIMES, CODE SIZE REDUCTION:10 WORDS
                 SUBOPT_0xEF:
002cff 93fa      	ST   -Y,R31
002d00 93ea      	ST   -Y,R30
002d01 efa8
002d02 e0b2      	__POINTW2MN _rprbdata,192
002d03 01f4      	MOVW R30,R8
002d04 9731      	SBIW R30,1
002d05 940e 2f60 	CALL __LSLW2
002d07 0fae      	ADD  R26,R30
002d08 1fbf      	ADC  R27,R31
002d09 940e 305b 	CALL __EEPROMRDD
002d0b cf9a      	RJMP SUBOPT_0xDF
                 
                 ;OPTIMIZER ADDED SUBROUTINE, CALLED 3 TIMES, CODE SIZE REDUCTION:15 WORDS
                 SUBOPT_0xF0:
002d0c 01f4      	MOVW R30,R8
002d0d 9731      	SBIW R30,1
002d0e e3a8      	LDI  R26,LOW(_rprbdata)
002d0f e0b2      	LDI  R27,HIGH(_rprbdata)
002d10 940e 2f60 	CALL __LSLW2
002d12 0fae      	ADD  R26,R30
002d13 1fbf      	ADC  R27,R31
002d14 940e 305b 	CALL __EEPROMRDD
002d16 9508      	RET
                 
                 ;OPTIMIZER ADDED SUBROUTINE, CALLED 3 TIMES, CODE SIZE REDUCTION:3 WORDS
                 SUBOPT_0xF1:
002d17 e9a8
002d18 e0b2      	__POINTW2MN _rprbdata,96
002d19 01f4      	MOVW R30,R8
002d1a 9731      	SBIW R30,1
002d1b 9508      	RET
                 
                 ;OPTIMIZER ADDED SUBROUTINE, CALLED 3 TIMES, CODE SIZE REDUCTION:5 WORDS
                 SUBOPT_0xF2:
002d1c 940e 2f60 	CALL __LSLW2
002d1e 0fae      	ADD  R26,R30
002d1f 1fbf      	ADC  R27,R31
002d20 940e 305b 	CALL __EEPROMRDD
002d22 9508      	RET
                 
                 ;OPTIMIZER ADDED SUBROUTINE, CALLED 2 TIMES, CODE SIZE REDUCTION:2 WORDS
                 SUBOPT_0xF3:
002d23 efa8
002d24 e0b2      	__POINTW2MN _rprbdata,192
002d25 01f4      	MOVW R30,R8
002d26 9731      	SBIW R30,1
002d27 ccd6      	RJMP SUBOPT_0x7F
                 
                 ;OPTIMIZER ADDED SUBROUTINE, CALLED 3 TIMES, CODE SIZE REDUCTION:7 WORDS
                 SUBOPT_0xF4:
002d28 2fe1      	MOV  R30,R17
002d29 50e1      	SUBI R30,LOW(1)
002d2a e0aa      	LDI  R26,LOW(10)
002d2b 9fea      	MUL  R30,R26
002d2c 01f0      	MOVW R30,R0
002d2d 5aee      	SUBI R30,LOW(-_boot_options*2)
002d2e 4ff8      	SBCI R31,HIGH(-_boot_options*2)
002d2f 9508      	RET
                 
                 ;OPTIMIZER ADDED SUBROUTINE, CALLED 3 TIMES, CODE SIZE REDUCTION:1 WORDS
                 SUBOPT_0xF5:
002d30 ebe6      	LDI  R30,LOW(_databuf)
002d31 e0f7      	LDI  R31,HIGH(_databuf)
002d32 93fa      	ST   -Y,R31
002d33 93ea      	ST   -Y,R30
002d34 9508      	RET
                 
                 ;OPTIMIZER ADDED SUBROUTINE, CALLED 2 TIMES, CODE SIZE REDUCTION:1 WORDS
                 SUBOPT_0xF6:
002d35 e0e0      	LDI  R30,LOW(0)
002d36 93e0 07b6 	STS  _databuf,R30
002d38 93e0 07c2 	STS  _pos_databuf,R30
002d3a 9508      	RET
                 
                 ;OPTIMIZER ADDED SUBROUTINE, CALLED 3 TIMES, CODE SIZE REDUCTION:5 WORDS
                 SUBOPT_0xF7:
002d3b 940e 129e 	CALL _LCD_Cls
002d3d e8e0      	LDI  R30,LOW(_datalbl*2)
002d3e e0f7      	LDI  R31,HIGH(_datalbl*2)
002d3f ca7a      	RJMP SUBOPT_0x31
                 
                 ;OPTIMIZER ADDED SUBROUTINE, CALLED 3 TIMES, CODE SIZE REDUCTION:5 WORDS
                 SUBOPT_0xF8:
002d40 e9ee      	LDI  R30,LOW(_databox*2)
002d41 e0f7      	LDI  R31,HIGH(_databox*2)
002d42 93fa      	ST   -Y,R31
002d43 93ea      	ST   -Y,R30
002d44 940c 1f8d 	JMP  _draw_inputbox
                 
                 ;OPTIMIZER ADDED SUBROUTINE, CALLED 8 TIMES, CODE SIZE REDUCTION:32 WORDS
                 SUBOPT_0xF9:
002d46 91e0 07c2 	LDS  R30,_pos_databuf
002d48 5fef      	SUBI R30,-LOW(1)
002d49 93e0 07c2 	STS  _pos_databuf,R30
002d4b cafd      	RJMP SUBOPT_0x42
                 
                 ;OPTIMIZER ADDED SUBROUTINE, CALLED 2 TIMES, CODE SIZE REDUCTION:8 WORDS
                 SUBOPT_0xFA:
002d4c 54ea      	SUBI R30,LOW(-_databuf)
002d4d 4ff8      	SBCI R31,HIGH(-_databuf)
002d4e e3a0      	LDI  R26,LOW(48)
002d4f 83a0      	STD  Z+0,R26
002d50 91e0 07c2 	LDS  R30,_pos_databuf
002d52 e0f0      	LDI  R31,0
002d53 54ea      	SUBI R30,LOW(-_databuf)
002d54 4ff8      	SBCI R31,HIGH(-_databuf)
002d55 e0a0      	LDI  R26,LOW(0)
002d56 83a0      	STD  Z+0,R26
002d57 9508      	RET
                 
                 ;OPTIMIZER ADDED SUBROUTINE, CALLED 12 TIMES, CODE SIZE REDUCTION:19 WORDS
                 SUBOPT_0xFB:
002d58 91e0 07c2 	LDS  R30,_pos_databuf
002d5a caee      	RJMP SUBOPT_0x42
                 
                 ;OPTIMIZER ADDED SUBROUTINE, CALLED 6 TIMES, CODE SIZE REDUCTION:12 WORDS
                 SUBOPT_0xFC:
002d5b 91e0 07c3 	LDS  R30,_max_databuf
002d5d 91a0 07c2 	LDS  R26,_pos_databuf
002d5f 17ae      	CP   R26,R30
002d60 9508      	RET
                 
                 ;OPTIMIZER ADDED SUBROUTINE, CALLED 4 TIMES, CODE SIZE REDUCTION:27 WORDS
                 SUBOPT_0xFD:
002d61 54ea      	SUBI R30,LOW(-_databuf)
002d62 4ff8      	SBCI R31,HIGH(-_databuf)
002d63 8310      	ST   Z,R17
002d64 91e0 07c2 	LDS  R30,_pos_databuf
002d66 e0f0      	LDI  R31,0
002d67 54ea      	SUBI R30,LOW(-_databuf)
002d68 4ff8      	SBCI R31,HIGH(-_databuf)
002d69 e0a0      	LDI  R26,LOW(0)
002d6a 83a0      	STD  Z+0,R26
002d6b 9508      	RET
                 
                 ;OPTIMIZER ADDED SUBROUTINE, CALLED 2 TIMES, CODE SIZE REDUCTION:7 WORDS
                 SUBOPT_0xFE:
002d6c 01f4      	MOVW R30,R8
002d6d 9731      	SBIW R30,1
002d6e 940e 2f5e 	CALL __LSLW3
002d70 0fae      	ADD  R26,R30
002d71 1fbf      	ADC  R27,R31
002d72 27ee      	CLR  R30
002d73 0fa0      	ADD  R26,R16
002d74 1fbe      	ADC  R27,R30
002d75 cf76      	RJMP SUBOPT_0xEB
                 
                 ;OPTIMIZER ADDED SUBROUTINE, CALLED 3 TIMES, CODE SIZE REDUCTION:1 WORDS
                 SUBOPT_0xFF:
002d76 e9ee      	LDI  R30,LOW(_databox*2)
002d77 e0f7      	LDI  R31,HIGH(_databox*2)
002d78 ca41      	RJMP SUBOPT_0x31
                 
                 ;OPTIMIZER ADDED SUBROUTINE, CALLED 2 TIMES, CODE SIZE REDUCTION:38 WORDS
                 SUBOPT_0x100:
002d79 81e8      	LD   R30,Y
002d7a 81f9      	LDD  R31,Y+1
002d7b 9632      	ADIW R30,2
002d7c 940e 303f 	CALL __GETW1PF
002d7e 973a      	SBIW R30,10
002d7f 93ea      	ST   -Y,R30
002d80 81e9      	LDD  R30,Y+1
002d81 81fa      	LDD  R31,Y+1+1
002d82 9634      	ADIW R30,4
002d83 940e 303f 	CALL __GETW1PF
002d85 9733      	SBIW R30,3
002d86 93ea      	ST   -Y,R30
002d87 81ea      	LDD  R30,Y+2
002d88 81fb      	LDD  R31,Y+2+1
002d89 9632      	ADIW R30,2
002d8a 940e 303f 	CALL __GETW1PF
002d8c 01df      	MOVW R26,R30
002d8d 81ea      	LDD  R30,Y+2
002d8e 81fb      	LDD  R31,Y+2+1
002d8f 9636      	ADIW R30,6
002d90 940e 303f 	CALL __GETW1PF
002d92 940e 2f5c 	CALL __LSLW4
002d94 0fae      	ADD  R26,R30
002d95 1fbf      	ADC  R27,R31
002d96 e0ee      	LDI  R30,LOW(14)
002d97 e0f0      	LDI  R31,HIGH(14)
002d98 940e 3054 	CALL __SWAPW12
002d9a 1bea      	SUB  R30,R26
002d9b 0bfb      	SBC  R31,R27
002d9c 93ea      	ST   -Y,R30
002d9d 81eb      	LDD  R30,Y+3
002d9e 81fc      	LDD  R31,Y+3+1
002d9f 9634      	ADIW R30,4
002da0 940e 303f 	CALL __GETW1PF
002da2 9673      	ADIW R30,19
002da3 93ea      	ST   -Y,R30
002da4 9508      	RET
                 
                 ;OPTIMIZER ADDED SUBROUTINE, CALLED 3 TIMES, CODE SIZE REDUCTION:3 WORDS
                 SUBOPT_0x101:
002da5 81e8      	LD   R30,Y
002da6 81f9      	LDD  R31,Y+1
002da7 9632      	ADIW R30,2
002da8 940e 303f 	CALL __GETW1PF
002daa 9508      	RET
                 
                 ;OPTIMIZER ADDED SUBROUTINE, CALLED 3 TIMES, CODE SIZE REDUCTION:5 WORDS
                 SUBOPT_0x102:
002dab 93ea      	ST   -Y,R30
002dac 81e9      	LDD  R30,Y+1
002dad 81fa      	LDD  R31,Y+1+1
002dae 9634      	ADIW R30,4
002daf 940e 303f 	CALL __GETW1PF
002db1 9508      	RET
                 
                 ;OPTIMIZER ADDED SUBROUTINE, CALLED 3 TIMES, CODE SIZE REDUCTION:21 WORDS
                 SUBOPT_0x103:
002db2 93ea      	ST   -Y,R30
002db3 81ea      	LDD  R30,Y+2
002db4 81fb      	LDD  R31,Y+2+1
002db5 9632      	ADIW R30,2
002db6 940e 303f 	CALL __GETW1PF
002db8 01df      	MOVW R26,R30
002db9 81ea      	LDD  R30,Y+2
002dba 81fb      	LDD  R31,Y+2+1
002dbb 9636      	ADIW R30,6
002dbc 940e 303f 	CALL __GETW1PF
002dbe 940e 2f5c 	CALL __LSLW4
002dc0 9508      	RET
                 
                 ;OPTIMIZER ADDED SUBROUTINE, CALLED 3 TIMES, CODE SIZE REDUCTION:5 WORDS
                 SUBOPT_0x104:
002dc1 93ea      	ST   -Y,R30
002dc2 81eb      	LDD  R30,Y+3
002dc3 81fc      	LDD  R31,Y+3+1
002dc4 9634      	ADIW R30,4
002dc5 940e 303f 	CALL __GETW1PF
002dc7 9508      	RET
                 
                 ;OPTIMIZER ADDED SUBROUTINE, CALLED 4 TIMES, CODE SIZE REDUCTION:3 WORDS
                 SUBOPT_0x105:
002dc8 81ea      	LDD  R30,Y+2
002dc9 81fb      	LDD  R31,Y+2+1
002dca 940e 303f 	CALL __GETW1PF
002dcc 9508      	RET
                 
                 ;OPTIMIZER ADDED SUBROUTINE, CALLED 8 TIMES, CODE SIZE REDUCTION:67 WORDS
                 SUBOPT_0x106:
002dcd 81ea      	LDD  R30,Y+2
002dce 81fb      	LDD  R31,Y+2+1
002dcf 9632      	ADIW R30,2
002dd0 91e4      	LPM  R30,Z
002dd1 93ea      	ST   -Y,R30
002dd2 81eb      	LDD  R30,Y+3
002dd3 81fc      	LDD  R31,Y+3+1
002dd4 9634      	ADIW R30,4
002dd5 91e4      	LPM  R30,Z
002dd6 93ea      	ST   -Y,R30
002dd7 81ec      	LDD  R30,Y+4
002dd8 81fd      	LDD  R31,Y+4+1
002dd9 9508      	RET
                 
                 ;OPTIMIZER ADDED SUBROUTINE, CALLED 2 TIMES, CODE SIZE REDUCTION:14 WORDS
                 SUBOPT_0x107:
002dda 9632      	ADIW R30,2
002ddb 940e 303f 	CALL __GETW1PF
002ddd 01df      	MOVW R26,R30
002dde 2fe1      	MOV  R30,R17
002ddf 0fee      	LSL  R30
002de0 0fee      	LSL  R30
002de1 0fee      	LSL  R30
002de2 e0f0      	LDI  R31,0
002de3 0fea      	ADD  R30,R26
002de4 1ffb      	ADC  R31,R27
002de5 93ea      	ST   -Y,R30
002de6 81ed      	LDD  R30,Y+5
002de7 81fe      	LDD  R31,Y+5+1
002de8 9634      	ADIW R30,4
002de9 940e 303f 	CALL __GETW1PF
002deb 9508      	RET
                 
                 ;OPTIMIZER ADDED SUBROUTINE, CALLED 4 TIMES, CODE SIZE REDUCTION:6 WORDS
                 SUBOPT_0x108:
002dec 9638      	ADIW R30,8
002ded 940e 303f 	CALL __GETW1PF
002def 93fa      	ST   -Y,R31
002df0 93ea      	ST   -Y,R30
002df1 9508      	RET
                 
                 ;OPTIMIZER ADDED SUBROUTINE, CALLED 2 TIMES, CODE SIZE REDUCTION:6 WORDS
                 SUBOPT_0x109:
002df2 81ea      	LDD  R30,Y+2
002df3 81fb      	LDD  R31,Y+2+1
002df4 9632      	ADIW R30,2
002df5 91e4      	LPM  R30,Z
002df6 93ea      	ST   -Y,R30
002df7 81eb      	LDD  R30,Y+3
002df8 81fc      	LDD  R31,Y+3+1
002df9 9634      	ADIW R30,4
002dfa 91e4      	LPM  R30,Z
002dfb 93ea      	ST   -Y,R30
002dfc 931a      	ST   -Y,R17
002dfd 9508      	RET
                 
                 ;OPTIMIZER ADDED SUBROUTINE, CALLED 2 TIMES, CODE SIZE REDUCTION:13 WORDS
                 SUBOPT_0x10A:
002dfe 9632      	ADIW R30,2
002dff 940e 303f 	CALL __GETW1PF
002e01 01df      	MOVW R26,R30
002e02 2fe1      	MOV  R30,R17
002e03 95e2      	SWAP R30
002e04 7fe0      	ANDI R30,0xF0
002e05 e0f0      	LDI  R31,0
002e06 0fea      	ADD  R30,R26
002e07 1ffb      	ADC  R31,R27
002e08 93ea      	ST   -Y,R30
002e09 81ed      	LDD  R30,Y+5
002e0a 81fe      	LDD  R31,Y+5+1
002e0b 9634      	ADIW R30,4
002e0c 940e 303f 	CALL __GETW1PF
002e0e 9508      	RET
                 
                 ;OPTIMIZER ADDED SUBROUTINE, CALLED 2 TIMES, CODE SIZE REDUCTION:8 WORDS
                 SUBOPT_0x10B:
002e0f 81ea      	LDD  R30,Y+2
002e10 81fb      	LDD  R31,Y+2+1
002e11 9632      	ADIW R30,2
002e12 91e4      	LPM  R30,Z
002e13 93ea      	ST   -Y,R30
002e14 81eb      	LDD  R30,Y+3
002e15 81fc      	LDD  R31,Y+3+1
002e16 9634      	ADIW R30,4
002e17 91e4      	LPM  R30,Z
002e18 93ea      	ST   -Y,R30
002e19 2fe1      	MOV  R30,R17
002e1a 0fee      	LSL  R30
002e1b 93ea      	ST   -Y,R30
002e1c 9508      	RET
                 
                 ;OPTIMIZER ADDED SUBROUTINE, CALLED 2 TIMES, CODE SIZE REDUCTION:1 WORDS
                 SUBOPT_0x10C:
002e1d 91ed      	LD   R30,X+
002e1e 91fd      	LD   R31,X+
002e1f 9631      	ADIW R30,1
002e20 93fe      	ST   -X,R31
002e21 93ee      	ST   -X,R30
002e22 9731      	SBIW R30,1
002e23 9508      	RET
                 
                 ;OPTIMIZER ADDED SUBROUTINE, CALLED 6 TIMES, CODE SIZE REDUCTION:7 WORDS
                 SUBOPT_0x10D:
002e24 85a9
002e25 85ba
002e26 858b
002e27 859c      	__GETD2S 9
002e28 9508      	RET
                 
                 ;OPTIMIZER ADDED SUBROUTINE, CALLED 4 TIMES, CODE SIZE REDUCTION:3 WORDS
                 SUBOPT_0x10E:
002e29 87e9
002e2a 87fa
002e2b 876b
002e2c 877c      	__PUTD1S 9
002e2d 9508      	RET
                 
                 ;OPTIMIZER ADDED SUBROUTINE, CALLED 2 TIMES, CODE SIZE REDUCTION:1 WORDS
                 SUBOPT_0x10F:
002e2e da83      	RCALL SUBOPT_0x4F
002e2f e0e0
002e30 e0f0
002e31 e260
002e32 e471      	__GETD1N 0x41200000
002e33 9508      	RET
                 
                 ;OPTIMIZER ADDED SUBROUTINE, CALLED 4 TIMES, CODE SIZE REDUCTION:9 WORDS
                 SUBOPT_0x110:
002e34 81ae      	LDD  R26,Y+6
002e35 81bf      	LDD  R27,Y+6+1
002e36 9611      	ADIW R26,1
002e37 83ae      	STD  Y+6,R26
002e38 83bf      	STD  Y+6+1,R27
002e39 9711      	SBIW R26,1
002e3a 9508      	RET
                 
                 ;OPTIMIZER ADDED SUBROUTINE, CALLED 2 TIMES, CODE SIZE REDUCTION:7 WORDS
                 SUBOPT_0x111:
002e3b 940e 31f5 	CALL __DIVF21
002e3d e0a0
002e3e e0b0
002e3f e080
002e40 e39f      	__GETD2N 0x3F000000
002e41 940e 3159 	CALL __ADDF12
002e43 940e 3049 	CALL __PUTPARD1
002e45 940c 2f42 	JMP  _floor
                 
                 ;OPTIMIZER ADDED SUBROUTINE, CALLED 3 TIMES, CODE SIZE REDUCTION:1 WORDS
                 SUBOPT_0x112:
002e47 2fe0      	MOV  R30,R16
002e48 5de0      	SUBI R30,-LOW(48)
002e49 93ec      	ST   X,R30
002e4a 2fe0      	MOV  R30,R16
002e4b 9508      	RET
                 
                 ;OPTIMIZER ADDED SUBROUTINE, CALLED 5 TIMES, CODE SIZE REDUCTION:9 WORDS
                 SUBOPT_0x113:
002e4c 27ff      	CLR  R31
002e4d 2766      	CLR  R22
002e4e 2777      	CLR  R23
002e4f 940e 311f 	CALL __CDF1
002e51 9508      	RET
                 
                 ;OPTIMIZER ADDED SUBROUTINE, CALLED 8 TIMES, CODE SIZE REDUCTION:25 WORDS
                 SUBOPT_0x114:
002e52 e0e0
002e53 e0f0
002e54 e260
002e55 e471      	__GETD1N 0x41200000
002e56 940e 31a7 	CALL __MULF12
002e58 9508      	RET
                 
                 ;OPTIMIZER ADDED SUBROUTINE, CALLED 4 TIMES, CODE SIZE REDUCTION:9 WORDS
                 SUBOPT_0x115:
002e59 81ac
002e5a 81bd
002e5b 818e
002e5c 819f      	__GETD2S 4
002e5d cff4      	RJMP SUBOPT_0x114
                 
                 ;OPTIMIZER ADDED SUBROUTINE, CALLED 8 TIMES, CODE SIZE REDUCTION:11 WORDS
                 SUBOPT_0x116:
002e5e 85ec
002e5f 85fd
002e60 856e
002e61 857f      	__GETD1S 12
002e62 9508      	RET
                 
                 ;OPTIMIZER ADDED SUBROUTINE, CALLED 4 TIMES, CODE SIZE REDUCTION:15 WORDS
                 SUBOPT_0x117:
002e63 940e 2640 	CALL SUBOPT_0x1
002e65 85ac
002e66 85bd
002e67 858e
002e68 859f      	__GETD2S 12
002e69 940e 323a 	CALL __CMPF12
002e6b 9508      	RET
                 
                 ;OPTIMIZER ADDED SUBROUTINE, CALLED 11 TIMES, CODE SIZE REDUCTION:17 WORDS
                 SUBOPT_0x118:
002e6c 85ac
002e6d 85bd
002e6e 858e
002e6f 859f      	__GETD2S 12
002e70 9508      	RET
                 
                 ;OPTIMIZER ADDED SUBROUTINE, CALLED 2 TIMES, CODE SIZE REDUCTION:6 WORDS
                 SUBOPT_0x119:
002e71 e0e0
002e72 e0f0
002e73 e260
002e74 e471      	__GETD1N 0x41200000
002e75 940e 31f5 	CALL __DIVF21
002e77 87ec
002e78 87fd
002e79 876e
002e7a 877f      	__PUTD1S 12
002e7b 5f3f      	SUBI R19,-LOW(1)
002e7c 9508      	RET
                 
                 ;OPTIMIZER ADDED SUBROUTINE, CALLED 3 TIMES, CODE SIZE REDUCTION:1 WORDS
                 SUBOPT_0x11A:
002e7d dfee      	RCALL SUBOPT_0x118
002e7e cfd3      	RJMP SUBOPT_0x114
                 
                 ;OPTIMIZER ADDED SUBROUTINE, CALLED 13 TIMES, CODE SIZE REDUCTION:21 WORDS
                 SUBOPT_0x11B:
002e7f 87ec
002e80 87fd
002e81 876e
002e82 877f      	__PUTD1S 12
002e83 9508      	RET
                 
                 ;OPTIMIZER ADDED SUBROUTINE, CALLED 4 TIMES, CODE SIZE REDUCTION:3 WORDS
                 SUBOPT_0x11C:
002e84 81ac
002e85 81bd
002e86 818e
002e87 819f      	__GETD2S 4
002e88 9508      	RET
                 
                 ;OPTIMIZER ADDED SUBROUTINE, CALLED 3 TIMES, CODE SIZE REDUCTION:5 WORDS
                 SUBOPT_0x11D:
002e89 85a8      	LDD  R26,Y+8
002e8a 85b9      	LDD  R27,Y+8+1
002e8b 9611      	ADIW R26,1
002e8c 87a8      	STD  Y+8,R26
002e8d 87b9      	STD  Y+8+1,R27
002e8e 9711      	SBIW R26,1
002e8f 9508      	RET
                 
                 ;OPTIMIZER ADDED SUBROUTINE, CALLED 4 TIMES, CODE SIZE REDUCTION:36 WORDS
                 SUBOPT_0x11E:
002e90 932a      	ST   -Y,R18
002e91 01fe
002e92 5ae9
002e93 4fff
002e94 9001
002e95 81f0
002e96 2de0      	__GETW1SX 87
002e97 93fa      	ST   -Y,R31
002e98 93ea      	ST   -Y,R30
002e99 01fe      	MOVW R30,R28
002e9a 9673      	ADIW R30,19
002e9b 93fa      	ST   -Y,R31
002e9c 93ea      	ST   -Y,R30
002e9d 940c 2057 	JMP  __put_GD
                 
                 ;OPTIMIZER ADDED SUBROUTINE, CALLED 7 TIMES, CODE SIZE REDUCTION:33 WORDS
                 SUBOPT_0x11F:
002e9f 01de      	MOVW R26,R28
002ea0 5aa8      	SUBI R26,LOW(-(88))
002ea1 4fbf      	SBCI R27,HIGH(-(88))
002ea2 91ed      	LD   R30,X+
002ea3 91fd      	LD   R31,X+
002ea4 9734      	SBIW R30,4
002ea5 93fe      	ST   -X,R31
002ea6 93ee      	ST   -X,R30
002ea7 9508      	RET
                 
                 ;OPTIMIZER ADDED SUBROUTINE, CALLED 4 TIMES, CODE SIZE REDUCTION:36 WORDS
                 SUBOPT_0x120:
002ea8 93ea      	ST   -Y,R30
002ea9 01fe
002eaa 5ae9
002eab 4fff
002eac 9001
002ead 81f0
002eae 2de0      	__GETW1SX 87
002eaf 93fa      	ST   -Y,R31
002eb0 93ea      	ST   -Y,R30
002eb1 01fe      	MOVW R30,R28
002eb2 9673      	ADIW R30,19
002eb3 93fa      	ST   -Y,R31
002eb4 93ea      	ST   -Y,R30
002eb5 940c 2057 	JMP  __put_GD
                 
                 ;OPTIMIZER ADDED SUBROUTINE, CALLED 2 TIMES, CODE SIZE REDUCTION:1 WORDS
                 SUBOPT_0x121:
002eb7 85ea      	LDD  R30,Y+10
002eb8 85fb      	LDD  R31,Y+10+1
002eb9 9631      	ADIW R30,1
002eba 87ea      	STD  Y+10,R30
002ebb 87fb      	STD  Y+10+1,R31
002ebc 9731      	SBIW R30,1
002ebd 9508      	RET
                 
                 ;OPTIMIZER ADDED SUBROUTINE, CALLED 2 TIMES, CODE SIZE REDUCTION:4 WORDS
                 SUBOPT_0x122:
002ebe 87ea      	STD  Y+10,R30
002ebf 87fb      	STD  Y+10+1,R31
002ec0 93fa      	ST   -Y,R31
002ec1 93ea      	ST   -Y,R30
002ec2 940e 2efe 	CALL _strlen
002ec4 2f1e      	MOV  R17,R30
002ec5 9508      	RET
                 
                 ;OPTIMIZER ADDED SUBROUTINE, CALLED 4 TIMES, CODE SIZE REDUCTION:3 WORDS
                 SUBOPT_0x123:
002ec6 9634      	ADIW R30,4
002ec7 01df      	MOVW R26,R30
002ec8 940e 3030 	CALL __GETW1P
002eca 9508      	RET
                 
                 ;OPTIMIZER ADDED SUBROUTINE, CALLED 2 TIMES, CODE SIZE REDUCTION:14 WORDS
                 SUBOPT_0x124:
002ecb 7f0b      	ANDI R16,LOW(251)
002ecc 89eb      	LDD  R30,Y+19
002ecd 93ea      	ST   -Y,R30
002ece 01fe
002ecf 5ae9
002ed0 4fff
002ed1 9001
002ed2 81f0
002ed3 2de0      	__GETW1SX 87
002ed4 93fa      	ST   -Y,R31
002ed5 93ea      	ST   -Y,R30
002ed6 01fe      	MOVW R30,R28
002ed7 5ae9      	SUBI R30,LOW(-(87))
002ed8 4fff      	SBCI R31,HIGH(-(87))
002ed9 93fa      	ST   -Y,R31
002eda 93ea      	ST   -Y,R30
002edb 940e 2057 	CALL __put_GD
002edd 3050      	CPI  R21,0
002ede 9508      	RET
                 
                 ;OPTIMIZER ADDED SUBROUTINE, CALLED 4 TIMES, CODE SIZE REDUCTION:3 WORDS
                 SUBOPT_0x125:
002edf 85a8
002ee0 85b9
002ee1 858a
002ee2 859b      	__GETD2S 8
002ee3 9508      	RET
                 
                 ;OPTIMIZER ADDED SUBROUTINE, CALLED 3 TIMES, CODE SIZE REDUCTION:1 WORDS
                 SUBOPT_0x126:
002ee4 db1e      	RCALL SUBOPT_0x80
002ee5 940e 30b3 	CALL __ANEGF1
002ee7 9508      	RET
                 
                 ;OPTIMIZER ADDED SUBROUTINE, CALLED 4 TIMES, CODE SIZE REDUCTION:3 WORDS
                 SUBOPT_0x127:
002ee8 d9d5      	RCALL SUBOPT_0x51
002ee9 940e 31a7 	CALL __MULF12
002eeb 9508      	RET
                 
                 
                 	.DSEG
                 _3:
0007c5           	.BYTE 0x0C
                 _4:
0007d1           	.BYTE 0x10
                 _548:
0007e1           	.BYTE 0x0F
                 _549:
0007f0           	.BYTE 0x10
                 _550:
000800           	.BYTE 0x0B
                 _551:
00080b           	.BYTE 0x0D
                 _552:
000818           	.BYTE 0x0F
                 _553:
000827           	.BYTE 0x0F
                 _576:
000836           	.BYTE 0x0F
                 _577:
000845           	.BYTE 0x11
                 _578:
000856           	.BYTE 0x11
                 _597:
000867           	.BYTE 0x11
                 _641:
000878           	.BYTE 0x13
                 _721:
00088b           	.BYTE 0x08
                 _722:
000893           	.BYTE 0x07
                 _723:
00089a           	.BYTE 0x09
                 _724:
0008a3           	.BYTE 0x09
                 _725:
0008ac           	.BYTE 0x09
                 _726:
0008b5           	.BYTE 0x09
                 _727:
0008be           	.BYTE 0x09
                 _728:
0008c7           	.BYTE 0x09
                 _729:
0008d0           	.BYTE 0x09
                 _779:
0008d9           	.BYTE 0x09
                 _780:
0008e2           	.BYTE 0x07
                 _781:
0008e9           	.BYTE 0x03
                 _782:
0008ec           	.BYTE 0x03
                 _783:
0008ef           	.BYTE 0x03
                 _784:
0008f2           	.BYTE 0x03
                 _806:
0008f5           	.BYTE 0x0F
                 _807:
000904           	.BYTE 0x0D
                 _808:
000911           	.BYTE 0x0D
                 _809:
00091e           	.BYTE 0x0D
                 _810:
00092b           	.BYTE 0x0D
                 _829:
000938           	.BYTE 0x0E
                 _830:
000946           	.BYTE 0x0E
                 
                 	.CSEG
                 _isdigit:
002eec e0e1      	ldi  r30,1
002eed 91f9      	ld   r31,y+
002eee 33f0      	cpi  r31,'0'
002eef f010      	brlo __isdigit0
002ef0 33fa      	cpi  r31,'9'+1
002ef1 f008      	brlo __isdigit1
                 __isdigit0:
002ef2 27ee      	clr  r30
                 __isdigit1:
002ef3 9508      	ret
                 
                 _isspace:
002ef4 e0e1      	ldi  r30,1
002ef5 91f9      	ld   r31,y+
002ef6 32f0      	cpi  r31,' '
002ef7 f029      	breq __isspace1
002ef8 30f9      	cpi  r31,9
002ef9 f010      	brlo __isspace0
002efa 30fe      	cpi  r31,14
002efb f008      	brlo __isspace1
                 __isspace0:
002efc 27ee      	clr  r30
                 __isspace1:
002efd 9508      	ret
                 
                 _strlen:
002efe 91a9      	ld   r26,y+
002eff 91b9      	ld   r27,y+
002f00 27ee      	clr  r30
002f01 27ff      	clr  r31
                 __strlen0:
002f02 916d      	ld   r22,x+
002f03 2366      	tst  r22
002f04 f011      	breq __strlen1
002f05 9631      	adiw r30,1
002f06 cffb      	rjmp __strlen0
                 __strlen1:
002f07 9508      	ret
                 
                 _strlenf:
002f08 27aa      	clr  r26
002f09 27bb      	clr  r27
002f0a 91e9      	ld   r30,y+
002f0b 91f9      	ld   r31,y+
                 __strlenf0:
002f0c 9005      	lpm  r0,z+
002f0d 2000      	tst  r0
002f0e f011      	breq __strlenf1
002f0f 9611      	adiw r26,1
002f10 cffb      	rjmp __strlenf0
                 __strlenf1:
002f11 01fd      	movw r30,r26
002f12 9508      	ret
                 
                 __ftrunc:
002f13 817b      	ldd  r23,y+3
002f14 816a      	ldd  r22,y+2
002f15 81f9      	ldd  r31,y+1
002f16 81e8      	ld   r30,y
002f17 fb77      	bst  r23,7
002f18 0f77      	lsl  r23
002f19 fd67      	sbrc r22,7
002f1a 6071      	sbr  r23,1
002f1b 2f97      	mov  r25,r23
002f1c 579e      	subi r25,0x7e
002f1d f081      	breq __ftrunc0
002f1e f078      	brcs __ftrunc0
002f1f 3198      	cpi  r25,24
002f20 f490      	brsh __ftrunc1
002f21 27aa      	clr  r26
002f22 27bb      	clr  r27
002f23 2788      	clr  r24
                 __ftrunc2:
002f24 9408      	sec
002f25 9587      	ror  r24
002f26 95b7      	ror  r27
002f27 95a7      	ror  r26
002f28 959a      	dec  r25
002f29 f7d1      	brne __ftrunc2
002f2a 23ea      	and  r30,r26
002f2b 23fb      	and  r31,r27
002f2c 2368      	and  r22,r24
002f2d c005      	rjmp __ftrunc1
                 __ftrunc0:
002f2e 94e8      	clt
002f2f 2777      	clr  r23
002f30 27ee      	clr  r30
002f31 27ff      	clr  r31
002f32 2766      	clr  r22
                 __ftrunc1:
002f33 776f      	cbr  r22,0x80
002f34 9576      	lsr  r23
002f35 f408      	brcc __ftrunc3
002f36 6860      	sbr  r22,0x80
                 __ftrunc3:
002f37 f977      	bld  r23,7
002f38 91a9      	ld   r26,y+
002f39 91b9      	ld   r27,y+
002f3a 9189      	ld   r24,y+
002f3b 9199      	ld   r25,y+
002f3c 17ea      	cp   r30,r26
002f3d 07fb      	cpc  r31,r27
002f3e 0768      	cpc  r22,r24
002f3f 0779      	cpc  r23,r25
002f40 fb97      	bst  r25,7
002f41 9508      	ret
                 
                 _floor:
002f42 dfd0      	rcall __ftrunc
002f43 f409      	brne __floor1
                 __floor0:
002f44 9508      	ret
                 __floor1:
002f45 f7f6      	brtc __floor0
002f46 eb9f      	ldi  r25,0xbf
                 
                 __addfc:
002f47 27aa      	clr  r26
002f48 27bb      	clr  r27
002f49 e880      	ldi  r24,0x80
002f4a c20e      	rjmp __addf12
                 
                 __ADDW2R15:
002f4b 2400      	CLR  R0
002f4c 0daf      	ADD  R26,R15
002f4d 1db0      	ADC  R27,R0
002f4e 9508      	RET
                 
                 __ANEGW1:
002f4f 95e0      	COM  R30
002f50 95f0      	COM  R31
002f51 9631      	ADIW R30,1
002f52 9508      	RET
                 
                 __ANEGD1:
002f53 95e0      	COM  R30
002f54 95f0      	COM  R31
002f55 9560      	COM  R22
002f56 9570      	COM  R23
002f57 5fef      	SUBI R30,-1
002f58 4fff      	SBCI R31,-1
002f59 4f6f      	SBCI R22,-1
002f5a 4f7f      	SBCI R23,-1
002f5b 9508      	RET
                 
                 __LSLW4:
002f5c 0fee      	LSL  R30
002f5d 1fff      	ROL  R31
                 __LSLW3:
002f5e 0fee      	LSL  R30
002f5f 1fff      	ROL  R31
                 __LSLW2:
002f60 0fee      	LSL  R30
002f61 1fff      	ROL  R31
002f62 0fee      	LSL  R30
002f63 1fff      	ROL  R31
002f64 9508      	RET
                 
                 __CBD1:
002f65 2ffe      	MOV  R31,R30
002f66 0fff      	ADD  R31,R31
002f67 0bff      	SBC  R31,R31
002f68 2f6f      	MOV  R22,R31
002f69 2f7f      	MOV  R23,R31
002f6a 9508      	RET
                 
                 __CWD1:
002f6b 2f6f      	MOV  R22,R31
002f6c 0f66      	ADD  R22,R22
002f6d 0b66      	SBC  R22,R22
002f6e 2f76      	MOV  R23,R22
002f6f 9508      	RET
                 
                 __EQB12:
002f70 17ea      	CP   R30,R26
002f71 e0e1      	LDI  R30,1
002f72 f009      	BREQ __EQB12T
002f73 27ee      	CLR  R30
                 __EQB12T:
002f74 9508      	RET
                 
                 __MULW12U:
002f75 9ffa      	MUL  R31,R26
002f76 2df0      	MOV  R31,R0
002f77 9feb      	MUL  R30,R27
002f78 0df0      	ADD  R31,R0
002f79 9fea      	MUL  R30,R26
002f7a 2de0      	MOV  R30,R0
002f7b 0df1      	ADD  R31,R1
002f7c 9508      	RET
                 
                 __MULD12U:
002f7d 9f7a      	MUL  R23,R26
002f7e 2d70      	MOV  R23,R0
002f7f 9f6b      	MUL  R22,R27
002f80 0d70      	ADD  R23,R0
002f81 9ff8      	MUL  R31,R24
002f82 0d70      	ADD  R23,R0
002f83 9fe9      	MUL  R30,R25
002f84 0d70      	ADD  R23,R0
002f85 9f6a      	MUL  R22,R26
002f86 2d60      	MOV  R22,R0
002f87 0d71      	ADD  R23,R1
002f88 9ffb      	MUL  R31,R27
002f89 0d60      	ADD  R22,R0
002f8a 1d71      	ADC  R23,R1
002f8b 9fe8      	MUL  R30,R24
002f8c 0d60      	ADD  R22,R0
002f8d 1d71      	ADC  R23,R1
002f8e 2788      	CLR  R24
002f8f 9ffa      	MUL  R31,R26
002f90 2df0      	MOV  R31,R0
002f91 0d61      	ADD  R22,R1
002f92 1f78      	ADC  R23,R24
002f93 9feb      	MUL  R30,R27
002f94 0df0      	ADD  R31,R0
002f95 1d61      	ADC  R22,R1
002f96 1f78      	ADC  R23,R24
002f97 9fea      	MUL  R30,R26
002f98 2de0      	MOV  R30,R0
002f99 0df1      	ADD  R31,R1
002f9a 1f68      	ADC  R22,R24
002f9b 1f78      	ADC  R23,R24
002f9c 9508      	RET
                 
                 __MULD12:
002f9d d07f      	RCALL __CHKSIGND
002f9e dfde      	RCALL __MULD12U
002f9f f40e      	BRTC __MULD121
002fa0 dfb2      	RCALL __ANEGD1
                 __MULD121:
002fa1 9508      	RET
                 
                 __DIVB21U:
002fa2 2400      	CLR  R0
002fa3 e098      	LDI  R25,8
                 __DIVB21U1:
002fa4 0faa      	LSL  R26
002fa5 1c00      	ROL  R0
002fa6 1a0e      	SUB  R0,R30
002fa7 f410      	BRCC __DIVB21U2
002fa8 0e0e      	ADD  R0,R30
002fa9 c001      	RJMP __DIVB21U3
                 __DIVB21U2:
002faa 60a1      	SBR  R26,1
                 __DIVB21U3:
002fab 959a      	DEC  R25
002fac f7b9      	BRNE __DIVB21U1
002fad 2fea      	MOV  R30,R26
002fae 2da0      	MOV  R26,R0
002faf 9508      	RET
                 
                 __DIVB21:
002fb0 d060      	RCALL __CHKSIGNB
002fb1 dff0      	RCALL __DIVB21U
002fb2 f40e      	BRTC __DIVB211
002fb3 95e1      	NEG  R30
                 __DIVB211:
002fb4 9508      	RET
                 
                 __DIVW21U:
002fb5 2400      	CLR  R0
002fb6 2411      	CLR  R1
002fb7 e190      	LDI  R25,16
                 __DIVW21U1:
002fb8 0faa      	LSL  R26
002fb9 1fbb      	ROL  R27
002fba 1c00      	ROL  R0
002fbb 1c11      	ROL  R1
002fbc 1a0e      	SUB  R0,R30
002fbd 0a1f      	SBC  R1,R31
002fbe f418      	BRCC __DIVW21U2
002fbf 0e0e      	ADD  R0,R30
002fc0 1e1f      	ADC  R1,R31
002fc1 c001      	RJMP __DIVW21U3
                 __DIVW21U2:
002fc2 60a1      	SBR  R26,1
                 __DIVW21U3:
002fc3 959a      	DEC  R25
002fc4 f799      	BRNE __DIVW21U1
002fc5 01fd      	MOVW R30,R26
002fc6 01d0      	MOVW R26,R0
002fc7 9508      	RET
                 
                 __DIVD21U:
002fc8 933f      	PUSH R19
002fc9 934f      	PUSH R20
002fca 935f      	PUSH R21
002fcb 2400      	CLR  R0
002fcc 2411      	CLR  R1
002fcd 2744      	CLR  R20
002fce 2755      	CLR  R21
002fcf e230      	LDI  R19,32
                 __DIVD21U1:
002fd0 0faa      	LSL  R26
002fd1 1fbb      	ROL  R27
002fd2 1f88      	ROL  R24
002fd3 1f99      	ROL  R25
002fd4 1c00      	ROL  R0
002fd5 1c11      	ROL  R1
002fd6 1f44      	ROL  R20
002fd7 1f55      	ROL  R21
002fd8 1a0e      	SUB  R0,R30
002fd9 0a1f      	SBC  R1,R31
002fda 0b46      	SBC  R20,R22
002fdb 0b57      	SBC  R21,R23
002fdc f428      	BRCC __DIVD21U2
002fdd 0e0e      	ADD  R0,R30
002fde 1e1f      	ADC  R1,R31
002fdf 1f46      	ADC  R20,R22
002fe0 1f57      	ADC  R21,R23
002fe1 c001      	RJMP __DIVD21U3
                 __DIVD21U2:
002fe2 60a1      	SBR  R26,1
                 __DIVD21U3:
002fe3 953a      	DEC  R19
002fe4 f759      	BRNE __DIVD21U1
002fe5 01fd      	MOVW R30,R26
002fe6 01bc      	MOVW R22,R24
002fe7 01d0      	MOVW R26,R0
002fe8 01ca      	MOVW R24,R20
002fe9 915f      	POP  R21
002fea 914f      	POP  R20
002feb 913f      	POP  R19
002fec 9508      	RET
                 
                 __MODB21:
002fed 94e8      	CLT
002fee ffa7      	SBRS R26,7
002fef c002      	RJMP __MODB211
002ff0 95a1      	NEG  R26
002ff1 9468      	SET
                 __MODB211:
002ff2 fde7      	SBRC R30,7
002ff3 95e1      	NEG  R30
002ff4 dfad      	RCALL __DIVB21U
002ff5 2fea      	MOV  R30,R26
002ff6 f40e      	BRTC __MODB212
002ff7 95e1      	NEG  R30
                 __MODB212:
002ff8 9508      	RET
                 
                 __MODB21U:
002ff9 dfa8      	RCALL __DIVB21U
002ffa 2fea      	MOV  R30,R26
002ffb 9508      	RET
                 
                 __MODW21U:
002ffc dfb8      	RCALL __DIVW21U
002ffd 01fd      	MOVW R30,R26
002ffe 9508      	RET
                 
                 __MODW21:
002fff 94e8      	CLT
003000 ffb7      	SBRS R27,7
003001 c004      	RJMP __MODW211
003002 95a0      	COM  R26
003003 95b0      	COM  R27
003004 9611      	ADIW R26,1
003005 9468      	SET
                 __MODW211:
003006 fdf7      	SBRC R31,7
003007 df47      	RCALL __ANEGW1
003008 dfac      	RCALL __DIVW21U
003009 01fd      	MOVW R30,R26
00300a f40e      	BRTC __MODW212
00300b df43      	RCALL __ANEGW1
                 __MODW212:
00300c 9508      	RET
                 
                 __MODD21U:
00300d dfba      	RCALL __DIVD21U
00300e 01fd      	MOVW R30,R26
00300f 01bc      	MOVW R22,R24
003010 9508      	RET
                 
                 __CHKSIGNB:
003011 94e8      	CLT
003012 ffe7      	SBRS R30,7
003013 c002      	RJMP __CHKSB1
003014 95e1      	NEG  R30
003015 9468      	SET
                 __CHKSB1:
003016 ffa7      	SBRS R26,7
003017 c004      	RJMP __CHKSB2
003018 95a1      	NEG  R26
003019 f800      	BLD  R0,0
00301a 9403      	INC  R0
00301b fa00      	BST  R0,0
                 __CHKSB2:
00301c 9508      	RET
                 
                 __CHKSIGND:
00301d 94e8      	CLT
00301e ff77      	SBRS R23,7
00301f c002      	RJMP __CHKSD1
003020 df32      	RCALL __ANEGD1
003021 9468      	SET
                 __CHKSD1:
003022 ff97      	SBRS R25,7
003023 c00b      	RJMP __CHKSD2
003024 2400      	CLR  R0
003025 95a0      	COM  R26
003026 95b0      	COM  R27
003027 9580      	COM  R24
003028 9590      	COM  R25
003029 9611      	ADIW R26,1
00302a 1d80      	ADC  R24,R0
00302b 1d90      	ADC  R25,R0
00302c f800      	BLD  R0,0
00302d 9403      	INC  R0
00302e fa00      	BST  R0,0
                 __CHKSD2:
00302f 9508      	RET
                 
                 __GETW1P:
003030 91ed      	LD   R30,X+
003031 91fc      	LD   R31,X
003032 9711      	SBIW R26,1
003033 9508      	RET
                 
                 __GETD1P:
003034 91ed      	LD   R30,X+
003035 91fd      	LD   R31,X+
003036 916d      	LD   R22,X+
003037 917c      	LD   R23,X
003038 9713      	SBIW R26,3
003039 9508      	RET
                 
                 __PUTDP1:
00303a 93ed      	ST   X+,R30
00303b 93fd      	ST   X+,R31
00303c 936d      	ST   X+,R22
00303d 937c      	ST   X,R23
00303e 9508      	RET
                 
                 __GETW1PF:
00303f 9005      	LPM  R0,Z+
003040 91f4      	LPM  R31,Z
003041 2de0      	MOV  R30,R0
003042 9508      	RET
                 
                 __GETD1PF:
003043 9005      	LPM  R0,Z+
003044 9015      	LPM  R1,Z+
003045 9165      	LPM  R22,Z+
003046 9174      	LPM  R23,Z
003047 01f0      	MOVW R30,R0
003048 9508      	RET
                 
                 __PUTPARD1:
003049 937a      	ST   -Y,R23
00304a 936a      	ST   -Y,R22
00304b 93fa      	ST   -Y,R31
00304c 93ea      	ST   -Y,R30
00304d 9508      	RET
                 
                 __SWAPD12:
00304e 2e18      	MOV  R1,R24
00304f 2f86      	MOV  R24,R22
003050 2d61      	MOV  R22,R1
003051 2e19      	MOV  R1,R25
003052 2f97      	MOV  R25,R23
003053 2d71      	MOV  R23,R1
                 
                 __SWAPW12:
003054 2e1b      	MOV  R1,R27
003055 2fbf      	MOV  R27,R31
003056 2df1      	MOV  R31,R1
                 
                 __SWAPB12:
003057 2e1a      	MOV  R1,R26
003058 2fae      	MOV  R26,R30
003059 2de1      	MOV  R30,R1
00305a 9508      	RET
                 
                 __EEPROMRDD:
00305b 9612      	ADIW R26,2
00305c d003      	RCALL __EEPROMRDW
00305d 2f7f      	MOV  R23,R31
00305e 2f6e      	MOV  R22,R30
00305f 9712      	SBIW R26,2
                 
                 __EEPROMRDW:
003060 9611      	ADIW R26,1
003061 d002      	RCALL __EEPROMRDB
003062 2ffe      	MOV  R31,R30
003063 9711      	SBIW R26,1
                 
                 __EEPROMRDB:
003064 99e1      	SBIC EECR,EEWE
003065 cffe      	RJMP __EEPROMRDB
003066 93ff      	PUSH R31
003067 b7ff      	IN   R31,SREG
003068 94f8      	CLI
003069 bbae      	OUT  EEARL,R26
00306a bbbf      	OUT  EEARH,R27
00306b 9ae0      	SBI  EECR,EERE
00306c b3ed      	IN   R30,EEDR
00306d bfff      	OUT  SREG,R31
00306e 91ff      	POP  R31
00306f 9508      	RET
                 
                 __EEPROMWRD:
003070 d00a      	RCALL __EEPROMWRW
003071 9612      	ADIW R26,2
003072 2e0e      	MOV  R0,R30
003073 2e1f      	MOV  R1,R31
003074 2fe6      	MOV  R30,R22
003075 2ff7      	MOV  R31,R23
003076 d004      	RCALL __EEPROMWRW
003077 2de0      	MOV  R30,R0
003078 2df1      	MOV  R31,R1
003079 9712      	SBIW R26,2
00307a 9508      	RET
                 
                 __EEPROMWRW:
00307b d007      	RCALL __EEPROMWRB
00307c 9611      	ADIW R26,1
00307d 93ef      	PUSH R30
00307e 2fef      	MOV  R30,R31
00307f d003      	RCALL __EEPROMWRB
003080 91ef      	POP  R30
003081 9711      	SBIW R26,1
003082 9508      	RET
                 
                 __EEPROMWRB:
003083 99e1      	SBIC EECR,EEWE
003084 cffe      	RJMP __EEPROMWRB
003085 b79f      	IN   R25,SREG
003086 94f8      	CLI
003087 bbae      	OUT  EEARL,R26
003088 bbbf      	OUT  EEARH,R27
003089 9ae0      	SBI  EECR,EERE
00308a b38d      	IN   R24,EEDR
00308b 17e8      	CP   R30,R24
00308c f019      	BREQ __EEPROMWRB0
00308d bbed      	OUT  EEDR,R30
00308e 9ae2      	SBI  EECR,EEMWE
00308f 9ae1      	SBI  EECR,EEWE
                 __EEPROMWRB0:
003090 bf9f      	OUT  SREG,R25
003091 9508      	RET
                 
                 _frexp:
003092 91a9      	LD   R26,Y+
003093 91b9      	LD   R27,Y+
003094 91e9      	LD   R30,Y+
003095 91f9      	LD   R31,Y+
003096 9169      	LD   R22,Y+
003097 9179      	LD   R23,Y+
003098 fb77      	BST  R23,7
003099 0f66      	LSL  R22
00309a 1f77      	ROL  R23
00309b 2788      	CLR  R24
00309c 577e      	SUBI R23,0x7E
00309d 0b88      	SBC  R24,R24
00309e 937d      	ST   X+,R23
00309f 938c      	ST   X,R24
0030a0 e77e      	LDI  R23,0x7E
0030a1 9576      	LSR  R23
0030a2 9567      	ROR  R22
0030a3 f07e      	BRTS __ANEGF1
0030a4 9508      	RET
                 
                 _ldexp:
0030a5 91a9      	LD   R26,Y+
0030a6 91b9      	LD   R27,Y+
0030a7 91e9      	LD   R30,Y+
0030a8 91f9      	LD   R31,Y+
0030a9 9169      	LD   R22,Y+
0030aa 9179      	LD   R23,Y+
0030ab fb77      	BST  R23,7
0030ac 0f66      	LSL  R22
0030ad 1f77      	ROL  R23
0030ae 0f7a      	ADD  R23,R26
0030af 9576      	LSR  R23
0030b0 9567      	ROR  R22
0030b1 f00e      	BRTS __ANEGF1
0030b2 9508      	RET
                 
                 __ANEGF1:
0030b3 9730      	SBIW R30,0
0030b4 4060      	SBCI R22,0
0030b5 4070      	SBCI R23,0
0030b6 f009      	BREQ __ANEGF10
0030b7 5870      	SUBI R23,0x80
                 __ANEGF10:
0030b8 9508      	RET
                 
                 __ROUND_REPACK:
0030b9 2355      	TST  R21
0030ba f442      	BRPL __REPACK
0030bb 3850      	CPI  R21,0x80
0030bc f411      	BRNE __ROUND_REPACK0
0030bd ffe0      	SBRS R30,0
0030be c004      	RJMP __REPACK
                 __ROUND_REPACK0:
0030bf 9631      	ADIW R30,1
0030c0 1f69      	ADC  R22,R25
0030c1 1f79      	ADC  R23,R25
0030c2 f06b      	BRVS __REPACK1
                 
                 __REPACK:
0030c3 e850      	LDI  R21,0x80
0030c4 2757      	EOR  R21,R23
0030c5 f411      	BRNE __REPACK0
0030c6 935f      	PUSH R21
0030c7 c0cd      	RJMP __ZERORES
                 __REPACK0:
0030c8 3f5f      	CPI  R21,0xFF
0030c9 f031      	BREQ __REPACK1
0030ca 0f66      	LSL  R22
0030cb 0c00      	LSL  R0
0030cc 9557      	ROR  R21
0030cd 9567      	ROR  R22
0030ce 2f75      	MOV  R23,R21
0030cf 9508      	RET
                 __REPACK1:
0030d0 935f      	PUSH R21
0030d1 2000      	TST  R0
0030d2 f00a      	BRMI __REPACK2
0030d3 c0cd      	RJMP __MAXRES
                 __REPACK2:
0030d4 c0c6      	RJMP __MINRES
                 
                 __UNPACK:
0030d5 e850      	LDI  R21,0x80
0030d6 2e19      	MOV  R1,R25
0030d7 2215      	AND  R1,R21
0030d8 0f88      	LSL  R24
0030d9 1f99      	ROL  R25
0030da 2795      	EOR  R25,R21
0030db 0f55      	LSL  R21
0030dc 9587      	ROR  R24
                 
                 __UNPACK1:
0030dd e850      	LDI  R21,0x80
0030de 2e07      	MOV  R0,R23
0030df 2205      	AND  R0,R21
0030e0 0f66      	LSL  R22
0030e1 1f77      	ROL  R23
0030e2 2775      	EOR  R23,R21
0030e3 0f55      	LSL  R21
0030e4 9567      	ROR  R22
0030e5 9508      	RET
                 
                 __CFD1U:
0030e6 9468      	SET
0030e7 c001      	RJMP __CFD1U0
                 __CFD1:
0030e8 94e8      	CLT
                 __CFD1U0:
0030e9 935f      	PUSH R21
0030ea dff2      	RCALL __UNPACK1
0030eb 3870      	CPI  R23,0x80
0030ec f018      	BRLO __CFD10
0030ed 3f7f      	CPI  R23,0xFF
0030ee f408      	BRCC __CFD10
0030ef c0a5      	RJMP __ZERORES
                 __CFD10:
0030f0 e156      	LDI  R21,22
0030f1 1b57      	SUB  R21,R23
0030f2 f4aa      	BRPL __CFD11
0030f3 9551      	NEG  R21
0030f4 3058      	CPI  R21,8
0030f5 f40e      	BRTC __CFD19
0030f6 3059      	CPI  R21,9
                 __CFD19:
0030f7 f030      	BRLO __CFD17
0030f8 efef      	SER  R30
0030f9 efff      	SER  R31
0030fa ef6f      	SER  R22
0030fb e77f      	LDI  R23,0x7F
0030fc f977      	BLD  R23,7
0030fd c01a      	RJMP __CFD15
                 __CFD17:
0030fe 2777      	CLR  R23
0030ff 2355      	TST  R21
003100 f0b9      	BREQ __CFD15
                 __CFD18:
003101 0fee      	LSL  R30
003102 1fff      	ROL  R31
003103 1f66      	ROL  R22
003104 1f77      	ROL  R23
003105 955a      	DEC  R21
003106 f7d1      	BRNE __CFD18
003107 c010      	RJMP __CFD15
                 __CFD11:
003108 2777      	CLR  R23
                 __CFD12:
003109 3058      	CPI  R21,8
00310a f028      	BRLO __CFD13
00310b 2fef      	MOV  R30,R31
00310c 2ff6      	MOV  R31,R22
00310d 2f67      	MOV  R22,R23
00310e 5058      	SUBI R21,8
00310f cff9      	RJMP __CFD12
                 __CFD13:
003110 2355      	TST  R21
003111 f031      	BREQ __CFD15
                 __CFD14:
003112 9576      	LSR  R23
003113 9567      	ROR  R22
003114 95f7      	ROR  R31
003115 95e7      	ROR  R30
003116 955a      	DEC  R21
003117 f7d1      	BRNE __CFD14
                 __CFD15:
003118 2000      	TST  R0
003119 f40a      	BRPL __CFD16
00311a de38      	RCALL __ANEGD1
                 __CFD16:
00311b 915f      	POP  R21
00311c 9508      	RET
                 
                 __CDF1U:
00311d 9468      	SET
00311e c001      	RJMP __CDF1U0
                 __CDF1:
00311f 94e8      	CLT
                 __CDF1U0:
003120 9730      	SBIW R30,0
003121 4060      	SBCI R22,0
003122 4070      	SBCI R23,0
003123 f0b1      	BREQ __CDF10
003124 2400      	CLR  R0
003125 f026      	BRTS __CDF11
003126 2377      	TST  R23
003127 f412      	BRPL __CDF11
003128 9400      	COM  R0
003129 de29      	RCALL __ANEGD1
                 __CDF11:
00312a 2e17      	MOV  R1,R23
00312b e17e      	LDI  R23,30
00312c 2011      	TST  R1
                 __CDF12:
00312d f032      	BRMI __CDF13
00312e 957a      	DEC  R23
00312f 0fee      	LSL  R30
003130 1fff      	ROL  R31
003131 1f66      	ROL  R22
003132 1c11      	ROL  R1
003133 cff9      	RJMP __CDF12
                 __CDF13:
003134 2fef      	MOV  R30,R31
003135 2ff6      	MOV  R31,R22
003136 2d61      	MOV  R22,R1
003137 935f      	PUSH R21
003138 df8a      	RCALL __REPACK
003139 915f      	POP  R21
                 __CDF10:
00313a 9508      	RET
                 
                 __SWAPACC:
00313b 934f      	PUSH R20
00313c 01af      	MOVW R20,R30
00313d 01fd      	MOVW R30,R26
00313e 01da      	MOVW R26,R20
00313f 01ab      	MOVW R20,R22
003140 01bc      	MOVW R22,R24
003141 01ca      	MOVW R24,R20
003142 2d40      	MOV  R20,R0
003143 2c01      	MOV  R0,R1
003144 2e14      	MOV  R1,R20
003145 914f      	POP  R20
003146 9508      	RET
                 
                 __UADD12:
003147 0fea      	ADD  R30,R26
003148 1ffb      	ADC  R31,R27
003149 1f68      	ADC  R22,R24
00314a 9508      	RET
                 
                 __NEGMAN1:
00314b 95e0      	COM  R30
00314c 95f0      	COM  R31
00314d 9560      	COM  R22
00314e 5fef      	SUBI R30,-1
00314f 4fff      	SBCI R31,-1
003150 4f6f      	SBCI R22,-1
003151 9508      	RET
                 
                 __SUBF12:
003152 935f      	PUSH R21
003153 df81      	RCALL __UNPACK
003154 3890      	CPI  R25,0x80
003155 f171      	BREQ __ADDF129
003156 e850      	LDI  R21,0x80
003157 2615      	EOR  R1,R21
                 
003158 c004      	RJMP __ADDF120
                 
                 __ADDF12:
003159 935f      	PUSH R21
00315a df7a      	RCALL __UNPACK
00315b 3890      	CPI  R25,0x80
00315c f139      	BREQ __ADDF129
                 
                 __ADDF120:
00315d 3870      	CPI  R23,0x80
00315e f121      	BREQ __ADDF128
                 __ADDF121:
00315f 2f57      	MOV  R21,R23
003160 1b59      	SUB  R21,R25
003161 f113      	BRVS __ADDF129
003162 f412      	BRPL __ADDF122
003163 dfd7      	RCALL __SWAPACC
003164 cffa      	RJMP __ADDF121
                 __ADDF122:
003165 3158      	CPI  R21,24
003166 f018      	BRLO __ADDF123
003167 27aa      	CLR  R26
003168 27bb      	CLR  R27
003169 2788      	CLR  R24
                 __ADDF123:
00316a 3058      	CPI  R21,8
00316b f028      	BRLO __ADDF124
00316c 2fab      	MOV  R26,R27
00316d 2fb8      	MOV  R27,R24
00316e 2788      	CLR  R24
00316f 5058      	SUBI R21,8
003170 cff9      	RJMP __ADDF123
                 __ADDF124:
003171 2355      	TST  R21
003172 f029      	BREQ __ADDF126
                 __ADDF125:
003173 9586      	LSR  R24
003174 95b7      	ROR  R27
003175 95a7      	ROR  R26
003176 955a      	DEC  R21
003177 f7d9      	BRNE __ADDF125
                 __ADDF126:
003178 2d50      	MOV  R21,R0
003179 2551      	EOR  R21,R1
00317a f062      	BRMI __ADDF127
00317b dfcb      	RCALL __UADD12
00317c f438      	BRCC __ADDF129
00317d 9567      	ROR  R22
00317e 95f7      	ROR  R31
00317f 95e7      	ROR  R30
003180 9573      	INC  R23
003181 f413      	BRVC __ADDF129
003182 c01e      	RJMP __MAXRES
                 __ADDF128:
003183 dfb7      	RCALL __SWAPACC
                 __ADDF129:
003184 df3e      	RCALL __REPACK
003185 915f      	POP  R21
003186 9508      	RET
                 __ADDF127:
003187 1bea      	SUB  R30,R26
003188 0bfb      	SBC  R31,R27
003189 0b68      	SBC  R22,R24
00318a f051      	BREQ __ZERORES
00318b f410      	BRCC __ADDF1210
00318c 9400      	COM  R0
00318d dfbd      	RCALL __NEGMAN1
                 __ADDF1210:
00318e 2366      	TST  R22
00318f f3a2      	BRMI __ADDF129
003190 0fee      	LSL  R30
003191 1fff      	ROL  R31
003192 1f66      	ROL  R22
003193 957a      	DEC  R23
003194 f7cb      	BRVC __ADDF1210
                 
                 __ZERORES:
003195 27ee      	CLR  R30
003196 27ff      	CLR  R31
003197 2766      	CLR  R22
003198 2777      	CLR  R23
003199 915f      	POP  R21
00319a 9508      	RET
                 
                 __MINRES:
00319b efef      	SER  R30
00319c efff      	SER  R31
00319d e76f      	LDI  R22,0x7F
00319e ef7f      	SER  R23
00319f 915f      	POP  R21
0031a0 9508      	RET
                 
                 __MAXRES:
0031a1 efef      	SER  R30
0031a2 efff      	SER  R31
0031a3 e76f      	LDI  R22,0x7F
0031a4 e77f      	LDI  R23,0x7F
0031a5 915f      	POP  R21
0031a6 9508      	RET
                 
                 __MULF12:
0031a7 935f      	PUSH R21
0031a8 df2c      	RCALL __UNPACK
0031a9 3870      	CPI  R23,0x80
0031aa f351      	BREQ __ZERORES
0031ab 3890      	CPI  R25,0x80
0031ac f341      	BREQ __ZERORES
0031ad 2401      	EOR  R0,R1
0031ae 9408      	SEC
0031af 1f79      	ADC  R23,R25
0031b0 f423      	BRVC __MULF124
0031b1 f31c      	BRLT __ZERORES
                 __MULF125:
0031b2 2000      	TST  R0
0031b3 f33a      	BRMI __MINRES
0031b4 cfec      	RJMP __MAXRES
                 __MULF124:
0031b5 920f      	PUSH R0
0031b6 931f      	PUSH R17
0031b7 932f      	PUSH R18
0031b8 933f      	PUSH R19
0031b9 934f      	PUSH R20
0031ba 2711      	CLR  R17
0031bb 2722      	CLR  R18
0031bc 2799      	CLR  R25
0031bd 9f68      	MUL  R22,R24
0031be 01a0      	MOVW R20,R0
0031bf 9f8f      	MUL  R24,R31
0031c0 2d30      	MOV  R19,R0
0031c1 0d41      	ADD  R20,R1
0031c2 1f59      	ADC  R21,R25
0031c3 9f6b      	MUL  R22,R27
0031c4 0d30      	ADD  R19,R0
0031c5 1d41      	ADC  R20,R1
0031c6 1f59      	ADC  R21,R25
0031c7 9f8e      	MUL  R24,R30
0031c8 d027      	RCALL __MULF126
0031c9 9fbf      	MUL  R27,R31
0031ca d025      	RCALL __MULF126
0031cb 9f6a      	MUL  R22,R26
0031cc d023      	RCALL __MULF126
0031cd 9fbe      	MUL  R27,R30
0031ce d01d      	RCALL __MULF127
0031cf 9faf      	MUL  R26,R31
0031d0 d01b      	RCALL __MULF127
0031d1 9fae      	MUL  R26,R30
0031d2 0d11      	ADD  R17,R1
0031d3 1f29      	ADC  R18,R25
0031d4 1f39      	ADC  R19,R25
0031d5 1f49      	ADC  R20,R25
0031d6 1f59      	ADC  R21,R25
0031d7 2fe3      	MOV  R30,R19
0031d8 2ff4      	MOV  R31,R20
0031d9 2f65      	MOV  R22,R21
0031da 2f52      	MOV  R21,R18
0031db 914f      	POP  R20
0031dc 913f      	POP  R19
0031dd 912f      	POP  R18
0031de 911f      	POP  R17
0031df 900f      	POP  R0
0031e0 2366      	TST  R22
0031e1 f02a      	BRMI __MULF122
0031e2 0f55      	LSL  R21
0031e3 1fee      	ROL  R30
0031e4 1fff      	ROL  R31
0031e5 1f66      	ROL  R22
0031e6 c002      	RJMP __MULF123
                 __MULF122:
0031e7 9573      	INC  R23
0031e8 f24b      	BRVS __MULF125
                 __MULF123:
0031e9 decf      	RCALL __ROUND_REPACK
0031ea 915f      	POP  R21
0031eb 9508      	RET
                 
                 __MULF127:
0031ec 0d10      	ADD  R17,R0
0031ed 1d21      	ADC  R18,R1
0031ee 1f39      	ADC  R19,R25
0031ef c002      	RJMP __MULF128
                 __MULF126:
0031f0 0d20      	ADD  R18,R0
0031f1 1d31      	ADC  R19,R1
                 __MULF128:
0031f2 1f49      	ADC  R20,R25
0031f3 1f59      	ADC  R21,R25
0031f4 9508      	RET
                 
                 __DIVF21:
0031f5 935f      	PUSH R21
0031f6 dede      	RCALL __UNPACK
0031f7 3870      	CPI  R23,0x80
0031f8 f421      	BRNE __DIVF210
0031f9 2011      	TST  R1
                 __DIVF211:
0031fa f40a      	BRPL __DIVF219
0031fb cf9f      	RJMP __MINRES
                 __DIVF219:
0031fc cfa4      	RJMP __MAXRES
                 __DIVF210:
0031fd 3890      	CPI  R25,0x80
0031fe f409      	BRNE __DIVF218
                 __DIVF217:
0031ff cf95      	RJMP __ZERORES
                 __DIVF218:
003200 2401      	EOR  R0,R1
003201 9408      	SEC
003202 0b97      	SBC  R25,R23
003203 f41b      	BRVC __DIVF216
003204 f3d4      	BRLT __DIVF217
003205 2000      	TST  R0
003206 cff3      	RJMP __DIVF211
                 __DIVF216:
003207 2f79      	MOV  R23,R25
003208 931f      	PUSH R17
003209 932f      	PUSH R18
00320a 933f      	PUSH R19
00320b 934f      	PUSH R20
00320c 2411      	CLR  R1
00320d 2711      	CLR  R17
00320e 2722      	CLR  R18
00320f 2733      	CLR  R19
003210 2744      	CLR  R20
003211 2755      	CLR  R21
003212 e290      	LDI  R25,32
                 __DIVF212:
003213 17ae      	CP   R26,R30
003214 07bf      	CPC  R27,R31
003215 0786      	CPC  R24,R22
003216 0741      	CPC  R20,R17
003217 f030      	BRLO __DIVF213
003218 1bae      	SUB  R26,R30
003219 0bbf      	SBC  R27,R31
00321a 0b86      	SBC  R24,R22
00321b 0b41      	SBC  R20,R17
00321c 9408      	SEC
00321d c001      	RJMP __DIVF214
                 __DIVF213:
00321e 9488      	CLC
                 __DIVF214:
00321f 1f55      	ROL  R21
003220 1f22      	ROL  R18
003221 1f33      	ROL  R19
003222 1c11      	ROL  R1
003223 1faa      	ROL  R26
003224 1fbb      	ROL  R27
003225 1f88      	ROL  R24
003226 1f44      	ROL  R20
003227 959a      	DEC  R25
003228 f751      	BRNE __DIVF212
003229 01f9      	MOVW R30,R18
00322a 2d61      	MOV  R22,R1
00322b 914f      	POP  R20
00322c 913f      	POP  R19
00322d 912f      	POP  R18
00322e 911f      	POP  R17
00322f 2366      	TST  R22
003230 f032      	BRMI __DIVF215
003231 0f55      	LSL  R21
003232 1fee      	ROL  R30
003233 1fff      	ROL  R31
003234 1f66      	ROL  R22
003235 957a      	DEC  R23
003236 f243      	BRVS __DIVF217
                 __DIVF215:
003237 de81      	RCALL __ROUND_REPACK
003238 915f      	POP  R21
003239 9508      	RET
                 
                 __CMPF12:
00323a 2399      	TST  R25
00323b f09a      	BRMI __CMPF120
00323c 2377      	TST  R23
00323d f042      	BRMI __CMPF121
00323e 1797      	CP   R25,R23
00323f f048      	BRLO __CMPF122
003240 f429      	BRNE __CMPF121
003241 17ae      	CP   R26,R30
003242 07bf      	CPC  R27,R31
003243 0786      	CPC  R24,R22
003244 f020      	BRLO __CMPF122
003245 f031      	BREQ __CMPF123
                 __CMPF121:
003246 9498      	CLZ
003247 9488      	CLC
003248 9508      	RET
                 __CMPF122:
003249 9498      	CLZ
00324a 9408      	SEC
00324b 9508      	RET
                 __CMPF123:
00324c 9418      	SEZ
00324d 9488      	CLC
00324e 9508      	RET
                 __CMPF120:
00324f 2377      	TST  R23
003250 f7c2      	BRPL __CMPF122
003251 1797      	CP   R25,R23
003252 f398      	BRLO __CMPF121
003253 f7a9      	BRNE __CMPF122
003254 17ea      	CP   R30,R26
003255 07fb      	CPC  R31,R27
003256 0768      	CPC  R22,R24
003257 f388      	BRLO __CMPF122
003258 f399      	BREQ __CMPF123
003259 cfec      	RJMP __CMPF121
                 
                 __CPD10:
00325a 9730      	SBIW R30,0
00325b 4060      	SBCI R22,0
00325c 4070      	SBCI R23,0
00325d 9508      	RET
                 
                 __CPW02:
00325e 2400      	CLR  R0
00325f 160a      	CP   R0,R26
003260 060b      	CPC  R0,R27
003261 9508      	RET
                 
                 __CPD20:
003262 9710      	SBIW R26,0
003263 4080      	SBCI R24,0
003264 4090      	SBCI R25,0
003265 9508      	RET
                 
                 __CPD02:
003266 2400      	CLR  R0
003267 160a      	CP   R0,R26
003268 060b      	CPC  R0,R27
003269 0608      	CPC  R0,R24
00326a 0609      	CPC  R0,R25
00326b 9508      	RET
                 
                 __CPD12:
00326c 17ea      	CP   R30,R26
00326d 07fb      	CPC  R31,R27
00326e 0768      	CPC  R22,R24
00326f 0779      	CPC  R23,R25
003270 9508      	RET
                 
                 __SAVELOCR6:
003271 935a      	ST   -Y,R21
                 __SAVELOCR5:
003272 934a      	ST   -Y,R20
                 __SAVELOCR4:
003273 933a      	ST   -Y,R19
                 __SAVELOCR3:
003274 932a      	ST   -Y,R18
                 __SAVELOCR2:
003275 931a      	ST   -Y,R17
003276 930a      	ST   -Y,R16
003277 9508      	RET
                 
                 __LOADLOCR6:
003278 815d      	LDD  R21,Y+5
                 __LOADLOCR5:
003279 814c      	LDD  R20,Y+4
                 __LOADLOCR4:
00327a 813b      	LDD  R19,Y+3
                 __LOADLOCR3:
00327b 812a      	LDD  R18,Y+2
                 __LOADLOCR2:
00327c 8119      	LDD  R17,Y+1
00327d 8108      	LD   R16,Y
00327e 9508      	RET
                 
                 __INITLOCB:
                 __INITLOCW:
00327f 0fac      	ADD R26,R28
003280 1fbd      	ADC R27,R29
                 __INITLOC0:
003281 9005      	LPM  R0,Z+
003282 920d      	ST   X+,R0
003283 958a      	DEC  R24
003284 f7e1      	BRNE __INITLOC0
003285 9508      	RET
                 
                 ;END OF CODE MARKER
                 __END_OF_CODE:


RESOURCE USE INFORMATION
------------------------

Notice:
The register and instruction counts are symbol table hit counts,
and hence implicitly used resources are not counted, eg, the
'lpm' instruction without operands implicitly uses r0 and z,
none of which are counted.

x,y,z are separate entities in the symbol table and are
counted separately from r26..r31 here.

.dseg memory usage only counts static data declared with .byte

ATmega64 register use summary:
r0 : 121 r1 :  52 r2 :   0 r3 :   0 r4 :  32 r5 :  36 r6 :   5 r7 :   1 
r8 :  14 r9 :   1 r10:  20 r11:   6 r12:  13 r13:   5 r14:   0 r15:   8 
r16: 174 r17: 303 r18:  71 r19:  78 r20:  70 r21: 137 r22: 289 r23: 272 
r24: 166 r25: 137 r26: 792 r27: 329 r28:  94 r29:   2 r30:2382 r31: 807 
x  :  66 y  :1132 z  :  89 
Registers used: 32 out of 35 (91.4%)

ATmega64 instruction use summary:
adc   :  83 add   :  81 adiw  : 127 and   :   6 andi  :  40 asr   :   0 
bclr  :   0 bld   :   4 brbc  :   0 brbs  :   0 brcc  :  15 brcs  :   3 
break :   0 breq  : 147 brge  :  27 brhc  :   0 brhs  :   0 brid  :   0 
brie  :   0 brlo  :  81 brlt  :  12 brmi  :   9 brne  : 327 brpl  :   7 
brsh  :  71 brtc  :   7 brts  :   3 brvc  :   4 brvs  :   4 bset  :   0 
bst   :   6 call  :1677 cbi   :   1 cbr   :   1 clc   :   3 clh   :   0 
cli   :   5 cln   :   0 clr   :  90 cls   :   0 clt   :   8 clv   :   0 
clz   :   2 com   :  19 cp    :  84 cpc   :  60 cpi   : 378 cpse  :   0 
dec   :  13 eor   :   9 fmul  :   0 fmuls :   0 fmulsu:   0 icall :   2 
ijmp  :   0 in    :  13 inc   :   4 jmp   :  89 ld    : 166 ldd   : 486 
ldi   :1524 lds   : 208 lpm   :  28 lsl   :  28 lsr   :   6 mov   : 242 
movw  : 186 mul   :  37 muls  :   0 mulsu :   0 neg   :   8 nop   :   0 
or    :   3 ori   :  12 out   :  37 pop   : 130 push  : 130 rcall : 148 
ret   : 337 reti  :  13 rjmp  : 529 rol   :  44 ror   :  17 sbc   :  17 
sbci  :  88 sbi   :   5 sbic  :   3 sbis  :   2 sbiw  : 112 sbr   :   5 
sbrc  :   5 sbrs  :  23 sec   :   5 seh   :   0 sei   :   3 sen   :   0 
ser   :   8 ses   :   0 set   :   7 sev   :   0 sez   :   1 sleep :   0 
spm   :   0 st    : 377 std   : 230 sts   : 205 sub   :  16 subi  : 173 
swap  :   2 tst   :  22 wdr   :   0 
Instructions used: 82 out of 111 (73.9%)

ATmega64 memory use summary [bytes]:
Segment   Begin    End      Code   Data   Used    Size   Use%
---------------------------------------------------------------
[.cseg] 0x000000 0x00650c  22658   3210  25868   65536  39.5%
[.dseg] 0x000100 0x000954      0   1108   1108    4096  27.1%
[.eseg] 0x000000 0x000430      0   1072   1072    2048  52.3%

Assembly complete, 0 errors, 25 warnings
